SF:E:\Github\CytoScnPy\cytoscnpy-cli\src\main.rs
FN:44,_RNCNvCsehoTloi6mk5_13cytoscnpy_cli14run_mcp_server0B3_
FN:44,_RNvCsehoTloi6mk5_13cytoscnpy_cli14run_mcp_server
FN:11,_RNvCsehoTloi6mk5_13cytoscnpy_cli4main
FN:38,_RNvCsehoTloi6mk5_13cytoscnpy_cli7run_mcp
FNDA:0,_RNCNvCsehoTloi6mk5_13cytoscnpy_cli14run_mcp_server0B3_
FNDA:0,_RNvCsehoTloi6mk5_13cytoscnpy_cli14run_mcp_server
FNDA:0,_RNvCsehoTloi6mk5_13cytoscnpy_cli4main
FNDA:0,_RNvCsehoTloi6mk5_13cytoscnpy_cli7run_mcp
FNF:4
FNH:0
DA:11,0
DA:13,0
DA:16,0
DA:18,0
DA:19,0
DA:20,0
DA:21,0
DA:22,0
DA:25,0
DA:29,0
DA:30,0
DA:31,0
DA:32,0
DA:33,0
DA:36,0
DA:38,0
DA:39,0
DA:40,0
DA:41,0
DA:44,0
DA:45,0
DA:46,0
DA:47,0
DA:48,0
DA:49,0
DA:50,0
BRF:0
BRH:0
LF:27
LH:0
end_of_record
SF:E:\Github\CytoScnPy\cytoscnpy-mcp\src\tools.rs
FN:207,_RNCNvMs5_NtCsf3cVlAEknJd_13cytoscnpy_mcp5toolsNtB7_15CytoScnPyServer10quick_scan0B9_
FN:153,_RNCNvMs5_NtCsf3cVlAEknJd_13cytoscnpy_mcp5toolsNtB7_15CytoScnPyServer12analyze_code0B9_
FN:126,_RNCNvMs5_NtCsf3cVlAEknJd_13cytoscnpy_mcp5toolsNtB7_15CytoScnPyServer12analyze_path0B9_
FN:243,_RNCNvMs5_NtCsf3cVlAEknJd_13cytoscnpy_mcp5toolsNtB7_15CytoScnPyServer21cyclomatic_complexity0B9_
FN:285,_RNCNvMs5_NtCsf3cVlAEknJd_13cytoscnpy_mcp5toolsNtB7_15CytoScnPyServer21maintainability_index0B9_
FN:76,_RNvMNtCsf3cVlAEknJd_13cytoscnpy_mcp5toolsNtB2_15CytoScnPyServer3new
FN:166,_RNvMs5_NtCsf3cVlAEknJd_13cytoscnpy_mcp5toolsNtB5_15CytoScnPyServer10quick_scan
FN:140,_RNvMs5_NtCsf3cVlAEknJd_13cytoscnpy_mcp5toolsNtB5_15CytoScnPyServer12analyze_code
FN:105,_RNvMs5_NtCsf3cVlAEknJd_13cytoscnpy_mcp5toolsNtB5_15CytoScnPyServer12analyze_path
FN:217,_RNvMs5_NtCsf3cVlAEknJd_13cytoscnpy_mcp5toolsNtB5_15CytoScnPyServer21cyclomatic_complexity
FN:258,_RNvMs5_NtCsf3cVlAEknJd_13cytoscnpy_mcp5toolsNtB5_15CytoScnPyServer21maintainability_index
FN:38,_RNvNtCsf3cVlAEknJd_13cytoscnpy_mcp5tools12default_true
FN:54,_RNvNtCsf3cVlAEknJd_13cytoscnpy_mcp5tools16default_filename
FN:297,_RNvXs6_NtCsf3cVlAEknJd_13cytoscnpy_mcp5toolsNtB5_15CytoScnPyServerNtNtNtCsc2vCEL68yuW_4rmcp7handler6server13ServerHandler8get_info
FN:84,_RNvXs_NtCsf3cVlAEknJd_13cytoscnpy_mcp5toolsNtB4_15CytoScnPyServerNtNtCsgS7EKHCc5jD_4core7default7Default7default
FN:76,_RNvMNtCs42cSN1H4Ayx_13cytoscnpy_mcp5toolsNtB2_15CytoScnPyServer3new
FN:166,_RNvMs5_NtCs42cSN1H4Ayx_13cytoscnpy_mcp5toolsNtB5_15CytoScnPyServer10quick_scan
FN:140,_RNvMs5_NtCs42cSN1H4Ayx_13cytoscnpy_mcp5toolsNtB5_15CytoScnPyServer12analyze_code
FN:105,_RNvMs5_NtCs42cSN1H4Ayx_13cytoscnpy_mcp5toolsNtB5_15CytoScnPyServer12analyze_path
FN:217,_RNvMs5_NtCs42cSN1H4Ayx_13cytoscnpy_mcp5toolsNtB5_15CytoScnPyServer21cyclomatic_complexity
FN:258,_RNvMs5_NtCs42cSN1H4Ayx_13cytoscnpy_mcp5toolsNtB5_15CytoScnPyServer21maintainability_index
FN:38,_RNvNtCs42cSN1H4Ayx_13cytoscnpy_mcp5tools12default_true
FN:54,_RNvNtCs42cSN1H4Ayx_13cytoscnpy_mcp5tools16default_filename
FN:297,_RNvXs6_NtCs42cSN1H4Ayx_13cytoscnpy_mcp5toolsNtB5_15CytoScnPyServerNtNtNtCsc2vCEL68yuW_4rmcp7handler6server13ServerHandler8get_info
FN:84,_RNvXs_NtCs42cSN1H4Ayx_13cytoscnpy_mcp5toolsNtB4_15CytoScnPyServerNtNtCsgS7EKHCc5jD_4core7default7Default7default
FN:207,_RNCNvMs5_NtCs42cSN1H4Ayx_13cytoscnpy_mcp5toolsNtB7_15CytoScnPyServer10quick_scan0B9_
FN:153,_RNCNvMs5_NtCs42cSN1H4Ayx_13cytoscnpy_mcp5toolsNtB7_15CytoScnPyServer12analyze_code0B9_
FN:126,_RNCNvMs5_NtCs42cSN1H4Ayx_13cytoscnpy_mcp5toolsNtB7_15CytoScnPyServer12analyze_path0B9_
FN:243,_RNCNvMs5_NtCs42cSN1H4Ayx_13cytoscnpy_mcp5toolsNtB7_15CytoScnPyServer21cyclomatic_complexity0B9_
FN:285,_RNCNvMs5_NtCs42cSN1H4Ayx_13cytoscnpy_mcp5toolsNtB7_15CytoScnPyServer21maintainability_index0B9_
FNDA:0,_RNCNvMs5_NtCsf3cVlAEknJd_13cytoscnpy_mcp5toolsNtB7_15CytoScnPyServer10quick_scan0B9_
FNDA:0,_RNCNvMs5_NtCsf3cVlAEknJd_13cytoscnpy_mcp5toolsNtB7_15CytoScnPyServer12analyze_code0B9_
FNDA:0,_RNCNvMs5_NtCsf3cVlAEknJd_13cytoscnpy_mcp5toolsNtB7_15CytoScnPyServer12analyze_path0B9_
FNDA:0,_RNCNvMs5_NtCsf3cVlAEknJd_13cytoscnpy_mcp5toolsNtB7_15CytoScnPyServer21cyclomatic_complexity0B9_
FNDA:0,_RNCNvMs5_NtCsf3cVlAEknJd_13cytoscnpy_mcp5toolsNtB7_15CytoScnPyServer21maintainability_index0B9_
FNDA:0,_RNvMNtCsf3cVlAEknJd_13cytoscnpy_mcp5toolsNtB2_15CytoScnPyServer3new
FNDA:0,_RNvMs5_NtCsf3cVlAEknJd_13cytoscnpy_mcp5toolsNtB5_15CytoScnPyServer10quick_scan
FNDA:0,_RNvMs5_NtCsf3cVlAEknJd_13cytoscnpy_mcp5toolsNtB5_15CytoScnPyServer12analyze_code
FNDA:0,_RNvMs5_NtCsf3cVlAEknJd_13cytoscnpy_mcp5toolsNtB5_15CytoScnPyServer12analyze_path
FNDA:0,_RNvMs5_NtCsf3cVlAEknJd_13cytoscnpy_mcp5toolsNtB5_15CytoScnPyServer21cyclomatic_complexity
FNDA:0,_RNvMs5_NtCsf3cVlAEknJd_13cytoscnpy_mcp5toolsNtB5_15CytoScnPyServer21maintainability_index
FNDA:0,_RNvNtCsf3cVlAEknJd_13cytoscnpy_mcp5tools12default_true
FNDA:0,_RNvNtCsf3cVlAEknJd_13cytoscnpy_mcp5tools16default_filename
FNDA:0,_RNvXs6_NtCsf3cVlAEknJd_13cytoscnpy_mcp5toolsNtB5_15CytoScnPyServerNtNtNtCsc2vCEL68yuW_4rmcp7handler6server13ServerHandler8get_info
FNDA:0,_RNvXs_NtCsf3cVlAEknJd_13cytoscnpy_mcp5toolsNtB4_15CytoScnPyServerNtNtCsgS7EKHCc5jD_4core7default7Default7default
FNDA:8,_RNvMNtCs42cSN1H4Ayx_13cytoscnpy_mcp5toolsNtB2_15CytoScnPyServer3new
FNDA:0,_RNvMs5_NtCs42cSN1H4Ayx_13cytoscnpy_mcp5toolsNtB5_15CytoScnPyServer10quick_scan
FNDA:7,_RNvMs5_NtCs42cSN1H4Ayx_13cytoscnpy_mcp5toolsNtB5_15CytoScnPyServer12analyze_code
FNDA:1,_RNvMs5_NtCs42cSN1H4Ayx_13cytoscnpy_mcp5toolsNtB5_15CytoScnPyServer12analyze_path
FNDA:0,_RNvMs5_NtCs42cSN1H4Ayx_13cytoscnpy_mcp5toolsNtB5_15CytoScnPyServer21cyclomatic_complexity
FNDA:0,_RNvMs5_NtCs42cSN1H4Ayx_13cytoscnpy_mcp5toolsNtB5_15CytoScnPyServer21maintainability_index
FNDA:21,_RNvNtCs42cSN1H4Ayx_13cytoscnpy_mcp5tools12default_true
FNDA:7,_RNvNtCs42cSN1H4Ayx_13cytoscnpy_mcp5tools16default_filename
FNDA:0,_RNvXs6_NtCs42cSN1H4Ayx_13cytoscnpy_mcp5toolsNtB5_15CytoScnPyServerNtNtNtCsc2vCEL68yuW_4rmcp7handler6server13ServerHandler8get_info
FNDA:1,_RNvXs_NtCs42cSN1H4Ayx_13cytoscnpy_mcp5toolsNtB4_15CytoScnPyServerNtNtCsgS7EKHCc5jD_4core7default7Default7default
FNDA:0,_RNCNvMs5_NtCs42cSN1H4Ayx_13cytoscnpy_mcp5toolsNtB7_15CytoScnPyServer10quick_scan0B9_
FNDA:0,_RNCNvMs5_NtCs42cSN1H4Ayx_13cytoscnpy_mcp5toolsNtB7_15CytoScnPyServer12analyze_code0B9_
FNDA:0,_RNCNvMs5_NtCs42cSN1H4Ayx_13cytoscnpy_mcp5toolsNtB7_15CytoScnPyServer12analyze_path0B9_
FNDA:0,_RNCNvMs5_NtCs42cSN1H4Ayx_13cytoscnpy_mcp5toolsNtB7_15CytoScnPyServer21cyclomatic_complexity0B9_
FNDA:0,_RNCNvMs5_NtCs42cSN1H4Ayx_13cytoscnpy_mcp5toolsNtB7_15CytoScnPyServer21maintainability_index0B9_
FNF:15
FNH:6
DA:38,21
DA:39,21
DA:40,21
DA:54,7
DA:55,7
DA:56,7
DA:76,8
DA:77,8
DA:78,8
DA:79,8
DA:80,8
DA:84,1
DA:85,1
DA:86,1
DA:105,1
DA:106,1
DA:107,1
DA:108,1
DA:109,1
DA:110,1
DA:112,1
DA:113,1
DA:114,1
DA:115,1
DA:116,1
DA:117,0
DA:119,0
DA:120,0
DA:121,0
DA:122,0
DA:124,0
DA:125,0
DA:126,0
DA:127,0
DA:128,1
DA:140,7
DA:141,7
DA:142,7
DA:143,7
DA:144,7
DA:145,7
DA:146,7
DA:147,7
DA:148,7
DA:150,7
DA:152,7
DA:153,7
DA:154,7
DA:155,7
DA:166,0
DA:167,0
DA:168,0
DA:169,0
DA:170,0
DA:171,0
DA:173,0
DA:174,0
DA:175,0
DA:176,0
DA:177,0
DA:178,0
DA:181,0
DA:182,0
DA:183,0
DA:184,0
DA:186,0
DA:189,0
DA:190,0
DA:191,0
DA:192,0
DA:193,0
DA:194,0
DA:195,0
DA:197,0
DA:198,0
DA:199,0
DA:200,0
DA:202,0
DA:206,0
DA:207,0
DA:208,0
DA:209,0
DA:217,0
DA:218,0
DA:219,0
DA:220,0
DA:221,0
DA:222,0
DA:224,0
DA:225,0
DA:226,0
DA:227,0
DA:228,0
DA:229,0
DA:231,0
DA:232,0
DA:233,0
DA:234,0
DA:235,0
DA:236,0
DA:237,0
DA:238,0
DA:239,0
DA:240,0
DA:242,0
DA:243,0
DA:244,0
DA:246,0
DA:247,0
DA:248,0
DA:250,0
DA:258,0
DA:259,0
DA:260,0
DA:261,0
DA:262,0
DA:263,0
DA:265,0
DA:266,0
DA:267,0
DA:268,0
DA:269,0
DA:270,0
DA:272,0
DA:273,0
DA:274,0
DA:275,0
DA:276,0
DA:277,0
DA:278,0
DA:279,0
DA:280,0
DA:281,0
DA:282,0
DA:284,0
DA:285,0
DA:286,0
DA:288,0
DA:289,0
DA:290,0
DA:292,0
DA:297,0
DA:298,0
DA:299,0
DA:300,0
DA:301,0
DA:302,0
DA:303,0
DA:304,0
DA:305,0
DA:306,0
DA:307,0
DA:308,0
DA:309,0
DA:310,0
DA:311,0
DA:312,0
DA:313,0
DA:314,0
DA:315,0
DA:316,0
DA:317,0
DA:318,0
DA:319,0
BRF:0
BRH:0
LF:169
LH:40
end_of_record
SF:E:\Github\CytoScnPy\cytoscnpy\src\analyzer\aggregation.rs
FN:322,_RNCNCNvMNtNtCsbhXKu17xbPQ_9cytoscnpy8analyzer11aggregationNtB8_9CytoScnPy17aggregate_resultss2_00Ba_
FN:329,_RNCNCNvMNtNtCsbhXKu17xbPQ_9cytoscnpy8analyzer11aggregationNtB8_9CytoScnPy17aggregate_resultss2_0s_0Ba_
FN:340,_RNCNCNvMNtNtCsbhXKu17xbPQ_9cytoscnpy8analyzer11aggregationNtB8_9CytoScnPy17aggregate_resultss3_00Ba_
FN:140,_RNCNvMNtNtCsbhXKu17xbPQ_9cytoscnpy8analyzer11aggregationNtB6_9CytoScnPy17aggregate_results0B8_
FN:183,_RNCNvMNtNtCsbhXKu17xbPQ_9cytoscnpy8analyzer11aggregationNtB6_9CytoScnPy17aggregate_resultss0_0B8_
FN:271,_RNCNvMNtNtCsbhXKu17xbPQ_9cytoscnpy8analyzer11aggregationNtB6_9CytoScnPy17aggregate_resultss1_0B8_
FN:321,_RNCNvMNtNtCsbhXKu17xbPQ_9cytoscnpy8analyzer11aggregationNtB6_9CytoScnPy17aggregate_resultss2_0B8_
FN:335,_RNCNvMNtNtCsbhXKu17xbPQ_9cytoscnpy8analyzer11aggregationNtB6_9CytoScnPy17aggregate_resultss3_0B8_
FN:181,_RNCNvMNtNtCsbhXKu17xbPQ_9cytoscnpy8analyzer11aggregationNtB6_9CytoScnPy17aggregate_resultss_0B8_
FN:17,_RNvMNtNtCsbhXKu17xbPQ_9cytoscnpy8analyzer11aggregationNtB4_9CytoScnPy17aggregate_results
FN:322,_RNCNCNvMNtNtCs2Eyh5DnjbiX_9cytoscnpy8analyzer11aggregationNtB8_9CytoScnPy17aggregate_resultss2_00Ba_
FN:329,_RNCNCNvMNtNtCs2Eyh5DnjbiX_9cytoscnpy8analyzer11aggregationNtB8_9CytoScnPy17aggregate_resultss2_0s_0Ba_
FN:340,_RNCNCNvMNtNtCs2Eyh5DnjbiX_9cytoscnpy8analyzer11aggregationNtB8_9CytoScnPy17aggregate_resultss3_00Ba_
FN:140,_RNCNvMNtNtCs2Eyh5DnjbiX_9cytoscnpy8analyzer11aggregationNtB6_9CytoScnPy17aggregate_results0B8_
FN:183,_RNCNvMNtNtCs2Eyh5DnjbiX_9cytoscnpy8analyzer11aggregationNtB6_9CytoScnPy17aggregate_resultss0_0B8_
FN:271,_RNCNvMNtNtCs2Eyh5DnjbiX_9cytoscnpy8analyzer11aggregationNtB6_9CytoScnPy17aggregate_resultss1_0B8_
FN:321,_RNCNvMNtNtCs2Eyh5DnjbiX_9cytoscnpy8analyzer11aggregationNtB6_9CytoScnPy17aggregate_resultss2_0B8_
FN:335,_RNCNvMNtNtCs2Eyh5DnjbiX_9cytoscnpy8analyzer11aggregationNtB6_9CytoScnPy17aggregate_resultss3_0B8_
FN:181,_RNCNvMNtNtCs2Eyh5DnjbiX_9cytoscnpy8analyzer11aggregationNtB6_9CytoScnPy17aggregate_resultss_0B8_
FN:17,_RNvMNtNtCs2Eyh5DnjbiX_9cytoscnpy8analyzer11aggregationNtB4_9CytoScnPy17aggregate_results
FNDA:28,_RNCNCNvMNtNtCsbhXKu17xbPQ_9cytoscnpy8analyzer11aggregationNtB8_9CytoScnPy17aggregate_resultss2_00Ba_
FNDA:28,_RNCNCNvMNtNtCsbhXKu17xbPQ_9cytoscnpy8analyzer11aggregationNtB8_9CytoScnPy17aggregate_resultss2_0s_0Ba_
FNDA:7,_RNCNCNvMNtNtCsbhXKu17xbPQ_9cytoscnpy8analyzer11aggregationNtB8_9CytoScnPy17aggregate_resultss3_00Ba_
FNDA:65,_RNCNvMNtNtCsbhXKu17xbPQ_9cytoscnpy8analyzer11aggregationNtB6_9CytoScnPy17aggregate_results0B8_
FNDA:562,_RNCNvMNtNtCsbhXKu17xbPQ_9cytoscnpy8analyzer11aggregationNtB6_9CytoScnPy17aggregate_resultss0_0B8_
FNDA:22,_RNCNvMNtNtCsbhXKu17xbPQ_9cytoscnpy8analyzer11aggregationNtB6_9CytoScnPy17aggregate_resultss1_0B8_
FNDA:28,_RNCNvMNtNtCsbhXKu17xbPQ_9cytoscnpy8analyzer11aggregationNtB6_9CytoScnPy17aggregate_resultss2_0B8_
FNDA:28,_RNCNvMNtNtCsbhXKu17xbPQ_9cytoscnpy8analyzer11aggregationNtB6_9CytoScnPy17aggregate_resultss3_0B8_
FNDA:562,_RNCNvMNtNtCsbhXKu17xbPQ_9cytoscnpy8analyzer11aggregationNtB6_9CytoScnPy17aggregate_resultss_0B8_
FNDA:133,_RNvMNtNtCsbhXKu17xbPQ_9cytoscnpy8analyzer11aggregationNtB4_9CytoScnPy17aggregate_results
FNDA:0,_RNCNCNvMNtNtCs2Eyh5DnjbiX_9cytoscnpy8analyzer11aggregationNtB8_9CytoScnPy17aggregate_resultss2_00Ba_
FNDA:0,_RNCNCNvMNtNtCs2Eyh5DnjbiX_9cytoscnpy8analyzer11aggregationNtB8_9CytoScnPy17aggregate_resultss2_0s_0Ba_
FNDA:0,_RNCNCNvMNtNtCs2Eyh5DnjbiX_9cytoscnpy8analyzer11aggregationNtB8_9CytoScnPy17aggregate_resultss3_00Ba_
FNDA:0,_RNCNvMNtNtCs2Eyh5DnjbiX_9cytoscnpy8analyzer11aggregationNtB6_9CytoScnPy17aggregate_results0B8_
FNDA:0,_RNCNvMNtNtCs2Eyh5DnjbiX_9cytoscnpy8analyzer11aggregationNtB6_9CytoScnPy17aggregate_resultss0_0B8_
FNDA:0,_RNCNvMNtNtCs2Eyh5DnjbiX_9cytoscnpy8analyzer11aggregationNtB6_9CytoScnPy17aggregate_resultss1_0B8_
FNDA:0,_RNCNvMNtNtCs2Eyh5DnjbiX_9cytoscnpy8analyzer11aggregationNtB6_9CytoScnPy17aggregate_resultss2_0B8_
FNDA:0,_RNCNvMNtNtCs2Eyh5DnjbiX_9cytoscnpy8analyzer11aggregationNtB6_9CytoScnPy17aggregate_resultss3_0B8_
FNDA:0,_RNCNvMNtNtCs2Eyh5DnjbiX_9cytoscnpy8analyzer11aggregationNtB6_9CytoScnPy17aggregate_resultss_0B8_
FNDA:0,_RNvMNtNtCs2Eyh5DnjbiX_9cytoscnpy8analyzer11aggregationNtB4_9CytoScnPy17aggregate_results
FNF:10
FNH:10
DA:17,133
DA:18,133
DA:19,133
DA:20,133
DA:21,133
DA:22,133
DA:23,133
DA:24,133
DA:25,133
DA:26,133
DA:27,133
DA:28,133
DA:29,133
DA:30,133
DA:31,133
DA:32,133
DA:33,133
DA:34,133
DA:35,133
DA:36,133
DA:37,133
DA:38,133
DA:39,133
DA:40,133
DA:41,133
DA:42,133
DA:43,133
DA:45,133
DA:46,133
DA:47,133
DA:48,133
DA:50,133
DA:51,133
DA:52,133
DA:54,133
DA:57,178
DA:59,178
DA:60,178
DA:61,178
DA:62,178
DA:63,178
DA:64,178
DA:65,178
DA:66,178
DA:67,178
DA:68,178
DA:69,178
DA:70,178
DA:71,178
DA:73,133
DA:75,178
DA:77,178
DA:80,178
DA:81,178
DA:82,178
DA:83,178
DA:84,178
DA:85,178
DA:86,178
DA:89,178
DA:90,178
DA:91,178
DA:92,178
DA:93,178
DA:94,178
DA:95,178
DA:96,178
DA:97,178
DA:98,178
DA:99,178
DA:100,178
DA:102,178
DA:103,178
DA:104,178
DA:105,178
DA:106,178
DA:107,178
DA:108,178
DA:109,178
DA:111,178
DA:114,1146
DA:115,968
DA:116,968
DA:118,179
DA:119,1
DA:120,1
DA:122,178
DA:123,178
DA:124,178
DA:125,178
DA:126,178
DA:128,178
DA:129,5
DA:130,5
DA:131,5
DA:132,173
DA:137,133
DA:138,695
DA:139,562
DA:140,65
DA:141,65
DA:142,65
DA:143,65
DA:144,65
DA:145,65
DA:146,497
DA:150,133
DA:152,171
DA:153,38
DA:154,2
DA:155,2
DA:158,2
DA:159,2
DA:160,2
DA:162,6
DA:163,6
DA:164,6
DA:165,0
DA:166,0
DA:170,133
DA:171,133
DA:172,133
DA:173,133
DA:174,133
DA:175,133
DA:177,133
DA:179,133
DA:180,133
DA:181,562
DA:182,133
DA:183,562
DA:185,133
DA:187,695
DA:188,562
DA:193,309
DA:194,145
DA:195,145
DA:196,0
DA:197,0
DA:198,309
DA:199,309
DA:200,309
DA:203,253
DA:206,253
DA:207,0
DA:208,0
DA:209,0
DA:210,0
DA:211,0
DA:212,0
DA:213,0
DA:214,0
DA:215,0
DA:216,0
DA:217,0
DA:220,253
DA:229,253
DA:230,253
DA:232,253
DA:233,183
DA:234,17
DA:235,166
DA:236,70
DA:237,0
DA:240,562
DA:243,562
DA:244,6
DA:245,556
DA:248,562
DA:249,36
DA:250,526
DA:252,562
DA:255,214
DA:256,167
DA:257,167
DA:258,103
DA:259,78
DA:260,56
DA:261,41
DA:262,15
DA:263,0
DA:265,47
DA:266,348
DA:270,133
DA:271,133
DA:273,169
DA:274,36
DA:276,27
DA:277,26
DA:278,25
DA:280,3
DA:281,24
DA:283,24
DA:284,24
DA:285,24
DA:286,5
DA:287,19
DA:288,0
DA:289,9
DA:293,133
DA:294,28
DA:295,28
DA:296,28
DA:297,28
DA:298,28
DA:299,28
DA:301,28
DA:302,28
DA:303,28
DA:304,28
DA:305,28
DA:306,28
DA:307,28
DA:308,28
DA:309,28
DA:310,28
DA:311,28
DA:312,28
DA:313,28
DA:314,28
DA:315,28
DA:316,28
DA:317,28
DA:319,28
DA:320,28
DA:321,28
DA:322,28
DA:323,28
DA:324,0
DA:325,0
DA:327,28
DA:329,28
DA:330,28
DA:331,28
DA:333,28
DA:334,28
DA:335,28
DA:336,28
DA:337,28
DA:338,28
DA:339,28
DA:340,28
DA:341,28
DA:342,28
DA:343,28
DA:345,105
DA:349,133
DA:350,133
DA:351,133
DA:352,133
DA:353,133
DA:354,133
DA:355,133
DA:356,133
DA:357,133
DA:358,133
DA:360,305
DA:361,172
DA:362,172
DA:364,311
DA:365,178
DA:366,100
DA:367,100
DA:370,133
DA:373,133
DA:374,133
DA:375,133
DA:376,133
DA:377,133
DA:378,133
DA:379,133
DA:380,133
DA:381,133
DA:382,133
DA:383,133
DA:384,133
DA:386,133
DA:387,133
DA:388,133
DA:389,133
DA:390,133
DA:391,133
DA:392,133
DA:393,133
DA:394,133
DA:395,5
DA:397,128
DA:399,133
DA:400,5
DA:402,128
DA:404,133
DA:405,133
DA:406,133
DA:407,133
DA:408,133
DA:409,133
DA:411,133
DA:413,133
BRF:0
BRH:0
LF:307
LH:287
end_of_record
SF:E:\Github\CytoScnPy\cytoscnpy\src\analyzer\builder.rs
FN:141,_RNCNvMNtNtCsbhXKu17xbPQ_9cytoscnpy8analyzer7builderNtB6_9CytoScnPy11count_files0B8_
FN:108,_RNvMNtNtCsbhXKu17xbPQ_9cytoscnpy8analyzer7builderNtB4_9CytoScnPy10with_ipynb
FN:87,_RNvMNtNtCsbhXKu17xbPQ_9cytoscnpy8analyzer7builderNtB4_9CytoScnPy10with_tests
FN:138,_RNvMNtNtCsbhXKu17xbPQ_9cytoscnpy8analyzer7builderNtB4_9CytoScnPy11count_files
FN:122,_RNvMNtNtCsbhXKu17xbPQ_9cytoscnpy8analyzer7builderNtB4_9CytoScnPy11with_config
FN:73,_RNvMNtNtCsbhXKu17xbPQ_9cytoscnpy8analyzer7builderNtB4_9CytoScnPy11with_danger
FN:80,_RNvMNtNtCsbhXKu17xbPQ_9cytoscnpy8analyzer7builderNtB4_9CytoScnPy12with_quality
FN:66,_RNvMNtNtCsbhXKu17xbPQ_9cytoscnpy8analyzer7builderNtB4_9CytoScnPy12with_secrets
FN:52,_RNvMNtNtCsbhXKu17xbPQ_9cytoscnpy8analyzer7builderNtB4_9CytoScnPy12with_verbose
FN:94,_RNvMNtNtCsbhXKu17xbPQ_9cytoscnpy8analyzer7builderNtB4_9CytoScnPy13with_excludes
FN:101,_RNvMNtNtCsbhXKu17xbPQ_9cytoscnpy8analyzer7builderNtB4_9CytoScnPy13with_includes
FN:59,_RNvMNtNtCsbhXKu17xbPQ_9cytoscnpy8analyzer7builderNtB4_9CytoScnPy15with_confidence
FN:129,_RNvMNtNtCsbhXKu17xbPQ_9cytoscnpy8analyzer7builderNtB4_9CytoScnPy16with_debug_delay
FN:115,_RNvMNtNtCsbhXKu17xbPQ_9cytoscnpy8analyzer7builderNtB4_9CytoScnPy16with_ipynb_cells
FN:10,_RNvMNtNtCsbhXKu17xbPQ_9cytoscnpy8analyzer7builderNtB4_9CytoScnPy3new
FN:45,_RNvMNtNtCsbhXKu17xbPQ_9cytoscnpy8analyzer7builderNtB4_9CytoScnPy9with_root
FN:141,_RNCNvMNtNtCs2Eyh5DnjbiX_9cytoscnpy8analyzer7builderNtB6_9CytoScnPy11count_files0B8_
FN:108,_RNvMNtNtCs2Eyh5DnjbiX_9cytoscnpy8analyzer7builderNtB4_9CytoScnPy10with_ipynb
FN:59,_RNvMNtNtCs2Eyh5DnjbiX_9cytoscnpy8analyzer7builderNtB4_9CytoScnPy15with_confidence
FN:129,_RNvMNtNtCs2Eyh5DnjbiX_9cytoscnpy8analyzer7builderNtB4_9CytoScnPy16with_debug_delay
FN:115,_RNvMNtNtCs2Eyh5DnjbiX_9cytoscnpy8analyzer7builderNtB4_9CytoScnPy16with_ipynb_cells
FN:87,_RNvMNtNtCs2Eyh5DnjbiX_9cytoscnpy8analyzer7builderNtB4_9CytoScnPy10with_tests
FN:138,_RNvMNtNtCs2Eyh5DnjbiX_9cytoscnpy8analyzer7builderNtB4_9CytoScnPy11count_files
FN:122,_RNvMNtNtCs2Eyh5DnjbiX_9cytoscnpy8analyzer7builderNtB4_9CytoScnPy11with_config
FN:73,_RNvMNtNtCs2Eyh5DnjbiX_9cytoscnpy8analyzer7builderNtB4_9CytoScnPy11with_danger
FN:80,_RNvMNtNtCs2Eyh5DnjbiX_9cytoscnpy8analyzer7builderNtB4_9CytoScnPy12with_quality
FN:66,_RNvMNtNtCs2Eyh5DnjbiX_9cytoscnpy8analyzer7builderNtB4_9CytoScnPy12with_secrets
FN:52,_RNvMNtNtCs2Eyh5DnjbiX_9cytoscnpy8analyzer7builderNtB4_9CytoScnPy12with_verbose
FN:94,_RNvMNtNtCs2Eyh5DnjbiX_9cytoscnpy8analyzer7builderNtB4_9CytoScnPy13with_excludes
FN:101,_RNvMNtNtCs2Eyh5DnjbiX_9cytoscnpy8analyzer7builderNtB4_9CytoScnPy13with_includes
FN:10,_RNvMNtNtCs2Eyh5DnjbiX_9cytoscnpy8analyzer7builderNtB4_9CytoScnPy3new
FN:45,_RNvMNtNtCs2Eyh5DnjbiX_9cytoscnpy8analyzer7builderNtB4_9CytoScnPy9with_root
FNDA:14,_RNCNvMNtNtCsbhXKu17xbPQ_9cytoscnpy8analyzer7builderNtB6_9CytoScnPy11count_files0B8_
FNDA:3,_RNvMNtNtCsbhXKu17xbPQ_9cytoscnpy8analyzer7builderNtB4_9CytoScnPy10with_ipynb
FNDA:119,_RNvMNtNtCsbhXKu17xbPQ_9cytoscnpy8analyzer7builderNtB4_9CytoScnPy10with_tests
FNDA:14,_RNvMNtNtCsbhXKu17xbPQ_9cytoscnpy8analyzer7builderNtB4_9CytoScnPy11count_files
FNDA:20,_RNvMNtNtCsbhXKu17xbPQ_9cytoscnpy8analyzer7builderNtB4_9CytoScnPy11with_config
FNDA:62,_RNvMNtNtCsbhXKu17xbPQ_9cytoscnpy8analyzer7builderNtB4_9CytoScnPy11with_danger
FNDA:57,_RNvMNtNtCsbhXKu17xbPQ_9cytoscnpy8analyzer7builderNtB4_9CytoScnPy12with_quality
FNDA:35,_RNvMNtNtCsbhXKu17xbPQ_9cytoscnpy8analyzer7builderNtB4_9CytoScnPy12with_secrets
FNDA:14,_RNvMNtNtCsbhXKu17xbPQ_9cytoscnpy8analyzer7builderNtB4_9CytoScnPy12with_verbose
FNDA:4,_RNvMNtNtCsbhXKu17xbPQ_9cytoscnpy8analyzer7builderNtB4_9CytoScnPy13with_excludes
FNDA:4,_RNvMNtNtCsbhXKu17xbPQ_9cytoscnpy8analyzer7builderNtB4_9CytoScnPy13with_includes
FNDA:115,_RNvMNtNtCsbhXKu17xbPQ_9cytoscnpy8analyzer7builderNtB4_9CytoScnPy15with_confidence
FNDA:0,_RNvMNtNtCsbhXKu17xbPQ_9cytoscnpy8analyzer7builderNtB4_9CytoScnPy16with_debug_delay
FNDA:0,_RNvMNtNtCsbhXKu17xbPQ_9cytoscnpy8analyzer7builderNtB4_9CytoScnPy16with_ipynb_cells
FNDA:29,_RNvMNtNtCsbhXKu17xbPQ_9cytoscnpy8analyzer7builderNtB4_9CytoScnPy3new
FNDA:14,_RNvMNtNtCsbhXKu17xbPQ_9cytoscnpy8analyzer7builderNtB4_9CytoScnPy9with_root
FNDA:0,_RNCNvMNtNtCs2Eyh5DnjbiX_9cytoscnpy8analyzer7builderNtB6_9CytoScnPy11count_files0B8_
FNDA:0,_RNvMNtNtCs2Eyh5DnjbiX_9cytoscnpy8analyzer7builderNtB4_9CytoScnPy10with_ipynb
FNDA:0,_RNvMNtNtCs2Eyh5DnjbiX_9cytoscnpy8analyzer7builderNtB4_9CytoScnPy15with_confidence
FNDA:0,_RNvMNtNtCs2Eyh5DnjbiX_9cytoscnpy8analyzer7builderNtB4_9CytoScnPy16with_debug_delay
FNDA:0,_RNvMNtNtCs2Eyh5DnjbiX_9cytoscnpy8analyzer7builderNtB4_9CytoScnPy16with_ipynb_cells
FNDA:0,_RNvMNtNtCs2Eyh5DnjbiX_9cytoscnpy8analyzer7builderNtB4_9CytoScnPy10with_tests
FNDA:0,_RNvMNtNtCs2Eyh5DnjbiX_9cytoscnpy8analyzer7builderNtB4_9CytoScnPy11count_files
FNDA:0,_RNvMNtNtCs2Eyh5DnjbiX_9cytoscnpy8analyzer7builderNtB4_9CytoScnPy11with_config
FNDA:0,_RNvMNtNtCs2Eyh5DnjbiX_9cytoscnpy8analyzer7builderNtB4_9CytoScnPy11with_danger
FNDA:0,_RNvMNtNtCs2Eyh5DnjbiX_9cytoscnpy8analyzer7builderNtB4_9CytoScnPy12with_quality
FNDA:0,_RNvMNtNtCs2Eyh5DnjbiX_9cytoscnpy8analyzer7builderNtB4_9CytoScnPy12with_secrets
FNDA:0,_RNvMNtNtCs2Eyh5DnjbiX_9cytoscnpy8analyzer7builderNtB4_9CytoScnPy12with_verbose
FNDA:0,_RNvMNtNtCs2Eyh5DnjbiX_9cytoscnpy8analyzer7builderNtB4_9CytoScnPy13with_excludes
FNDA:0,_RNvMNtNtCs2Eyh5DnjbiX_9cytoscnpy8analyzer7builderNtB4_9CytoScnPy13with_includes
FNDA:0,_RNvMNtNtCs2Eyh5DnjbiX_9cytoscnpy8analyzer7builderNtB4_9CytoScnPy3new
FNDA:0,_RNvMNtNtCs2Eyh5DnjbiX_9cytoscnpy8analyzer7builderNtB4_9CytoScnPy9with_root
FNF:16
FNH:14
DA:10,29
DA:11,29
DA:12,29
DA:13,29
DA:14,29
DA:15,29
DA:16,29
DA:17,29
DA:18,29
DA:19,29
DA:20,29
DA:21,29
DA:23,29
DA:24,29
DA:25,29
DA:26,29
DA:27,29
DA:28,29
DA:29,29
DA:30,29
DA:31,29
DA:32,29
DA:33,29
DA:34,29
DA:35,29
DA:36,29
DA:37,29
DA:38,29
DA:39,29
DA:40,29
DA:41,29
DA:45,14
DA:46,14
DA:47,14
DA:48,14
DA:52,14
DA:53,14
DA:54,14
DA:55,14
DA:59,115
DA:60,115
DA:61,115
DA:62,115
DA:66,35
DA:67,35
DA:68,35
DA:69,35
DA:73,62
DA:74,62
DA:75,62
DA:76,62
DA:80,57
DA:81,57
DA:82,57
DA:83,57
DA:87,119
DA:88,119
DA:89,119
DA:90,119
DA:94,4
DA:95,4
DA:96,4
DA:97,4
DA:101,4
DA:102,4
DA:103,4
DA:104,4
DA:108,3
DA:109,3
DA:110,3
DA:111,3
DA:115,0
DA:116,0
DA:117,0
DA:118,0
DA:122,20
DA:123,20
DA:124,20
DA:125,20
DA:129,0
DA:130,0
DA:131,0
DA:132,0
DA:138,14
DA:139,14
DA:140,14
DA:141,14
DA:142,14
DA:143,14
DA:144,14
DA:145,14
DA:146,14
DA:147,14
DA:148,14
DA:149,14
DA:150,14
DA:151,14
DA:152,14
DA:153,14
BRF:0
BRH:0
LF:100
LH:92
end_of_record
SF:E:\Github\CytoScnPy\cytoscnpy\src\analyzer\heuristics.rs
FN:122,_RNCNvNtNtCsbhXKu17xbPQ_9cytoscnpy8analyzer10heuristics15apply_penalties0B7_
FN:139,_RNCNvNtNtCsbhXKu17xbPQ_9cytoscnpy8analyzer10heuristics16apply_heuristics0B7_
FN:18,_RNvNtNtCsbhXKu17xbPQ_9cytoscnpy8analyzer10heuristics15apply_penalties
FN:133,_RNvNtNtCsbhXKu17xbPQ_9cytoscnpy8analyzer10heuristics16apply_heuristics
FN:18,_RNvNtNtCs2Eyh5DnjbiX_9cytoscnpy8analyzer10heuristics15apply_penalties
FN:133,_RNvNtNtCs2Eyh5DnjbiX_9cytoscnpy8analyzer10heuristics16apply_heuristics
FN:122,_RNCNvNtNtCs2Eyh5DnjbiX_9cytoscnpy8analyzer10heuristics15apply_penalties0B7_
FN:139,_RNCNvNtNtCs2Eyh5DnjbiX_9cytoscnpy8analyzer10heuristics16apply_heuristics0B7_
FNDA:754,_RNCNvNtNtCsbhXKu17xbPQ_9cytoscnpy8analyzer10heuristics15apply_penalties0B7_
FNDA:462,_RNCNvNtNtCsbhXKu17xbPQ_9cytoscnpy8analyzer10heuristics16apply_heuristics0B7_
FNDA:824,_RNvNtNtCsbhXKu17xbPQ_9cytoscnpy8analyzer10heuristics15apply_penalties
FNDA:1386,_RNvNtNtCsbhXKu17xbPQ_9cytoscnpy8analyzer10heuristics16apply_heuristics
FNDA:0,_RNvNtNtCs2Eyh5DnjbiX_9cytoscnpy8analyzer10heuristics15apply_penalties
FNDA:0,_RNvNtNtCs2Eyh5DnjbiX_9cytoscnpy8analyzer10heuristics16apply_heuristics
FNDA:0,_RNCNvNtNtCs2Eyh5DnjbiX_9cytoscnpy8analyzer10heuristics15apply_penalties0B7_
FNDA:0,_RNCNvNtNtCs2Eyh5DnjbiX_9cytoscnpy8analyzer10heuristics16apply_heuristics0B7_
FNF:4
FNH:4
DA:18,824
DA:19,824
DA:20,824
DA:21,824
DA:22,824
DA:23,824
DA:24,824
DA:27,824
DA:28,2
DA:29,2
DA:30,2
DA:31,0
DA:32,822
DA:36,822
DA:37,67
DA:38,67
DA:39,67
DA:40,67
DA:41,67
DA:42,0
DA:43,755
DA:47,755
DA:48,42
DA:49,713
DA:53,755
DA:54,42
DA:55,713
DA:58,755
DA:59,0
DA:60,755
DA:64,755
DA:65,60
DA:66,59
DA:67,59
DA:68,59
DA:69,1
DA:70,1
DA:71,754
DA:76,755
DA:77,2
DA:78,753
DA:81,755
DA:82,231
DA:83,0
DA:84,231
DA:85,231
DA:86,0
DA:87,231
DA:88,524
DA:93,755
DA:94,9
DA:95,9
DA:96,9
DA:97,746
DA:101,755
DA:102,6
DA:103,6
DA:104,6
DA:105,749
DA:108,755
DA:109,5
DA:110,5
DA:111,5
DA:112,750
DA:115,755
DA:116,3
DA:117,3
DA:118,3
DA:119,752
DA:122,755
DA:123,2
DA:124,2
DA:125,2
DA:126,753
DA:130,824
DA:133,1386
DA:136,1386
DA:137,332
DA:139,462
DA:141,18
DA:142,18
DA:143,18
DA:144,16
DA:145,12
DA:146,6
DA:147,6
DA:148,12
DA:149,314
DA:150,0
DA:151,1054
DA:155,1386
DA:156,138
DA:157,136
DA:158,134
DA:159,6
DA:160,6
DA:161,6
DA:162,1380
DA:167,1386
DA:168,10
DA:169,10
DA:170,10
DA:171,1376
DA:172,1386
BRF:0
BRH:0
LF:106
LH:100
end_of_record
SF:E:\Github\CytoScnPy\cytoscnpy\src\analyzer\mod.rs
FN:64,_RNvXNtCsbhXKu17xbPQ_9cytoscnpy8analyzerNtB2_9CytoScnPyNtNtCsgS7EKHCc5jD_4core7default7Default7default
FN:64,_RNvXNtCs2Eyh5DnjbiX_9cytoscnpy8analyzerNtB2_9CytoScnPyNtNtCsgS7EKHCc5jD_4core7default7Default7default
FNDA:160,_RNvXNtCsbhXKu17xbPQ_9cytoscnpy8analyzerNtB2_9CytoScnPyNtNtCsgS7EKHCc5jD_4core7default7Default7default
FNDA:0,_RNvXNtCs2Eyh5DnjbiX_9cytoscnpy8analyzerNtB2_9CytoScnPyNtNtCsgS7EKHCc5jD_4core7default7Default7default
FNF:1
FNH:1
DA:64,160
DA:65,160
DA:66,160
DA:67,160
DA:68,160
DA:69,160
DA:70,160
DA:71,160
DA:72,160
DA:73,160
DA:74,160
DA:75,160
DA:76,160
DA:77,160
DA:78,160
DA:79,160
DA:80,160
DA:81,160
DA:82,160
DA:83,160
BRF:0
BRH:0
LF:20
LH:20
end_of_record
SF:E:\Github\CytoScnPy\cytoscnpy\src\analyzer\single_file.rs
FN:613,_RNCNvMNtNtCsbhXKu17xbPQ_9cytoscnpy8analyzer11single_fileNtB6_9CytoScnPy12analyze_code0B8_
FN:849,_RNCNvMNtNtCsbhXKu17xbPQ_9cytoscnpy8analyzer11single_fileNtB6_9CytoScnPy12analyze_codes0_0B8_
FN:862,_RNCNvMNtNtCsbhXKu17xbPQ_9cytoscnpy8analyzer11single_fileNtB6_9CytoScnPy12analyze_codes1_0B8_
FN:715,_RNCNvMNtNtCsbhXKu17xbPQ_9cytoscnpy8analyzer11single_fileNtB6_9CytoScnPy12analyze_codes_0B8_
FN:49,_RNCNvMNtNtCsbhXKu17xbPQ_9cytoscnpy8analyzer11single_fileNtB6_9CytoScnPy19process_single_file0B8_
FN:250,_RNCNvMNtNtCsbhXKu17xbPQ_9cytoscnpy8analyzer11single_fileNtB6_9CytoScnPy19process_single_files0_0B8_
FN:441,_RNCNvMNtNtCsbhXKu17xbPQ_9cytoscnpy8analyzer11single_fileNtB6_9CytoScnPy19process_single_files1_0B8_
FN:454,_RNCNvMNtNtCsbhXKu17xbPQ_9cytoscnpy8analyzer11single_fileNtB6_9CytoScnPy19process_single_files2_0B8_
FN:115,_RNCNvMNtNtCsbhXKu17xbPQ_9cytoscnpy8analyzer11single_fileNtB6_9CytoScnPy19process_single_files_0B8_
FN:538,_RNvMNtNtCsbhXKu17xbPQ_9cytoscnpy8analyzer11single_fileNtB4_9CytoScnPy12analyze_code
FN:30,_RNvMNtNtCsbhXKu17xbPQ_9cytoscnpy8analyzer11single_fileNtB4_9CytoScnPy19process_single_file
FN:945,_RNvMNtNtCsbhXKu17xbPQ_9cytoscnpy8analyzer11single_fileNtB4_9CytoScnPy21refine_flow_sensitive
FN:613,_RNCNvMNtNtCs2Eyh5DnjbiX_9cytoscnpy8analyzer11single_fileNtB6_9CytoScnPy12analyze_code0B8_
FN:849,_RNCNvMNtNtCs2Eyh5DnjbiX_9cytoscnpy8analyzer11single_fileNtB6_9CytoScnPy12analyze_codes0_0B8_
FN:862,_RNCNvMNtNtCs2Eyh5DnjbiX_9cytoscnpy8analyzer11single_fileNtB6_9CytoScnPy12analyze_codes1_0B8_
FN:715,_RNCNvMNtNtCs2Eyh5DnjbiX_9cytoscnpy8analyzer11single_fileNtB6_9CytoScnPy12analyze_codes_0B8_
FN:538,_RNvMNtNtCs2Eyh5DnjbiX_9cytoscnpy8analyzer11single_fileNtB4_9CytoScnPy12analyze_code
FN:49,_RNCNvMNtNtCs2Eyh5DnjbiX_9cytoscnpy8analyzer11single_fileNtB6_9CytoScnPy19process_single_file0B8_
FN:250,_RNCNvMNtNtCs2Eyh5DnjbiX_9cytoscnpy8analyzer11single_fileNtB6_9CytoScnPy19process_single_files0_0B8_
FN:441,_RNCNvMNtNtCs2Eyh5DnjbiX_9cytoscnpy8analyzer11single_fileNtB6_9CytoScnPy19process_single_files1_0B8_
FN:454,_RNCNvMNtNtCs2Eyh5DnjbiX_9cytoscnpy8analyzer11single_fileNtB6_9CytoScnPy19process_single_files2_0B8_
FN:115,_RNCNvMNtNtCs2Eyh5DnjbiX_9cytoscnpy8analyzer11single_fileNtB6_9CytoScnPy19process_single_files_0B8_
FN:30,_RNvMNtNtCs2Eyh5DnjbiX_9cytoscnpy8analyzer11single_fileNtB4_9CytoScnPy19process_single_file
FN:945,_RNvMNtNtCs2Eyh5DnjbiX_9cytoscnpy8analyzer11single_fileNtB4_9CytoScnPy21refine_flow_sensitive
FNDA:41,_RNCNvMNtNtCsbhXKu17xbPQ_9cytoscnpy8analyzer11single_fileNtB6_9CytoScnPy12analyze_code0B8_
FNDA:1,_RNCNvMNtNtCsbhXKu17xbPQ_9cytoscnpy8analyzer11single_fileNtB6_9CytoScnPy12analyze_codes0_0B8_
FNDA:2,_RNCNvMNtNtCsbhXKu17xbPQ_9cytoscnpy8analyzer11single_fileNtB6_9CytoScnPy12analyze_codes1_0B8_
FNDA:8,_RNCNvMNtNtCsbhXKu17xbPQ_9cytoscnpy8analyzer11single_fileNtB6_9CytoScnPy12analyze_codes_0B8_
FNDA:178,_RNCNvMNtNtCsbhXKu17xbPQ_9cytoscnpy8analyzer11single_fileNtB6_9CytoScnPy19process_single_file0B8_
FNDA:45,_RNCNvMNtNtCsbhXKu17xbPQ_9cytoscnpy8analyzer11single_fileNtB6_9CytoScnPy19process_single_files0_0B8_
FNDA:0,_RNCNvMNtNtCsbhXKu17xbPQ_9cytoscnpy8analyzer11single_fileNtB6_9CytoScnPy19process_single_files1_0B8_
FNDA:0,_RNCNvMNtNtCsbhXKu17xbPQ_9cytoscnpy8analyzer11single_fileNtB6_9CytoScnPy19process_single_files2_0B8_
FNDA:199,_RNCNvMNtNtCsbhXKu17xbPQ_9cytoscnpy8analyzer11single_fileNtB6_9CytoScnPy19process_single_files_0B8_
FNDA:56,_RNvMNtNtCsbhXKu17xbPQ_9cytoscnpy8analyzer11single_fileNtB4_9CytoScnPy12analyze_code
FNDA:178,_RNvMNtNtCsbhXKu17xbPQ_9cytoscnpy8analyzer11single_fileNtB4_9CytoScnPy19process_single_file
FNDA:226,_RNvMNtNtCsbhXKu17xbPQ_9cytoscnpy8analyzer11single_fileNtB4_9CytoScnPy21refine_flow_sensitive
FNDA:0,_RNCNvMNtNtCs2Eyh5DnjbiX_9cytoscnpy8analyzer11single_fileNtB6_9CytoScnPy12analyze_code0B8_
FNDA:0,_RNCNvMNtNtCs2Eyh5DnjbiX_9cytoscnpy8analyzer11single_fileNtB6_9CytoScnPy12analyze_codes0_0B8_
FNDA:0,_RNCNvMNtNtCs2Eyh5DnjbiX_9cytoscnpy8analyzer11single_fileNtB6_9CytoScnPy12analyze_codes1_0B8_
FNDA:0,_RNCNvMNtNtCs2Eyh5DnjbiX_9cytoscnpy8analyzer11single_fileNtB6_9CytoScnPy12analyze_codes_0B8_
FNDA:0,_RNvMNtNtCs2Eyh5DnjbiX_9cytoscnpy8analyzer11single_fileNtB4_9CytoScnPy12analyze_code
FNDA:0,_RNCNvMNtNtCs2Eyh5DnjbiX_9cytoscnpy8analyzer11single_fileNtB6_9CytoScnPy19process_single_file0B8_
FNDA:0,_RNCNvMNtNtCs2Eyh5DnjbiX_9cytoscnpy8analyzer11single_fileNtB6_9CytoScnPy19process_single_files0_0B8_
FNDA:0,_RNCNvMNtNtCs2Eyh5DnjbiX_9cytoscnpy8analyzer11single_fileNtB6_9CytoScnPy19process_single_files1_0B8_
FNDA:0,_RNCNvMNtNtCs2Eyh5DnjbiX_9cytoscnpy8analyzer11single_fileNtB6_9CytoScnPy19process_single_files2_0B8_
FNDA:0,_RNCNvMNtNtCs2Eyh5DnjbiX_9cytoscnpy8analyzer11single_fileNtB6_9CytoScnPy19process_single_files_0B8_
FNDA:0,_RNvMNtNtCs2Eyh5DnjbiX_9cytoscnpy8analyzer11single_fileNtB4_9CytoScnPy19process_single_file
FNDA:0,_RNvMNtNtCs2Eyh5DnjbiX_9cytoscnpy8analyzer11single_fileNtB4_9CytoScnPy21refine_flow_sensitive
FNF:12
FNH:10
DA:30,178
DA:31,178
DA:32,178
DA:33,178
DA:34,178
DA:35,178
DA:36,178
DA:37,178
DA:38,178
DA:39,178
DA:40,178
DA:41,178
DA:42,178
DA:43,178
DA:44,178
DA:45,178
DA:46,178
DA:47,178
DA:48,178
DA:49,178
DA:51,178
DA:52,0
DA:53,178
DA:55,178
DA:56,178
DA:58,178
DA:59,12
DA:60,9
DA:61,3
DA:62,3
DA:63,3
DA:64,3
DA:65,3
DA:66,3
DA:67,3
DA:68,3
DA:69,3
DA:70,3
DA:71,3
DA:72,3
DA:73,3
DA:74,3
DA:75,3
DA:76,3
DA:77,3
DA:78,3
DA:79,3
DA:83,166
DA:84,166
DA:85,0
DA:86,0
DA:87,0
DA:88,0
DA:89,0
DA:90,0
DA:91,0
DA:92,0
DA:93,0
DA:94,0
DA:95,0
DA:96,0
DA:97,0
DA:98,0
DA:99,0
DA:100,0
DA:101,0
DA:102,0
DA:103,0
DA:108,175
DA:109,175
DA:110,175
DA:112,175
DA:113,175
DA:114,175
DA:115,199
DA:116,175
DA:118,175
DA:119,199
DA:120,199
DA:121,156
DA:122,156
DA:123,156
DA:124,153
DA:125,153
DA:126,0
DA:127,43
DA:128,43
DA:129,43
DA:131,175
DA:133,175
DA:134,175
DA:135,175
DA:136,175
DA:138,175
DA:139,175
DA:140,175
DA:141,175
DA:143,175
DA:144,171
DA:145,171
DA:147,171
DA:148,171
DA:149,0
DA:150,171
DA:152,171
DA:153,4
DA:154,4
DA:155,4
DA:156,4
DA:157,4
DA:158,4
DA:159,167
DA:161,171
DA:163,526
DA:164,355
DA:165,355
DA:166,355
DA:167,355
DA:169,172
DA:170,1
DA:171,1
DA:172,1
DA:173,1
DA:174,1
DA:177,171
DA:178,0
DA:179,0
DA:180,0
DA:181,0
DA:182,0
DA:185,171
DA:186,174
DA:187,3
DA:188,3
DA:189,3
DA:190,3
DA:191,3
DA:195,171
DA:198,171
DA:199,171
DA:200,733
DA:201,562
DA:202,562
DA:203,562
DA:204,562
DA:207,171
DA:208,171
DA:209,733
DA:210,562
DA:211,562
DA:213,733
DA:214,562
DA:215,562
DA:216,562
DA:217,562
DA:218,562
DA:219,562
DA:222,562
DA:223,290
DA:224,134
DA:226,156
DA:228,272
DA:231,562
DA:232,272
DA:236,272
DA:237,260
DA:238,22
DA:239,238
DA:240,12
DA:245,272
DA:246,272
DA:247,187
DA:249,70
DA:250,68
DA:252,2
DA:255,117
DA:258,272
DA:259,91
DA:260,8
DA:261,83
DA:262,181
DA:265,272
DA:266,0
DA:267,0
DA:268,0
DA:269,0
DA:270,0
DA:271,0
DA:272,0
DA:273,0
DA:274,0
DA:275,0
DA:276,272
DA:279,272
DA:280,30
DA:281,24
DA:283,6
DA:285,242
DA:286,290
DA:288,562
DA:292,733
DA:293,562
DA:294,36
DA:295,36
DA:296,526
DA:301,171
DA:302,171
DA:304,733
DA:306,562
DA:307,3
DA:308,3
DA:309,559
DA:313,559
DA:314,25
DA:315,18
DA:316,6
DA:317,6
DA:318,12
DA:319,7
DA:320,534
DA:323,560
DA:324,19
DA:325,12
DA:327,12
DA:328,12
DA:330,12
DA:331,12
DA:332,0
DA:333,7
DA:339,171
DA:340,171
DA:341,171
DA:342,171
DA:346,733
DA:347,562
DA:348,562
DA:349,562
DA:350,562
DA:351,562
DA:352,562
DA:354,562
DA:356,562
DA:357,65
DA:358,1
DA:359,1
DA:360,561
DA:363,171
DA:364,171
DA:365,28
DA:366,143
DA:367,171
DA:368,5
DA:369,166
DA:371,171
DA:372,32
DA:373,32
DA:374,32
DA:375,32
DA:376,32
DA:378,123
DA:379,91
DA:380,91
DA:382,54
DA:383,22
DA:384,22
DA:385,22
DA:386,22
DA:388,0
DA:389,22
DA:390,22
DA:391,10
DA:392,12
DA:393,1
DA:394,1
DA:395,12
DA:396,12
DA:397,12
DA:401,32
DA:402,28
DA:403,28
DA:404,28
DA:405,28
DA:406,28
DA:407,28
DA:410,28
DA:411,28
DA:412,28
DA:413,28
DA:414,28
DA:415,28
DA:416,28
DA:417,28
DA:418,28
DA:419,28
DA:420,28
DA:421,28
DA:422,28
DA:423,28
DA:424,28
DA:425,28
DA:426,28
DA:427,28
DA:430,28
DA:433,28
DA:434,28
DA:435,28
DA:437,4
DA:440,32
DA:441,0
DA:442,32
DA:445,32
DA:447,0
DA:448,0
DA:449,0
DA:450,0
DA:451,0
DA:452,0
DA:454,0
DA:455,0
DA:456,0
DA:457,0
DA:458,0
DA:459,0
DA:460,0
DA:462,0
DA:463,0
DA:464,32
DA:465,139
DA:467,171
DA:468,5
DA:469,5
DA:470,5
DA:471,5
DA:472,5
DA:473,5
DA:474,5
DA:476,5
DA:477,0
DA:478,0
DA:479,0
DA:480,0
DA:481,0
DA:482,0
DA:483,0
DA:484,0
DA:485,0
DA:486,0
DA:487,0
DA:488,0
DA:489,5
DA:490,166
DA:492,4
DA:493,4
DA:494,0
DA:495,0
DA:496,0
DA:497,0
DA:498,0
DA:499,0
DA:500,4
DA:501,4
DA:502,4
DA:503,4
DA:504,4
DA:505,4
DA:506,4
DA:510,175
DA:511,5
DA:512,170
DA:515,175
DA:516,175
DA:517,175
DA:518,175
DA:519,175
DA:520,175
DA:521,175
DA:522,175
DA:523,175
DA:524,5
DA:526,170
DA:528,175
DA:529,175
DA:530,175
DA:531,175
DA:533,178
DA:538,56
DA:539,56
DA:540,56
DA:541,56
DA:543,56
DA:544,56
DA:545,56
DA:546,56
DA:547,56
DA:549,56
DA:550,56
DA:551,56
DA:552,56
DA:554,56
DA:555,56
DA:556,56
DA:557,56
DA:559,56
DA:560,55
DA:561,55
DA:563,312
DA:564,257
DA:565,257
DA:566,257
DA:567,257
DA:570,55
DA:572,55
DA:573,55
DA:574,55
DA:575,55
DA:577,317
DA:578,262
DA:579,262
DA:580,262
DA:581,262
DA:582,262
DA:584,317
DA:585,262
DA:586,262
DA:587,262
DA:588,262
DA:589,262
DA:590,262
DA:592,262
DA:593,146
DA:594,64
DA:596,82
DA:598,116
DA:600,262
DA:601,116
DA:603,116
DA:604,106
DA:605,2
DA:606,104
DA:607,10
DA:609,116
DA:610,116
DA:611,102
DA:612,51
DA:613,50
DA:615,1
DA:618,51
DA:621,116
DA:622,14
DA:623,0
DA:624,14
DA:625,102
DA:627,116
DA:628,0
DA:629,0
DA:630,0
DA:631,0
DA:632,0
DA:633,0
DA:634,0
DA:635,0
DA:636,0
DA:637,0
DA:638,116
DA:640,116
DA:641,2
DA:642,2
DA:644,0
DA:646,114
DA:647,146
DA:648,262
DA:652,317
DA:653,262
DA:654,2
DA:655,2
DA:656,260
DA:660,55
DA:661,55
DA:663,317
DA:664,262
DA:665,49
DA:666,49
DA:667,213
DA:668,213
DA:669,2
DA:670,2
DA:671,1
DA:672,1
DA:673,1
DA:674,0
DA:675,211
DA:676,212
DA:677,1
DA:678,1
DA:679,1
DA:680,1
DA:682,1
DA:683,1
DA:684,0
DA:685,0
DA:690,55
DA:691,55
DA:692,55
DA:693,55
DA:696,317
DA:697,262
DA:698,262
DA:699,262
DA:700,262
DA:701,262
DA:702,262
DA:703,262
DA:704,262
DA:705,262
DA:709,55
DA:710,55
DA:711,55
DA:712,55
DA:713,317
DA:714,262
DA:715,8
DA:716,8
DA:717,8
DA:718,8
DA:719,8
DA:720,8
DA:721,8
DA:722,254
DA:726,55
DA:727,55
DA:729,62
DA:730,7
DA:731,0
DA:732,0
DA:734,0
DA:735,0
DA:736,0
DA:737,0
DA:738,0
DA:739,0
DA:740,0
DA:741,0
DA:742,0
DA:747,317
DA:748,262
DA:749,0
DA:750,262
DA:753,55
DA:754,19
DA:755,19
DA:756,0
DA:757,19
DA:758,19
DA:759,19
DA:760,19
DA:761,19
DA:762,19
DA:764,36
DA:767,55
DA:768,55
DA:769,36
DA:770,36
DA:771,55
DA:772,20
DA:773,35
DA:775,55
DA:776,37
DA:777,37
DA:778,37
DA:779,37
DA:780,37
DA:782,239
DA:783,202
DA:784,202
DA:786,179
DA:788,142
DA:789,0
DA:790,0
DA:791,0
DA:792,0
DA:793,0
DA:794,0
DA:797,142
DA:799,142
DA:800,122
DA:801,122
DA:802,6
DA:803,3
DA:804,20
DA:805,20
DA:806,20
DA:810,37
DA:811,36
DA:812,36
DA:813,36
DA:814,36
DA:815,36
DA:816,36
DA:819,32
DA:820,32
DA:821,32
DA:822,32
DA:823,32
DA:824,32
DA:825,32
DA:826,32
DA:827,32
DA:828,32
DA:829,32
DA:830,32
DA:831,32
DA:832,32
DA:833,32
DA:834,32
DA:835,32
DA:836,32
DA:838,32
DA:839,32
DA:841,32
DA:842,32
DA:843,32
DA:845,5
DA:848,37
DA:849,1
DA:850,36
DA:853,37
DA:855,2
DA:856,2
DA:857,1
DA:858,1
DA:859,1
DA:860,0
DA:862,2
DA:863,2
DA:864,2
DA:865,2
DA:866,0
DA:867,0
DA:868,0
DA:870,2
DA:871,2
DA:872,35
DA:873,18
DA:875,1
DA:876,1
DA:877,1
DA:878,1
DA:879,1
DA:880,1
DA:881,1
DA:882,1
DA:883,1
DA:884,1
DA:885,1
DA:886,1
DA:887,1
DA:892,56
DA:893,56
DA:894,56
DA:895,56
DA:896,56
DA:897,56
DA:898,56
DA:900,318
DA:901,262
DA:905,103
DA:906,0
DA:907,103
DA:909,103
DA:910,103
DA:911,77
DA:912,73
DA:913,65
DA:914,52
DA:915,16
DA:916,0
DA:918,159
DA:921,56
DA:922,56
DA:923,56
DA:924,56
DA:925,56
DA:926,56
DA:927,56
DA:928,56
DA:929,56
DA:930,56
DA:931,56
DA:932,56
DA:933,56
DA:934,56
DA:935,56
DA:936,56
DA:937,56
DA:938,56
DA:939,56
DA:940,56
DA:941,56
DA:942,56
DA:945,226
DA:946,226
DA:947,226
DA:948,226
DA:949,226
DA:950,226
DA:951,824
DA:952,824
DA:953,264
DA:954,560
DA:957,490
DA:958,264
DA:959,264
DA:960,7
DA:961,257
DA:962,257
DA:963,257
DA:964,257
DA:965,257
DA:966,257
DA:967,257
DA:969,257
DA:970,172
DA:971,1010
DA:972,1010
DA:973,550
DA:975,209
DA:976,209
DA:977,209
DA:978,209
DA:979,209
DA:980,25
DA:981,184
DA:982,0
DA:983,801
DA:985,85
DA:987,226
BRF:0
BRH:0
LF:745
LH:629
end_of_record
SF:E:\Github\CytoScnPy\cytoscnpy\src\analyzer\traversal.rs
FN:42,_RNCNvMNtNtCsbhXKu17xbPQ_9cytoscnpy8analyzer9traversalNtB6_9CytoScnPy13analyze_paths0B8_
FN:96,_RNCNvMNtNtCsbhXKu17xbPQ_9cytoscnpy8analyzer9traversalNtB6_9CytoScnPy17analyze_file_list0B8_
FN:114,_RNCNvMNtNtCsbhXKu17xbPQ_9cytoscnpy8analyzer9traversalNtB6_9CytoScnPy17analyze_file_lists_0B8_
FN:22,_RNvMNtNtCsbhXKu17xbPQ_9cytoscnpy8analyzer9traversalNtB4_9CytoScnPy13analyze_paths
FN:77,_RNvMNtNtCsbhXKu17xbPQ_9cytoscnpy8analyzer9traversalNtB4_9CytoScnPy17analyze_file_list
FN:64,_RNvMNtNtCsbhXKu17xbPQ_9cytoscnpy8analyzer9traversalNtB4_9CytoScnPy20collect_python_files
FN:161,_RNvMNtNtCsbhXKu17xbPQ_9cytoscnpy8analyzer9traversalNtB4_9CytoScnPy7analyze
FN:42,_RNCNvMNtNtCs2Eyh5DnjbiX_9cytoscnpy8analyzer9traversalNtB6_9CytoScnPy13analyze_paths0B8_
FN:96,_RNCNvMNtNtCs2Eyh5DnjbiX_9cytoscnpy8analyzer9traversalNtB6_9CytoScnPy17analyze_file_list0B8_
FN:114,_RNCNvMNtNtCs2Eyh5DnjbiX_9cytoscnpy8analyzer9traversalNtB6_9CytoScnPy17analyze_file_lists_0B8_
FN:22,_RNvMNtNtCs2Eyh5DnjbiX_9cytoscnpy8analyzer9traversalNtB4_9CytoScnPy13analyze_paths
FN:77,_RNvMNtNtCs2Eyh5DnjbiX_9cytoscnpy8analyzer9traversalNtB4_9CytoScnPy17analyze_file_list
FN:64,_RNvMNtNtCs2Eyh5DnjbiX_9cytoscnpy8analyzer9traversalNtB4_9CytoScnPy20collect_python_files
FN:161,_RNvMNtNtCs2Eyh5DnjbiX_9cytoscnpy8analyzer9traversalNtB4_9CytoScnPy7analyze
FNDA:25,_RNCNvMNtNtCsbhXKu17xbPQ_9cytoscnpy8analyzer9traversalNtB6_9CytoScnPy13analyze_paths0B8_
FNDA:4,_RNCNvMNtNtCsbhXKu17xbPQ_9cytoscnpy8analyzer9traversalNtB6_9CytoScnPy17analyze_file_list0B8_
FNDA:178,_RNCNvMNtNtCsbhXKu17xbPQ_9cytoscnpy8analyzer9traversalNtB6_9CytoScnPy17analyze_file_lists_0B8_
FNDA:30,_RNvMNtNtCsbhXKu17xbPQ_9cytoscnpy8analyzer9traversalNtB4_9CytoScnPy13analyze_paths
FNDA:133,_RNvMNtNtCsbhXKu17xbPQ_9cytoscnpy8analyzer9traversalNtB4_9CytoScnPy17analyze_file_list
FNDA:114,_RNvMNtNtCsbhXKu17xbPQ_9cytoscnpy8analyzer9traversalNtB4_9CytoScnPy20collect_python_files
FNDA:113,_RNvMNtNtCsbhXKu17xbPQ_9cytoscnpy8analyzer9traversalNtB4_9CytoScnPy7analyze
FNDA:0,_RNCNvMNtNtCs2Eyh5DnjbiX_9cytoscnpy8analyzer9traversalNtB6_9CytoScnPy13analyze_paths0B8_
FNDA:0,_RNCNvMNtNtCs2Eyh5DnjbiX_9cytoscnpy8analyzer9traversalNtB6_9CytoScnPy17analyze_file_list0B8_
FNDA:0,_RNCNvMNtNtCs2Eyh5DnjbiX_9cytoscnpy8analyzer9traversalNtB6_9CytoScnPy17analyze_file_lists_0B8_
FNDA:0,_RNvMNtNtCs2Eyh5DnjbiX_9cytoscnpy8analyzer9traversalNtB4_9CytoScnPy13analyze_paths
FNDA:0,_RNvMNtNtCs2Eyh5DnjbiX_9cytoscnpy8analyzer9traversalNtB4_9CytoScnPy17analyze_file_list
FNDA:0,_RNvMNtNtCs2Eyh5DnjbiX_9cytoscnpy8analyzer9traversalNtB4_9CytoScnPy20collect_python_files
FNDA:0,_RNvMNtNtCs2Eyh5DnjbiX_9cytoscnpy8analyzer9traversalNtB4_9CytoScnPy7analyze
FNF:7
FNH:7
DA:22,30
DA:24,30
DA:25,1
DA:26,29
DA:29,29
DA:30,9
DA:31,20
DA:34,20
DA:35,20
DA:37,46
DA:38,26
DA:40,25
DA:41,25
DA:42,25
DA:43,23
DA:44,23
DA:45,23
DA:46,1
DA:47,1
DA:48,1
DA:49,1
DA:50,1
DA:51,1
DA:55,20
DA:56,20
DA:57,20
DA:58,20
DA:60,30
DA:64,114
DA:65,114
DA:66,114
DA:67,114
DA:68,114
DA:69,114
DA:70,114
DA:72,114
DA:77,133
DA:78,133
DA:79,133
DA:80,133
DA:81,133
DA:82,133
DA:83,133
DA:84,133
DA:87,133
DA:90,133
DA:91,133
DA:92,4
DA:93,4
DA:94,4
DA:95,4
DA:96,4
DA:97,4
DA:98,4
DA:99,129
DA:105,133
DA:106,133
DA:108,131
DA:109,0
DA:110,131
DA:112,131
DA:113,131
DA:114,178
DA:115,178
DA:117,0
DA:118,0
DA:119,0
DA:120,0
DA:121,0
DA:122,0
DA:123,0
DA:124,0
DA:125,0
DA:126,0
DA:127,0
DA:128,0
DA:129,0
DA:130,0
DA:131,0
DA:132,178
DA:133,178
DA:134,178
DA:135,131
DA:136,131
DA:140,133
DA:143,133
DA:144,0
DA:145,0
DA:146,133
DA:148,133
DA:149,133
DA:161,113
DA:163,113
DA:165,113
DA:168,113
DA:169,113
BRF:0
BRH:0
LF:99
LH:81
end_of_record
SF:E:\Github\CytoScnPy\cytoscnpy\src\analyzer\types.rs
FN:36,_RNvMNtNtCsbhXKu17xbPQ_9cytoscnpy8analyzer5typesNtB2_13FixSuggestion11replacement
FN:26,_RNvMNtNtCsbhXKu17xbPQ_9cytoscnpy8analyzer5typesNtB2_13FixSuggestion8deletion
FN:36,_RNvMNtNtCs2Eyh5DnjbiX_9cytoscnpy8analyzer5typesNtB2_13FixSuggestion11replacement
FN:26,_RNvMNtNtCs2Eyh5DnjbiX_9cytoscnpy8analyzer5typesNtB2_13FixSuggestion8deletion
FNDA:2,_RNvMNtNtCsbhXKu17xbPQ_9cytoscnpy8analyzer5typesNtB2_13FixSuggestion11replacement
FNDA:967,_RNvMNtNtCsbhXKu17xbPQ_9cytoscnpy8analyzer5typesNtB2_13FixSuggestion8deletion
FNDA:0,_RNvMNtNtCs2Eyh5DnjbiX_9cytoscnpy8analyzer5typesNtB2_13FixSuggestion11replacement
FNDA:0,_RNvMNtNtCs2Eyh5DnjbiX_9cytoscnpy8analyzer5typesNtB2_13FixSuggestion8deletion
FNF:2
FNH:2
DA:26,967
DA:27,967
DA:28,967
DA:29,967
DA:30,967
DA:31,967
DA:32,967
DA:36,2
DA:37,2
DA:38,2
DA:39,2
DA:40,2
DA:41,2
DA:42,2
BRF:0
BRH:0
LF:14
LH:14
end_of_record
SF:E:\Github\CytoScnPy\cytoscnpy\src\analyzer\utils.rs
FN:8,_RNvNtNtCsbhXKu17xbPQ_9cytoscnpy8analyzer5utils23collect_docstring_lines
FN:45,_RNvNtNtCsbhXKu17xbPQ_9cytoscnpy8analyzer5utils26convert_byte_range_to_line
FN:53,_RNCNvNtNtCsbhXKu17xbPQ_9cytoscnpy8analyzer5utils26convert_byte_range_to_line0B7_
FN:53,_RNCNvNtNtCs2Eyh5DnjbiX_9cytoscnpy8analyzer5utils26convert_byte_range_to_line0B7_
FN:72,_RNvNtNtNtCs2Eyh5DnjbiX_9cytoscnpy8analyzer5utils5testss_30test_stack_overflow_protection
FN:8,_RNvNtNtCs2Eyh5DnjbiX_9cytoscnpy8analyzer5utils23collect_docstring_lines
FN:45,_RNvNtNtCs2Eyh5DnjbiX_9cytoscnpy8analyzer5utils26convert_byte_range_to_line
FNDA:0,_RNvNtNtCsbhXKu17xbPQ_9cytoscnpy8analyzer5utils23collect_docstring_lines
FNDA:4,_RNvNtNtCsbhXKu17xbPQ_9cytoscnpy8analyzer5utils26convert_byte_range_to_line
FNDA:4,_RNCNvNtNtCsbhXKu17xbPQ_9cytoscnpy8analyzer5utils26convert_byte_range_to_line0B7_
FNDA:0,_RNCNvNtNtCs2Eyh5DnjbiX_9cytoscnpy8analyzer5utils26convert_byte_range_to_line0B7_
FNDA:1,_RNvNtNtNtCs2Eyh5DnjbiX_9cytoscnpy8analyzer5utils5testss_30test_stack_overflow_protection
FNDA:402,_RNvNtNtCs2Eyh5DnjbiX_9cytoscnpy8analyzer5utils23collect_docstring_lines
FNDA:0,_RNvNtNtCs2Eyh5DnjbiX_9cytoscnpy8analyzer5utils26convert_byte_range_to_line
FNF:4
FNH:4
DA:8,402
DA:9,402
DA:10,402
DA:11,402
DA:12,402
DA:13,402
DA:14,402
DA:15,1
DA:16,401
DA:18,401
DA:19,400
DA:20,400
DA:21,400
DA:22,400
DA:23,400
DA:24,400
DA:25,0
DA:26,1
DA:28,1202
DA:29,801
DA:30,401
DA:31,401
DA:32,401
DA:33,0
DA:34,0
DA:35,0
DA:36,400
DA:39,402
DA:45,4
DA:49,4
DA:50,0
DA:53,4
DA:54,4
DA:56,4
DA:57,4
DA:59,0
DA:61,4
DA:62,4
DA:63,4
DA:72,1
DA:74,1
DA:75,1
DA:76,500
DA:77,500
DA:78,500
DA:79,500
DA:80,500
DA:81,1
DA:82,1
DA:84,1
DA:85,1
DA:86,1
DA:89,1
DA:92,1
DA:93,1
BRF:0
BRH:0
LF:56
LH:50
end_of_record
SF:E:\Github\CytoScnPy\cytoscnpy\src\cfg\flow.rs
FN:97,_RNCNvMNtNtCsbhXKu17xbPQ_9cytoscnpy3cfg4flowNtB4_10FlowResult11is_def_used0B8_
FN:104,_RNCNvMNtNtCsbhXKu17xbPQ_9cytoscnpy3cfg4flowNtB4_10FlowResult11is_def_useds_0B8_
FN:61,_RNCNvNtNtCsbhXKu17xbPQ_9cytoscnpy3cfg4flow28analyze_reaching_definitions0B7_
FN:86,_RNvMNtNtCsbhXKu17xbPQ_9cytoscnpy3cfg4flowNtB2_10FlowResult11is_def_used
FN:26,_RNvNtNtCsbhXKu17xbPQ_9cytoscnpy3cfg4flow28analyze_reaching_definitions
FN:135,_RNCNCNvNtNtNtCs2Eyh5DnjbiX_9cytoscnpy3cfg4flow5testss_31test_reaching_definitions_match00Bb_
FN:135,_RNCNvNtNtNtCs2Eyh5DnjbiX_9cytoscnpy3cfg4flow5testss_31test_reaching_definitions_match0B9_
FN:86,_RNvMNtNtCs2Eyh5DnjbiX_9cytoscnpy3cfg4flowNtB2_10FlowResult11is_def_used
FN:26,_RNvNtNtCs2Eyh5DnjbiX_9cytoscnpy3cfg4flow28analyze_reaching_definitions
FN:154,_RNvNtNtNtCs2Eyh5DnjbiX_9cytoscnpy3cfg4flow5testss_26test_dead_def_in_match_arm
FN:119,_RNvNtNtNtCs2Eyh5DnjbiX_9cytoscnpy3cfg4flow5testss_31test_reaching_definitions_match
FN:97,_RNCNvMNtNtCs2Eyh5DnjbiX_9cytoscnpy3cfg4flowNtB4_10FlowResult11is_def_used0B8_
FN:104,_RNCNvMNtNtCs2Eyh5DnjbiX_9cytoscnpy3cfg4flowNtB4_10FlowResult11is_def_useds_0B8_
FN:61,_RNCNvNtNtCs2Eyh5DnjbiX_9cytoscnpy3cfg4flow28analyze_reaching_definitions0B7_
FNDA:498,_RNCNvMNtNtCsbhXKu17xbPQ_9cytoscnpy3cfg4flowNtB4_10FlowResult11is_def_used0B8_
FNDA:139,_RNCNvMNtNtCsbhXKu17xbPQ_9cytoscnpy3cfg4flowNtB4_10FlowResult11is_def_useds_0B8_
FNDA:444,_RNCNvNtNtCsbhXKu17xbPQ_9cytoscnpy3cfg4flow28analyze_reaching_definitions0B7_
FNDA:209,_RNvMNtNtCsbhXKu17xbPQ_9cytoscnpy3cfg4flowNtB2_10FlowResult11is_def_used
FNDA:172,_RNvNtNtCsbhXKu17xbPQ_9cytoscnpy3cfg4flow28analyze_reaching_definitions
FNDA:3,_RNCNCNvNtNtNtCs2Eyh5DnjbiX_9cytoscnpy3cfg4flow5testss_31test_reaching_definitions_match00Bb_
FNDA:6,_RNCNvNtNtNtCs2Eyh5DnjbiX_9cytoscnpy3cfg4flow5testss_31test_reaching_definitions_match0B9_
FNDA:4,_RNvMNtNtCs2Eyh5DnjbiX_9cytoscnpy3cfg4flowNtB2_10FlowResult11is_def_used
FNDA:2,_RNvNtNtCs2Eyh5DnjbiX_9cytoscnpy3cfg4flow28analyze_reaching_definitions
FNDA:1,_RNvNtNtNtCs2Eyh5DnjbiX_9cytoscnpy3cfg4flow5testss_26test_dead_def_in_match_arm
FNDA:1,_RNvNtNtNtCs2Eyh5DnjbiX_9cytoscnpy3cfg4flow5testss_31test_reaching_definitions_match
FNDA:0,_RNCNvMNtNtCs2Eyh5DnjbiX_9cytoscnpy3cfg4flowNtB4_10FlowResult11is_def_used0B8_
FNDA:4,_RNCNvMNtNtCs2Eyh5DnjbiX_9cytoscnpy3cfg4flowNtB4_10FlowResult11is_def_useds_0B8_
FNDA:16,_RNCNvNtNtCs2Eyh5DnjbiX_9cytoscnpy3cfg4flow28analyze_reaching_definitions0B7_
FNF:9
FNH:9
DA:26,174
DA:27,174
DA:30,559
DA:31,385
DA:32,385
DA:35,174
DA:36,174
DA:38,437
DA:39,263
DA:41,951
DA:42,688
DA:45,688
DA:46,1294
DA:47,606
DA:48,2529
DA:49,1923
DA:50,1923
DA:51,0
DA:58,688
DA:61,688
DA:63,2064
DA:64,1376
DA:65,1372
DA:66,1372
DA:69,688
DA:70,688
DA:71,296
DA:72,296
DA:73,296
DA:74,392
DA:75,0
DA:79,174
DA:80,174
DA:86,213
DA:87,213
DA:89,687
DA:90,592
DA:93,592
DA:94,196
DA:95,196
DA:96,196
DA:97,498
DA:99,74
DA:100,518
DA:103,518
DA:104,261
DA:106,44
DA:107,474
DA:109,95
DA:110,213
DA:119,1
DA:120,1
DA:121,1
DA:122,1
DA:123,1
DA:124,1
DA:125,1
DA:126,1
DA:127,1
DA:128,1
DA:129,1
DA:132,1
DA:133,1
DA:134,1
DA:135,6
DA:136,1
DA:137,1
DA:138,1
DA:140,1
DA:141,1
DA:144,1
DA:145,1
DA:147,1
DA:148,1
DA:149,0
DA:151,1
DA:154,1
DA:155,1
DA:156,1
DA:157,1
DA:158,1
DA:159,1
DA:160,1
DA:161,1
DA:162,1
DA:163,1
DA:164,1
DA:168,1
DA:169,1
DA:171,1
DA:172,1
DA:173,1
BRF:0
BRH:0
LF:97
LH:94
end_of_record
SF:E:\Github\CytoScnPy\cytoscnpy\src\cfg\mod.rs
FN:640,_RNCNCNvMs0_NtCsbhXKu17xbPQ_9cytoscnpy3cfgNtB9_10CfgBuilder5build00Bb_
FN:635,_RNCNvMs0_NtCsbhXKu17xbPQ_9cytoscnpy3cfgNtB7_10CfgBuilder5build0B9_
FN:465,_RNCNvMs0_NtCsbhXKu17xbPQ_9cytoscnpy3cfgNtB7_10CfgBuilder8visit_if0B9_
FN:97,_RNvMNtCsbhXKu17xbPQ_9cytoscnpy3cfgNtB2_10BasicBlock3new
FN:360,_RNvMs0_NtCsbhXKu17xbPQ_9cytoscnpy3cfgNtB5_10CfgBuilder10visit_stmt
FN:590,_RNvMs0_NtCsbhXKu17xbPQ_9cytoscnpy3cfgNtB5_10CfgBuilder11visit_match
FN:509,_RNvMs0_NtCsbhXKu17xbPQ_9cytoscnpy3cfgNtB5_10CfgBuilder11visit_while
FN:323,_RNvMs0_NtCsbhXKu17xbPQ_9cytoscnpy3cfgNtB5_10CfgBuilder15build_from_body
FN:329,_RNvMs0_NtCsbhXKu17xbPQ_9cytoscnpy3cfgNtB5_10CfgBuilder18collect_expr_names
FN:349,_RNvMs0_NtCsbhXKu17xbPQ_9cytoscnpy3cfgNtB5_10CfgBuilder18collect_stmt_names
FN:290,_RNvMs0_NtCsbhXKu17xbPQ_9cytoscnpy3cfgNtB5_10CfgBuilder19build_from_function
FN:339,_RNvMs0_NtCsbhXKu17xbPQ_9cytoscnpy3cfgNtB5_10CfgBuilder21collect_pattern_names
FN:258,_RNvMs0_NtCsbhXKu17xbPQ_9cytoscnpy3cfgNtB5_10CfgBuilder3new
FN:630,_RNvMs0_NtCsbhXKu17xbPQ_9cytoscnpy3cfgNtB5_10CfgBuilder5build
FN:275,_RNvMs0_NtCsbhXKu17xbPQ_9cytoscnpy3cfgNtB5_10CfgBuilder8add_edge
FN:284,_RNvMs0_NtCsbhXKu17xbPQ_9cytoscnpy3cfgNtB5_10CfgBuilder8add_stmt
FN:430,_RNvMs0_NtCsbhXKu17xbPQ_9cytoscnpy3cfgNtB5_10CfgBuilder8visit_if
FN:269,_RNvMs0_NtCsbhXKu17xbPQ_9cytoscnpy3cfgNtB5_10CfgBuilder9new_block
FN:477,_RNvMs0_NtCsbhXKu17xbPQ_9cytoscnpy3cfgNtB5_10CfgBuilder9visit_for
FN:541,_RNvMs0_NtCsbhXKu17xbPQ_9cytoscnpy3cfgNtB5_10CfgBuilder9visit_try
FN:679,_RNvMs1_NtCsbhXKu17xbPQ_9cytoscnpy3cfgNtB5_3Cfg11fingerprint
FN:663,_RNvMs1_NtCsbhXKu17xbPQ_9cytoscnpy3cfgNtB5_3Cfg11from_source
FN:655,_RNvMs1_NtCsbhXKu17xbPQ_9cytoscnpy3cfgNtB5_3Cfg13from_function
FN:719,_RNvMs1_NtCsbhXKu17xbPQ_9cytoscnpy3cfgNtB5_3Cfg16similarity_score
FN:707,_RNvMs1_NtCsbhXKu17xbPQ_9cytoscnpy3cfgNtB5_3Cfg23is_behaviorally_similar
FN:145,_RNvXs_NtCsbhXKu17xbPQ_9cytoscnpy3cfgNtB4_13NameCollectorNtNtCs8PIGe9Luacy_15ruff_python_ast7visitor7Visitor10visit_expr
FN:160,_RNvXs_NtCsbhXKu17xbPQ_9cytoscnpy3cfgNtB4_13NameCollectorNtNtCs8PIGe9Luacy_15ruff_python_ast7visitor7Visitor10visit_stmt
FN:216,_RNvXs_NtCsbhXKu17xbPQ_9cytoscnpy3cfgNtB4_13NameCollectorNtNtCs8PIGe9Luacy_15ruff_python_ast7visitor7Visitor13visit_pattern
FN:640,_RNCNCNvMs0_NtCs2Eyh5DnjbiX_9cytoscnpy3cfgNtB9_10CfgBuilder5build00Bb_
FN:635,_RNCNvMs0_NtCs2Eyh5DnjbiX_9cytoscnpy3cfgNtB7_10CfgBuilder5build0B9_
FN:465,_RNCNvMs0_NtCs2Eyh5DnjbiX_9cytoscnpy3cfgNtB7_10CfgBuilder8visit_if0B9_
FN:826,_RNCNvNtNtCs2Eyh5DnjbiX_9cytoscnpy3cfg5testss_27test_cfg_from_source_simple0B7_
FN:828,_RNCNvNtNtCs2Eyh5DnjbiX_9cytoscnpy3cfg5testss_27test_cfg_from_source_simples0_0B7_
FN:829,_RNCNvNtNtCs2Eyh5DnjbiX_9cytoscnpy3cfg5testss_27test_cfg_from_source_simples1_0B7_
FN:827,_RNCNvNtNtCs2Eyh5DnjbiX_9cytoscnpy3cfg5testss_27test_cfg_from_source_simples_0B7_
FN:842,_RNCNvNtNtCs2Eyh5DnjbiX_9cytoscnpy3cfg5testss_28test_cfg_from_source_with_if0B7_
FN:707,_RNvMs1_NtCs2Eyh5DnjbiX_9cytoscnpy3cfgNtB5_3Cfg23is_behaviorally_similar
FN:784,_RNvNtNtCs2Eyh5DnjbiX_9cytoscnpy3cfg5testss_20test_cfg_fingerprint
FN:816,_RNvNtNtCs2Eyh5DnjbiX_9cytoscnpy3cfg5testss_27test_cfg_from_source_simple
FN:833,_RNvNtNtCs2Eyh5DnjbiX_9cytoscnpy3cfg5testss_28test_cfg_from_source_with_if
FN:97,_RNvMNtCs2Eyh5DnjbiX_9cytoscnpy3cfgNtB2_10BasicBlock3new
FN:360,_RNvMs0_NtCs2Eyh5DnjbiX_9cytoscnpy3cfgNtB5_10CfgBuilder10visit_stmt
FN:590,_RNvMs0_NtCs2Eyh5DnjbiX_9cytoscnpy3cfgNtB5_10CfgBuilder11visit_match
FN:509,_RNvMs0_NtCs2Eyh5DnjbiX_9cytoscnpy3cfgNtB5_10CfgBuilder11visit_while
FN:323,_RNvMs0_NtCs2Eyh5DnjbiX_9cytoscnpy3cfgNtB5_10CfgBuilder15build_from_body
FN:329,_RNvMs0_NtCs2Eyh5DnjbiX_9cytoscnpy3cfgNtB5_10CfgBuilder18collect_expr_names
FN:349,_RNvMs0_NtCs2Eyh5DnjbiX_9cytoscnpy3cfgNtB5_10CfgBuilder18collect_stmt_names
FN:290,_RNvMs0_NtCs2Eyh5DnjbiX_9cytoscnpy3cfgNtB5_10CfgBuilder19build_from_function
FN:339,_RNvMs0_NtCs2Eyh5DnjbiX_9cytoscnpy3cfgNtB5_10CfgBuilder21collect_pattern_names
FN:258,_RNvMs0_NtCs2Eyh5DnjbiX_9cytoscnpy3cfgNtB5_10CfgBuilder3new
FN:630,_RNvMs0_NtCs2Eyh5DnjbiX_9cytoscnpy3cfgNtB5_10CfgBuilder5build
FN:275,_RNvMs0_NtCs2Eyh5DnjbiX_9cytoscnpy3cfgNtB5_10CfgBuilder8add_edge
FN:284,_RNvMs0_NtCs2Eyh5DnjbiX_9cytoscnpy3cfgNtB5_10CfgBuilder8add_stmt
FN:430,_RNvMs0_NtCs2Eyh5DnjbiX_9cytoscnpy3cfgNtB5_10CfgBuilder8visit_if
FN:269,_RNvMs0_NtCs2Eyh5DnjbiX_9cytoscnpy3cfgNtB5_10CfgBuilder9new_block
FN:477,_RNvMs0_NtCs2Eyh5DnjbiX_9cytoscnpy3cfgNtB5_10CfgBuilder9visit_for
FN:541,_RNvMs0_NtCs2Eyh5DnjbiX_9cytoscnpy3cfgNtB5_10CfgBuilder9visit_try
FN:679,_RNvMs1_NtCs2Eyh5DnjbiX_9cytoscnpy3cfgNtB5_3Cfg11fingerprint
FN:663,_RNvMs1_NtCs2Eyh5DnjbiX_9cytoscnpy3cfgNtB5_3Cfg11from_source
FN:655,_RNvMs1_NtCs2Eyh5DnjbiX_9cytoscnpy3cfgNtB5_3Cfg13from_function
FN:719,_RNvMs1_NtCs2Eyh5DnjbiX_9cytoscnpy3cfgNtB5_3Cfg16similarity_score
FN:145,_RNvXs_NtCs2Eyh5DnjbiX_9cytoscnpy3cfgNtB4_13NameCollectorNtNtCs8PIGe9Luacy_15ruff_python_ast7visitor7Visitor10visit_expr
FN:160,_RNvXs_NtCs2Eyh5DnjbiX_9cytoscnpy3cfgNtB4_13NameCollectorNtNtCs8PIGe9Luacy_15ruff_python_ast7visitor7Visitor10visit_stmt
FN:216,_RNvXs_NtCs2Eyh5DnjbiX_9cytoscnpy3cfgNtB4_13NameCollectorNtNtCs8PIGe9Luacy_15ruff_python_ast7visitor7Visitor13visit_pattern
FNDA:141,_RNCNCNvMs0_NtCsbhXKu17xbPQ_9cytoscnpy3cfgNtB9_10CfgBuilder5build00Bb_
FNDA:373,_RNCNvMs0_NtCsbhXKu17xbPQ_9cytoscnpy3cfgNtB7_10CfgBuilder5build0B9_
FNDA:9,_RNCNvMs0_NtCsbhXKu17xbPQ_9cytoscnpy3cfgNtB7_10CfgBuilder8visit_if0B9_
FNDA:373,_RNvMNtCsbhXKu17xbPQ_9cytoscnpy3cfgNtB2_10BasicBlock3new
FNDA:432,_RNvMs0_NtCsbhXKu17xbPQ_9cytoscnpy3cfgNtB5_10CfgBuilder10visit_stmt
FNDA:8,_RNvMs0_NtCsbhXKu17xbPQ_9cytoscnpy3cfgNtB5_10CfgBuilder11visit_match
FNDA:2,_RNvMs0_NtCsbhXKu17xbPQ_9cytoscnpy3cfgNtB5_10CfgBuilder11visit_while
FNDA:107,_RNvMs0_NtCsbhXKu17xbPQ_9cytoscnpy3cfgNtB5_10CfgBuilder15build_from_body
FNDA:85,_RNvMs0_NtCsbhXKu17xbPQ_9cytoscnpy3cfgNtB5_10CfgBuilder18collect_expr_names
FNDA:360,_RNvMs0_NtCsbhXKu17xbPQ_9cytoscnpy3cfgNtB5_10CfgBuilder18collect_stmt_names
FNDA:172,_RNvMs0_NtCsbhXKu17xbPQ_9cytoscnpy3cfgNtB5_10CfgBuilder19build_from_function
FNDA:24,_RNvMs0_NtCsbhXKu17xbPQ_9cytoscnpy3cfgNtB5_10CfgBuilder21collect_pattern_names
FNDA:172,_RNvMs0_NtCsbhXKu17xbPQ_9cytoscnpy3cfgNtB5_10CfgBuilder3new
FNDA:172,_RNvMs0_NtCsbhXKu17xbPQ_9cytoscnpy3cfgNtB5_10CfgBuilder5build
FNDA:290,_RNvMs0_NtCsbhXKu17xbPQ_9cytoscnpy3cfgNtB5_10CfgBuilder8add_edge
FNDA:432,_RNvMs0_NtCsbhXKu17xbPQ_9cytoscnpy3cfgNtB5_10CfgBuilder8add_stmt
FNDA:54,_RNvMs0_NtCsbhXKu17xbPQ_9cytoscnpy3cfgNtB5_10CfgBuilder8visit_if
FNDA:201,_RNvMs0_NtCsbhXKu17xbPQ_9cytoscnpy3cfgNtB5_10CfgBuilder9new_block
FNDA:3,_RNvMs0_NtCsbhXKu17xbPQ_9cytoscnpy3cfgNtB5_10CfgBuilder9visit_for
FNDA:2,_RNvMs0_NtCsbhXKu17xbPQ_9cytoscnpy3cfgNtB5_10CfgBuilder9visit_try
FNDA:0,_RNvMs1_NtCsbhXKu17xbPQ_9cytoscnpy3cfgNtB5_3Cfg11fingerprint
FNDA:257,_RNvMs1_NtCsbhXKu17xbPQ_9cytoscnpy3cfgNtB5_3Cfg11from_source
FNDA:172,_RNvMs1_NtCsbhXKu17xbPQ_9cytoscnpy3cfgNtB5_3Cfg13from_function
FNDA:0,_RNvMs1_NtCsbhXKu17xbPQ_9cytoscnpy3cfgNtB5_3Cfg16similarity_score
FNDA:0,_RNvMs1_NtCsbhXKu17xbPQ_9cytoscnpy3cfgNtB5_3Cfg23is_behaviorally_similar
FNDA:799,_RNvXs_NtCsbhXKu17xbPQ_9cytoscnpy3cfgNtB4_13NameCollectorNtNtCs8PIGe9Luacy_15ruff_python_ast7visitor7Visitor10visit_expr
FNDA:360,_RNvXs_NtCsbhXKu17xbPQ_9cytoscnpy3cfgNtB4_13NameCollectorNtNtCs8PIGe9Luacy_15ruff_python_ast7visitor7Visitor10visit_stmt
FNDA:58,_RNvXs_NtCsbhXKu17xbPQ_9cytoscnpy3cfgNtB4_13NameCollectorNtNtCs8PIGe9Luacy_15ruff_python_ast7visitor7Visitor13visit_pattern
FNDA:9,_RNCNCNvMs0_NtCs2Eyh5DnjbiX_9cytoscnpy3cfgNtB9_10CfgBuilder5build00Bb_
FNDA:17,_RNCNvMs0_NtCs2Eyh5DnjbiX_9cytoscnpy3cfgNtB7_10CfgBuilder5build0B9_
FNDA:1,_RNCNvMs0_NtCs2Eyh5DnjbiX_9cytoscnpy3cfgNtB7_10CfgBuilder8visit_if0B9_
FNDA:1,_RNCNvNtNtCs2Eyh5DnjbiX_9cytoscnpy3cfg5testss_27test_cfg_from_source_simple0B7_
FNDA:1,_RNCNvNtNtCs2Eyh5DnjbiX_9cytoscnpy3cfg5testss_27test_cfg_from_source_simples0_0B7_
FNDA:2,_RNCNvNtNtCs2Eyh5DnjbiX_9cytoscnpy3cfg5testss_27test_cfg_from_source_simples1_0B7_
FNDA:2,_RNCNvNtNtCs2Eyh5DnjbiX_9cytoscnpy3cfg5testss_27test_cfg_from_source_simples_0B7_
FNDA:1,_RNCNvNtNtCs2Eyh5DnjbiX_9cytoscnpy3cfg5testss_28test_cfg_from_source_with_if0B7_
FNDA:0,_RNvMs1_NtCs2Eyh5DnjbiX_9cytoscnpy3cfgNtB5_3Cfg23is_behaviorally_similar
FNDA:1,_RNvNtNtCs2Eyh5DnjbiX_9cytoscnpy3cfg5testss_20test_cfg_fingerprint
FNDA:1,_RNvNtNtCs2Eyh5DnjbiX_9cytoscnpy3cfg5testss_27test_cfg_from_source_simple
FNDA:1,_RNvNtNtCs2Eyh5DnjbiX_9cytoscnpy3cfg5testss_28test_cfg_from_source_with_if
FNDA:17,_RNvMNtCs2Eyh5DnjbiX_9cytoscnpy3cfgNtB2_10BasicBlock3new
FNDA:12,_RNvMs0_NtCs2Eyh5DnjbiX_9cytoscnpy3cfgNtB5_10CfgBuilder10visit_stmt
FNDA:2,_RNvMs0_NtCs2Eyh5DnjbiX_9cytoscnpy3cfgNtB5_10CfgBuilder11visit_match
FNDA:0,_RNvMs0_NtCs2Eyh5DnjbiX_9cytoscnpy3cfgNtB5_10CfgBuilder11visit_while
FNDA:6,_RNvMs0_NtCs2Eyh5DnjbiX_9cytoscnpy3cfgNtB5_10CfgBuilder15build_from_body
FNDA:3,_RNvMs0_NtCs2Eyh5DnjbiX_9cytoscnpy3cfgNtB5_10CfgBuilder18collect_expr_names
FNDA:9,_RNvMs0_NtCs2Eyh5DnjbiX_9cytoscnpy3cfgNtB5_10CfgBuilder18collect_stmt_names
FNDA:4,_RNvMs0_NtCs2Eyh5DnjbiX_9cytoscnpy3cfgNtB5_10CfgBuilder19build_from_function
FNDA:4,_RNvMs0_NtCs2Eyh5DnjbiX_9cytoscnpy3cfgNtB5_10CfgBuilder21collect_pattern_names
FNDA:4,_RNvMs0_NtCs2Eyh5DnjbiX_9cytoscnpy3cfgNtB5_10CfgBuilder3new
FNDA:4,_RNvMs0_NtCs2Eyh5DnjbiX_9cytoscnpy3cfgNtB5_10CfgBuilder5build
FNDA:16,_RNvMs0_NtCs2Eyh5DnjbiX_9cytoscnpy3cfgNtB5_10CfgBuilder8add_edge
FNDA:12,_RNvMs0_NtCs2Eyh5DnjbiX_9cytoscnpy3cfgNtB5_10CfgBuilder8add_stmt
FNDA:1,_RNvMs0_NtCs2Eyh5DnjbiX_9cytoscnpy3cfgNtB5_10CfgBuilder8visit_if
FNDA:13,_RNvMs0_NtCs2Eyh5DnjbiX_9cytoscnpy3cfgNtB5_10CfgBuilder9new_block
FNDA:0,_RNvMs0_NtCs2Eyh5DnjbiX_9cytoscnpy3cfgNtB5_10CfgBuilder9visit_for
FNDA:0,_RNvMs0_NtCs2Eyh5DnjbiX_9cytoscnpy3cfgNtB5_10CfgBuilder9visit_try
FNDA:3,_RNvMs1_NtCs2Eyh5DnjbiX_9cytoscnpy3cfgNtB5_3Cfg11fingerprint
FNDA:4,_RNvMs1_NtCs2Eyh5DnjbiX_9cytoscnpy3cfgNtB5_3Cfg11from_source
FNDA:4,_RNvMs1_NtCs2Eyh5DnjbiX_9cytoscnpy3cfgNtB5_3Cfg13from_function
FNDA:0,_RNvMs1_NtCs2Eyh5DnjbiX_9cytoscnpy3cfgNtB5_3Cfg16similarity_score
FNDA:26,_RNvXs_NtCs2Eyh5DnjbiX_9cytoscnpy3cfgNtB4_13NameCollectorNtNtCs8PIGe9Luacy_15ruff_python_ast7visitor7Visitor10visit_expr
FNDA:9,_RNvXs_NtCs2Eyh5DnjbiX_9cytoscnpy3cfgNtB4_13NameCollectorNtNtCs8PIGe9Luacy_15ruff_python_ast7visitor7Visitor10visit_stmt
FNDA:12,_RNvXs_NtCs2Eyh5DnjbiX_9cytoscnpy3cfgNtB4_13NameCollectorNtNtCs8PIGe9Luacy_15ruff_python_ast7visitor7Visitor13visit_pattern
FNF:36
FNH:34
DA:97,390
DA:98,390
DA:99,390
DA:100,390
DA:101,390
DA:102,390
DA:103,390
DA:104,390
DA:105,390
DA:106,390
DA:107,390
DA:145,825
DA:146,825
DA:147,336
DA:148,258
DA:149,258
DA:150,258
DA:151,78
DA:152,78
DA:153,78
DA:154,0
DA:156,489
DA:158,825
DA:160,369
DA:161,369
DA:162,12
DA:163,12
DA:164,12
DA:165,0
DA:166,0
DA:167,0
DA:168,0
DA:169,52
DA:170,104
DA:171,52
DA:172,52
DA:173,52
DA:175,0
DA:176,0
DA:177,0
DA:178,0
DA:179,0
DA:181,13
DA:182,13
DA:183,13
DA:184,13
DA:185,55
DA:186,55
DA:187,55
DA:188,77
DA:189,77
DA:190,76
DA:191,76
DA:193,1
DA:194,1
DA:195,1
DA:196,1
DA:197,1
DA:198,1
DA:199,1
DA:201,1
DA:202,1
DA:203,1
DA:204,1
DA:205,1
DA:207,1
DA:208,2
DA:209,1
DA:210,1
DA:212,157
DA:214,369
DA:216,70
DA:217,70
DA:218,33
DA:219,33
DA:220,27
DA:221,27
DA:222,33
DA:223,0
DA:224,33
DA:226,3
DA:227,3
DA:228,1
DA:229,2
DA:230,8
DA:231,5
DA:232,5
DA:233,8
DA:234,5
DA:235,5
DA:237,1
DA:238,1
DA:239,1
DA:240,1
DA:242,33
DA:244,70
DA:258,176
DA:259,176
DA:260,176
DA:261,176
DA:262,176
DA:263,176
DA:264,176
DA:265,176
DA:266,176
DA:267,176
DA:269,214
DA:270,214
DA:271,214
DA:272,214
DA:273,214
DA:275,306
DA:276,306
DA:277,305
DA:278,305
DA:279,306
DA:280,305
DA:281,305
DA:282,306
DA:284,444
DA:285,444
DA:286,444
DA:287,444
DA:288,444
DA:290,176
DA:292,176
DA:293,0
DA:294,0
DA:295,0
DA:296,0
DA:297,294
DA:298,118
DA:299,118
DA:300,118
DA:301,118
DA:302,176
DA:303,1
DA:304,1
DA:305,1
DA:306,175
DA:307,177
DA:308,1
DA:309,1
DA:310,1
DA:311,1
DA:312,176
DA:313,1
DA:314,1
DA:315,1
DA:316,175
DA:318,505
DA:319,329
DA:320,329
DA:321,176
DA:323,113
DA:324,228
DA:325,115
DA:326,115
DA:327,113
DA:329,88
DA:330,88
DA:331,88
DA:332,88
DA:333,88
DA:334,88
DA:335,88
DA:336,88
DA:337,88
DA:339,28
DA:340,28
DA:341,28
DA:342,28
DA:343,28
DA:344,28
DA:345,28
DA:346,28
DA:347,28
DA:349,369
DA:350,369
DA:351,369
DA:352,369
DA:353,369
DA:354,369
DA:355,369
DA:356,369
DA:357,369
DA:360,444
DA:362,444
DA:364,444
DA:365,55
DA:366,55
DA:367,55
DA:368,55
DA:369,55
DA:370,3
DA:371,3
DA:372,3
DA:373,3
DA:374,3
DA:375,3
DA:376,2
DA:377,2
DA:378,2
DA:379,2
DA:380,2
DA:381,2
DA:382,2
DA:383,2
DA:384,2
DA:385,3
DA:386,7
DA:387,4
DA:388,4
DA:389,3
DA:390,3
DA:392,3
DA:393,3
DA:395,10
DA:396,10
DA:397,10
DA:398,10
DA:399,10
DA:401,369
DA:402,369
DA:403,77
DA:404,1
DA:406,2
DA:407,2
DA:408,2
DA:409,2
DA:412,1
DA:413,1
DA:414,1
DA:415,1
DA:417,55
DA:418,55
DA:419,52
DA:420,52
DA:421,3
DA:422,3
DA:424,233
DA:428,444
DA:430,55
DA:431,55
DA:432,55
DA:433,55
DA:435,55
DA:436,55
DA:437,55
DA:439,55
DA:440,55
DA:442,67
DA:443,12
DA:444,12
DA:446,12
DA:447,4
DA:448,4
DA:449,4
DA:450,4
DA:451,8
DA:453,12
DA:454,12
DA:455,12
DA:457,12
DA:458,4
DA:459,8
DA:462,55
DA:463,55
DA:464,55
DA:465,55
DA:466,55
DA:467,47
DA:468,47
DA:470,55
DA:471,169
DA:472,114
DA:473,114
DA:474,55
DA:475,55
DA:477,3
DA:478,3
DA:479,3
DA:480,3
DA:481,3
DA:483,3
DA:484,3
DA:485,3
DA:487,3
DA:488,3
DA:489,3
DA:491,3
DA:492,3
DA:493,3
DA:494,3
DA:496,3
DA:497,1
DA:498,1
DA:499,1
DA:500,1
DA:501,1
DA:502,2
DA:504,3
DA:505,3
DA:506,3
DA:507,3
DA:509,2
DA:510,2
DA:511,2
DA:512,2
DA:513,2
DA:515,2
DA:516,2
DA:517,2
DA:519,2
DA:520,2
DA:521,2
DA:523,2
DA:524,2
DA:525,2
DA:526,2
DA:528,2
DA:529,1
DA:530,1
DA:531,1
DA:532,1
DA:533,1
DA:534,1
DA:536,2
DA:537,2
DA:538,2
DA:539,2
DA:541,2
DA:542,2
DA:543,2
DA:544,2
DA:545,2
DA:546,2
DA:547,2
DA:549,2
DA:550,6
DA:551,4
DA:552,4
DA:553,4
DA:554,4
DA:555,4
DA:556,4
DA:557,1
DA:558,1
DA:559,1
DA:560,3
DA:561,4
DA:562,4
DA:563,4
DA:564,4
DA:567,4
DA:570,2
DA:571,1
DA:572,1
DA:573,1
DA:574,1
DA:575,1
DA:576,1
DA:578,2
DA:579,9
DA:580,7
DA:581,7
DA:583,2
DA:584,1
DA:585,1
DA:586,1
DA:587,2
DA:588,2
DA:590,10
DA:592,10
DA:593,10
DA:595,38
DA:596,28
DA:599,28
DA:600,28
DA:601,28
DA:602,28
DA:604,28
DA:607,28
DA:608,0
DA:609,0
DA:610,0
DA:611,0
DA:612,0
DA:613,28
DA:616,28
DA:617,28
DA:618,28
DA:619,28
DA:620,28
DA:623,10
DA:624,38
DA:625,28
DA:626,28
DA:627,10
DA:628,10
DA:630,176
DA:631,176
DA:632,176
DA:633,176
DA:634,176
DA:635,390
DA:636,390
DA:637,214
DA:638,214
DA:639,214
DA:640,214
DA:641,390
DA:642,176
DA:643,176
DA:646,176
DA:648,176
DA:650,176
DA:655,176
DA:656,176
DA:657,176
DA:658,176
DA:659,176
DA:663,261
DA:664,261
DA:665,176
DA:666,176
DA:667,176
DA:668,176
DA:669,176
DA:670,176
DA:671,0
DA:672,0
DA:674,0
DA:675,261
DA:679,3
DA:680,3
DA:681,3
DA:682,3
DA:683,3
DA:685,9
DA:686,6
DA:687,14
DA:688,8
DA:689,8
DA:690,2
DA:691,1
DA:692,5
DA:696,3
DA:697,3
DA:698,3
DA:699,3
DA:700,3
DA:701,3
DA:702,3
DA:703,3
DA:707,0
DA:708,0
DA:709,0
DA:710,0
DA:711,0
DA:712,0
DA:713,0
DA:714,0
DA:719,0
DA:720,0
DA:721,0
DA:722,0
DA:723,0
DA:725,0
DA:726,0
DA:727,0
DA:728,0
DA:730,0
DA:731,0
DA:732,0
DA:733,0
DA:734,0
DA:735,0
DA:736,0
DA:737,0
DA:738,0
DA:740,0
DA:741,0
DA:742,0
DA:743,0
DA:744,0
DA:745,0
DA:746,0
DA:747,0
DA:748,0
DA:750,0
DA:751,0
DA:752,0
DA:753,0
DA:754,0
DA:755,0
DA:756,0
DA:757,0
DA:758,0
DA:760,0
DA:761,0
DA:762,0
DA:763,0
DA:764,0
DA:765,0
DA:766,0
DA:767,0
DA:768,0
DA:769,0
DA:770,0
DA:771,0
DA:772,0
DA:773,0
DA:774,0
DA:775,0
DA:776,0
DA:784,1
DA:785,1
DA:786,1
DA:787,1
DA:788,1
DA:789,1
DA:790,1
DA:791,1
DA:792,1
DA:793,1
DA:794,1
DA:795,1
DA:796,1
DA:797,1
DA:798,1
DA:799,1
DA:800,1
DA:801,1
DA:802,1
DA:803,1
DA:804,1
DA:805,1
DA:806,1
DA:808,1
DA:809,1
DA:810,1
DA:811,1
DA:812,1
DA:813,1
DA:816,1
DA:817,1
DA:818,1
DA:819,1
DA:820,1
DA:821,1
DA:822,1
DA:825,1
DA:826,1
DA:827,2
DA:828,1
DA:829,2
DA:830,1
DA:833,1
DA:834,1
DA:835,1
DA:836,1
DA:837,1
DA:838,1
DA:839,1
DA:842,1
DA:843,1
BRF:0
BRH:0
LF:575
LH:491
end_of_record
SF:E:\Github\CytoScnPy\cytoscnpy\src\clones\confidence.rs
FN:33,_RINvMNtNtCsbhXKu17xbPQ_9cytoscnpy6clones10confidenceNtB3_16ConfidenceFactor3newNtNtCs1S013FBku8r_5alloc6string6StringEB7_
FN:33,_RINvMNtNtCsbhXKu17xbPQ_9cytoscnpy6clones10confidenceNtB3_16ConfidenceFactor3newReEB7_
FN:104,_RNvMs0_NtNtCsbhXKu17xbPQ_9cytoscnpy6clones10confidenceNtB5_16ConfidenceScorer3new
FN:113,_RNvMs0_NtNtCsbhXKu17xbPQ_9cytoscnpy6clones10confidenceNtB5_16ConfidenceScorer5score
FN:93,_RNvXs_NtNtCsbhXKu17xbPQ_9cytoscnpy6clones10confidenceNtB4_16ConfidenceScorerNtNtCsgS7EKHCc5jD_4core7default7Default7default
FN:104,_RNvMs0_NtNtCs2Eyh5DnjbiX_9cytoscnpy6clones10confidenceNtB5_16ConfidenceScorer3new
FN:113,_RNvMs0_NtNtCs2Eyh5DnjbiX_9cytoscnpy6clones10confidenceNtB5_16ConfidenceScorer5score
FN:93,_RNvXs_NtNtCs2Eyh5DnjbiX_9cytoscnpy6clones10confidenceNtB4_16ConfidenceScorerNtNtCsgS7EKHCc5jD_4core7default7Default7default
FN:268,_RNvNtNtNtCs2Eyh5DnjbiX_9cytoscnpy6clones10confidence5tests9make_pair
FN:314,_RNvNtNtNtCs2Eyh5DnjbiX_9cytoscnpy6clones10confidence5testss_28test_low_confidence_suppress
FN:299,_RNvNtNtNtCs2Eyh5DnjbiX_9cytoscnpy6clones10confidence5testss_29test_high_confidence_auto_fix
FN:33,_RINvMNtNtCs2Eyh5DnjbiX_9cytoscnpy6clones10confidenceNtB3_16ConfidenceFactor3newNtNtCs1S013FBku8r_5alloc6string6StringEB7_
FN:33,_RINvMNtNtCs2Eyh5DnjbiX_9cytoscnpy6clones10confidenceNtB3_16ConfidenceFactor3newReEB7_
FNDA:10,_RINvMNtNtCsbhXKu17xbPQ_9cytoscnpy6clones10confidenceNtB3_16ConfidenceFactor3newNtNtCs1S013FBku8r_5alloc6string6StringEB7_
FNDA:19,_RINvMNtNtCsbhXKu17xbPQ_9cytoscnpy6clones10confidenceNtB3_16ConfidenceFactor3newReEB7_
FNDA:9,_RNvMs0_NtNtCsbhXKu17xbPQ_9cytoscnpy6clones10confidenceNtB5_16ConfidenceScorer3new
FNDA:10,_RNvMs0_NtNtCsbhXKu17xbPQ_9cytoscnpy6clones10confidenceNtB5_16ConfidenceScorer5score
FNDA:12,_RNvXs_NtNtCsbhXKu17xbPQ_9cytoscnpy6clones10confidenceNtB4_16ConfidenceScorerNtNtCsgS7EKHCc5jD_4core7default7Default7default
FNDA:0,_RNvMs0_NtNtCs2Eyh5DnjbiX_9cytoscnpy6clones10confidenceNtB5_16ConfidenceScorer3new
FNDA:2,_RNvMs0_NtNtCs2Eyh5DnjbiX_9cytoscnpy6clones10confidenceNtB5_16ConfidenceScorer5score
FNDA:2,_RNvXs_NtNtCs2Eyh5DnjbiX_9cytoscnpy6clones10confidenceNtB4_16ConfidenceScorerNtNtCsgS7EKHCc5jD_4core7default7Default7default
FNDA:2,_RNvNtNtNtCs2Eyh5DnjbiX_9cytoscnpy6clones10confidence5tests9make_pair
FNDA:1,_RNvNtNtNtCs2Eyh5DnjbiX_9cytoscnpy6clones10confidence5testss_28test_low_confidence_suppress
FNDA:1,_RNvNtNtNtCs2Eyh5DnjbiX_9cytoscnpy6clones10confidence5testss_29test_high_confidence_auto_fix
FNDA:2,_RINvMNtNtCs2Eyh5DnjbiX_9cytoscnpy6clones10confidenceNtB3_16ConfidenceFactor3newNtNtCs1S013FBku8r_5alloc6string6StringEB7_
FNDA:8,_RINvMNtNtCs2Eyh5DnjbiX_9cytoscnpy6clones10confidenceNtB3_16ConfidenceFactor3newReEB7_
FNF:7
FNH:7
DA:33,39
DA:34,39
DA:35,39
DA:36,39
DA:37,39
DA:38,39
DA:39,39
DA:93,14
DA:94,14
DA:95,14
DA:96,14
DA:97,14
DA:98,14
DA:104,9
DA:105,9
DA:106,9
DA:107,9
DA:108,9
DA:109,9
DA:113,12
DA:114,12
DA:115,12
DA:121,12
DA:122,9
DA:123,9
DA:124,9
DA:125,0
DA:126,0
DA:127,3
DA:128,2
DA:129,2
DA:130,2
DA:131,1
DA:132,1
DA:133,1
DA:136,12
DA:137,12
DA:138,12
DA:140,12
DA:141,12
DA:148,12
DA:149,1
DA:150,1
DA:151,11
DA:153,12
DA:154,0
DA:155,0
DA:156,12
DA:158,12
DA:159,0
DA:160,0
DA:161,12
DA:167,12
DA:168,9
DA:169,9
DA:170,9
DA:171,1
DA:172,1
DA:173,2
DA:175,12
DA:176,1
DA:177,1
DA:178,1
DA:179,1
DA:180,1
DA:181,1
DA:182,11
DA:188,12
DA:189,1
DA:190,1
DA:191,11
DA:193,12
DA:194,1
DA:195,1
DA:196,11
DA:202,12
DA:203,0
DA:204,0
DA:205,0
DA:206,0
DA:207,0
DA:208,0
DA:209,12
DA:211,12
DA:212,0
DA:213,0
DA:214,0
DA:215,0
DA:216,0
DA:217,0
DA:218,12
DA:220,12
DA:221,0
DA:222,0
DA:223,0
DA:224,0
DA:225,0
DA:226,0
DA:227,12
DA:233,12
DA:234,1
DA:235,1
DA:236,1
DA:237,1
DA:238,1
DA:239,1
DA:240,11
DA:244,12
DA:246,12
DA:247,9
DA:248,3
DA:249,1
DA:251,2
DA:254,12
DA:255,12
DA:256,12
DA:257,12
DA:258,12
DA:259,12
DA:268,2
DA:271,2
DA:272,2
DA:273,2
DA:274,2
DA:275,2
DA:276,2
DA:277,2
DA:278,2
DA:279,2
DA:280,2
DA:281,2
DA:282,2
DA:283,2
DA:284,2
DA:285,2
DA:286,2
DA:287,2
DA:288,2
DA:289,2
DA:290,2
DA:291,2
DA:292,2
DA:293,2
DA:294,2
DA:295,2
DA:296,2
DA:299,1
DA:300,1
DA:301,1
DA:302,1
DA:303,1
DA:304,1
DA:305,1
DA:306,1
DA:308,1
DA:309,1
DA:310,1
DA:311,1
DA:314,1
DA:315,1
DA:316,1
DA:317,1
DA:318,1
DA:319,1
DA:320,1
DA:321,1
DA:323,1
DA:324,1
DA:325,1
BRF:0
BRH:0
LF:169
LH:136
end_of_record
SF:E:\Github\CytoScnPy\cytoscnpy\src\clones\config.rs
FN:101,_RNvMs_NtNtCsbhXKu17xbPQ_9cytoscnpy6clones6configNtB4_11CloneConfig10with_tests
FN:108,_RNvMs_NtNtCsbhXKu17xbPQ_9cytoscnpy6clones6configNtB4_11CloneConfig16with_clone_types
FN:120,_RNvMs_NtNtCsbhXKu17xbPQ_9cytoscnpy6clones6configNtB4_11CloneConfig19with_cfg_validation
FN:80,_RNvMs_NtNtCsbhXKu17xbPQ_9cytoscnpy6clones6configNtB4_11CloneConfig19with_min_similarity
FN:94,_RNvMs_NtNtCsbhXKu17xbPQ_9cytoscnpy6clones6configNtB4_11CloneConfig22with_suggest_threshold
FN:87,_RNvMs_NtNtCsbhXKu17xbPQ_9cytoscnpy6clones6configNtB4_11CloneConfig23with_auto_fix_threshold
FN:57,_RNvXNtNtCsbhXKu17xbPQ_9cytoscnpy6clones6configNtB2_11CloneConfigNtNtCsgS7EKHCc5jD_4core7default7Default7default
FN:101,_RNvMs_NtNtCs2Eyh5DnjbiX_9cytoscnpy6clones6configNtB4_11CloneConfig10with_tests
FN:108,_RNvMs_NtNtCs2Eyh5DnjbiX_9cytoscnpy6clones6configNtB4_11CloneConfig16with_clone_types
FN:120,_RNvMs_NtNtCs2Eyh5DnjbiX_9cytoscnpy6clones6configNtB4_11CloneConfig19with_cfg_validation
FN:94,_RNvMs_NtNtCs2Eyh5DnjbiX_9cytoscnpy6clones6configNtB4_11CloneConfig22with_suggest_threshold
FN:87,_RNvMs_NtNtCs2Eyh5DnjbiX_9cytoscnpy6clones6configNtB4_11CloneConfig23with_auto_fix_threshold
FN:80,_RNvMs_NtNtCs2Eyh5DnjbiX_9cytoscnpy6clones6configNtB4_11CloneConfig19with_min_similarity
FN:57,_RNvXNtNtCs2Eyh5DnjbiX_9cytoscnpy6clones6configNtB2_11CloneConfigNtNtCsgS7EKHCc5jD_4core7default7Default7default
FNDA:0,_RNvMs_NtNtCsbhXKu17xbPQ_9cytoscnpy6clones6configNtB4_11CloneConfig10with_tests
FNDA:0,_RNvMs_NtNtCsbhXKu17xbPQ_9cytoscnpy6clones6configNtB4_11CloneConfig16with_clone_types
FNDA:2,_RNvMs_NtNtCsbhXKu17xbPQ_9cytoscnpy6clones6configNtB4_11CloneConfig19with_cfg_validation
FNDA:10,_RNvMs_NtNtCsbhXKu17xbPQ_9cytoscnpy6clones6configNtB4_11CloneConfig19with_min_similarity
FNDA:0,_RNvMs_NtNtCsbhXKu17xbPQ_9cytoscnpy6clones6configNtB4_11CloneConfig22with_suggest_threshold
FNDA:2,_RNvMs_NtNtCsbhXKu17xbPQ_9cytoscnpy6clones6configNtB4_11CloneConfig23with_auto_fix_threshold
FNDA:21,_RNvXNtNtCsbhXKu17xbPQ_9cytoscnpy6clones6configNtB2_11CloneConfigNtNtCsgS7EKHCc5jD_4core7default7Default7default
FNDA:0,_RNvMs_NtNtCs2Eyh5DnjbiX_9cytoscnpy6clones6configNtB4_11CloneConfig10with_tests
FNDA:0,_RNvMs_NtNtCs2Eyh5DnjbiX_9cytoscnpy6clones6configNtB4_11CloneConfig16with_clone_types
FNDA:0,_RNvMs_NtNtCs2Eyh5DnjbiX_9cytoscnpy6clones6configNtB4_11CloneConfig19with_cfg_validation
FNDA:0,_RNvMs_NtNtCs2Eyh5DnjbiX_9cytoscnpy6clones6configNtB4_11CloneConfig22with_suggest_threshold
FNDA:0,_RNvMs_NtNtCs2Eyh5DnjbiX_9cytoscnpy6clones6configNtB4_11CloneConfig23with_auto_fix_threshold
FNDA:0,_RNvMs_NtNtCs2Eyh5DnjbiX_9cytoscnpy6clones6configNtB4_11CloneConfig19with_min_similarity
FNDA:0,_RNvXNtNtCs2Eyh5DnjbiX_9cytoscnpy6clones6configNtB2_11CloneConfigNtNtCsgS7EKHCc5jD_4core7default7Default7default
FNF:7
FNH:4
DA:57,21
DA:58,21
DA:59,21
DA:60,21
DA:61,21
DA:62,21
DA:63,21
DA:64,21
DA:65,21
DA:66,21
DA:67,21
DA:68,21
DA:69,21
DA:70,21
DA:71,21
DA:72,21
DA:73,21
DA:74,21
DA:80,10
DA:81,10
DA:82,10
DA:83,10
DA:87,2
DA:88,2
DA:89,2
DA:90,2
DA:94,0
DA:95,0
DA:96,0
DA:97,0
DA:101,0
DA:102,0
DA:103,0
DA:104,0
DA:108,0
DA:109,0
DA:110,0
DA:111,0
DA:112,0
DA:113,0
DA:120,2
DA:121,2
DA:122,2
DA:123,2
BRF:0
BRH:0
LF:44
LH:30
end_of_record
SF:E:\Github\CytoScnPy\cytoscnpy\src\clones\hasher.rs
FN:45,_RNCNvMNtNtCsbhXKu17xbPQ_9cytoscnpy6clones6hasherNtB4_9LshHasher15find_candidates0B8_
FN:83,_RNCNvMNtNtCsbhXKu17xbPQ_9cytoscnpy6clones6hasherNtB4_9LshHasher17generate_shingles0B8_
FN:89,_RNCNvMNtNtCsbhXKu17xbPQ_9cytoscnpy6clones6hasherNtB4_9LshHasher17generate_shingless_0B8_
FN:44,_RNvMNtNtCsbhXKu17xbPQ_9cytoscnpy6clones6hasherNtB2_9LshHasher15find_candidates
FN:79,_RNvMNtNtCsbhXKu17xbPQ_9cytoscnpy6clones6hasherNtB2_9LshHasher17generate_shingles
FN:27,_RNvMNtNtCsbhXKu17xbPQ_9cytoscnpy6clones6hasherNtB2_9LshHasher3new
FN:97,_RNvMNtNtCsbhXKu17xbPQ_9cytoscnpy6clones6hasherNtB2_9LshHasher7minhash
FN:118,_RNvMNtNtCsbhXKu17xbPQ_9cytoscnpy6clones6hasherNtB2_9LshHasher9band_hash
FN:37,_RNvMNtNtCsbhXKu17xbPQ_9cytoscnpy6clones6hasherNtB2_9LshHasher9signature
FN:131,_RNvNtNtCsbhXKu17xbPQ_9cytoscnpy6clones6hasher11hash_string
FN:138,_RNvNtNtCsbhXKu17xbPQ_9cytoscnpy6clones6hasher14hash_with_seed
FN:146,_RNvXs_NtNtCsbhXKu17xbPQ_9cytoscnpy6clones6hasherNtB4_9LshHasherNtNtCsgS7EKHCc5jD_4core7default7Default7default
FN:45,_RNCNvMNtNtCs2Eyh5DnjbiX_9cytoscnpy6clones6hasherNtB4_9LshHasher15find_candidates0B8_
FN:83,_RNCNvMNtNtCs2Eyh5DnjbiX_9cytoscnpy6clones6hasherNtB4_9LshHasher17generate_shingles0B8_
FN:89,_RNCNvMNtNtCs2Eyh5DnjbiX_9cytoscnpy6clones6hasherNtB4_9LshHasher17generate_shingless_0B8_
FN:44,_RNvMNtNtCs2Eyh5DnjbiX_9cytoscnpy6clones6hasherNtB2_9LshHasher15find_candidates
FN:79,_RNvMNtNtCs2Eyh5DnjbiX_9cytoscnpy6clones6hasherNtB2_9LshHasher17generate_shingles
FN:27,_RNvMNtNtCs2Eyh5DnjbiX_9cytoscnpy6clones6hasherNtB2_9LshHasher3new
FN:97,_RNvMNtNtCs2Eyh5DnjbiX_9cytoscnpy6clones6hasherNtB2_9LshHasher7minhash
FN:118,_RNvMNtNtCs2Eyh5DnjbiX_9cytoscnpy6clones6hasherNtB2_9LshHasher9band_hash
FN:37,_RNvMNtNtCs2Eyh5DnjbiX_9cytoscnpy6clones6hasherNtB2_9LshHasher9signature
FN:131,_RNvNtNtCs2Eyh5DnjbiX_9cytoscnpy6clones6hasher11hash_string
FN:138,_RNvNtNtCs2Eyh5DnjbiX_9cytoscnpy6clones6hasher14hash_with_seed
FN:146,_RNvXs_NtNtCs2Eyh5DnjbiX_9cytoscnpy6clones6hasherNtB4_9LshHasherNtNtCsgS7EKHCc5jD_4core7default7Default7default
FN:156,_RNvNtNtNtCs2Eyh5DnjbiX_9cytoscnpy6clones6hasher5tests9make_tree
FN:170,_RNvNtNtNtCs2Eyh5DnjbiX_9cytoscnpy6clones6hasher5testss_35test_identical_trees_are_candidates
FN:184,_RNvNtNtNtCs2Eyh5DnjbiX_9cytoscnpy6clones6hasher5testss_36test_similar_trees_may_be_candidates
FN:161,_RNCNvNtNtNtCs2Eyh5DnjbiX_9cytoscnpy6clones6hasher5tests9make_tree0B9_
FNDA:25,_RNCNvMNtNtCsbhXKu17xbPQ_9cytoscnpy6clones6hasherNtB4_9LshHasher15find_candidates0B8_
FNDA:2,_RNCNvMNtNtCsbhXKu17xbPQ_9cytoscnpy6clones6hasherNtB4_9LshHasher17generate_shingles0B8_
FNDA:316,_RNCNvMNtNtCsbhXKu17xbPQ_9cytoscnpy6clones6hasherNtB4_9LshHasher17generate_shingless_0B8_
FNDA:16,_RNvMNtNtCsbhXKu17xbPQ_9cytoscnpy6clones6hasherNtB2_9LshHasher15find_candidates
FNDA:25,_RNvMNtNtCsbhXKu17xbPQ_9cytoscnpy6clones6hasherNtB2_9LshHasher17generate_shingles
FNDA:16,_RNvMNtNtCsbhXKu17xbPQ_9cytoscnpy6clones6hasherNtB2_9LshHasher3new
FNDA:25,_RNvMNtNtCsbhXKu17xbPQ_9cytoscnpy6clones6hasherNtB2_9LshHasher7minhash
FNDA:500,_RNvMNtNtCsbhXKu17xbPQ_9cytoscnpy6clones6hasherNtB2_9LshHasher9band_hash
FNDA:25,_RNvMNtNtCsbhXKu17xbPQ_9cytoscnpy6clones6hasherNtB2_9LshHasher9signature
FNDA:318,_RNvNtNtCsbhXKu17xbPQ_9cytoscnpy6clones6hasher11hash_string
FNDA:31800,_RNvNtNtCsbhXKu17xbPQ_9cytoscnpy6clones6hasher14hash_with_seed
FNDA:0,_RNvXs_NtNtCsbhXKu17xbPQ_9cytoscnpy6clones6hasherNtB4_9LshHasherNtNtCsgS7EKHCc5jD_4core7default7Default7default
FNDA:5,_RNCNvMNtNtCs2Eyh5DnjbiX_9cytoscnpy6clones6hasherNtB4_9LshHasher15find_candidates0B8_
FNDA:0,_RNCNvMNtNtCs2Eyh5DnjbiX_9cytoscnpy6clones6hasherNtB4_9LshHasher17generate_shingles0B8_
FNDA:6,_RNCNvMNtNtCs2Eyh5DnjbiX_9cytoscnpy6clones6hasherNtB4_9LshHasher17generate_shingless_0B8_
FNDA:2,_RNvMNtNtCs2Eyh5DnjbiX_9cytoscnpy6clones6hasherNtB2_9LshHasher15find_candidates
FNDA:5,_RNvMNtNtCs2Eyh5DnjbiX_9cytoscnpy6clones6hasherNtB2_9LshHasher17generate_shingles
FNDA:2,_RNvMNtNtCs2Eyh5DnjbiX_9cytoscnpy6clones6hasherNtB2_9LshHasher3new
FNDA:5,_RNvMNtNtCs2Eyh5DnjbiX_9cytoscnpy6clones6hasherNtB2_9LshHasher7minhash
FNDA:100,_RNvMNtNtCs2Eyh5DnjbiX_9cytoscnpy6clones6hasherNtB2_9LshHasher9band_hash
FNDA:5,_RNvMNtNtCs2Eyh5DnjbiX_9cytoscnpy6clones6hasherNtB2_9LshHasher9signature
FNDA:6,_RNvNtNtCs2Eyh5DnjbiX_9cytoscnpy6clones6hasher11hash_string
FNDA:600,_RNvNtNtCs2Eyh5DnjbiX_9cytoscnpy6clones6hasher14hash_with_seed
FNDA:2,_RNvXs_NtNtCs2Eyh5DnjbiX_9cytoscnpy6clones6hasherNtB4_9LshHasherNtNtCsgS7EKHCc5jD_4core7default7Default7default
FNDA:5,_RNvNtNtNtCs2Eyh5DnjbiX_9cytoscnpy6clones6hasher5tests9make_tree
FNDA:1,_RNvNtNtNtCs2Eyh5DnjbiX_9cytoscnpy6clones6hasher5testss_35test_identical_trees_are_candidates
FNDA:1,_RNvNtNtNtCs2Eyh5DnjbiX_9cytoscnpy6clones6hasher5testss_36test_similar_trees_may_be_candidates
FNDA:16,_RNCNvNtNtNtCs2Eyh5DnjbiX_9cytoscnpy6clones6hasher5tests9make_tree0B9_
FNF:16
FNH:16
DA:27,18
DA:28,18
DA:29,18
DA:30,18
DA:31,18
DA:32,18
DA:33,18
DA:37,30
DA:38,30
DA:39,30
DA:40,30
DA:44,18
DA:45,30
DA:48,18
DA:50,30
DA:51,600
DA:52,600
DA:53,600
DA:54,600
DA:58,18
DA:59,413
DA:60,413
DA:61,374
DA:62,374
DA:63,187
DA:64,187
DA:66,0
DA:68,187
DA:71,226
DA:74,18
DA:75,18
DA:79,30
DA:80,30
DA:81,30
DA:83,2
DA:84,29
DA:87,29
DA:88,29
DA:89,322
DA:90,322
DA:91,322
DA:92,322
DA:93,29
DA:94,30
DA:97,30
DA:98,30
DA:99,0
DA:100,30
DA:102,30
DA:104,3000
DA:106,35400
DA:107,32400
DA:108,32400
DA:109,6792
DA:110,25608
DA:114,30
DA:115,30
DA:118,600
DA:119,600
DA:120,600
DA:122,600
DA:123,3000
DA:124,3000
DA:125,3000
DA:126,600
DA:127,600
DA:131,324
DA:132,324
DA:133,324
DA:134,324
DA:135,324
DA:138,32400
DA:139,32400
DA:140,32400
DA:141,32400
DA:142,32400
DA:143,32400
DA:146,2
DA:147,2
DA:148,2
DA:156,5
DA:158,5
DA:159,5
DA:160,5
DA:161,16
DA:162,16
DA:163,16
DA:164,16
DA:165,5
DA:167,5
DA:170,1
DA:171,1
DA:172,1
DA:173,1
DA:174,1
DA:175,1
DA:178,1
DA:179,1
DA:180,1
DA:181,1
DA:184,1
DA:185,1
DA:186,1
DA:187,1
DA:188,1
DA:191,1
DA:193,1
DA:194,1
BRF:0
BRH:0
LF:111
LH:109
end_of_record
SF:E:\Github\CytoScnPy\cytoscnpy\src\clones\mod.rs
FN:55,_RNvMNtCsbhXKu17xbPQ_9cytoscnpy6clonesNtB2_13CloneDetector11with_config
FN:205,_RNvMNtCsbhXKu17xbPQ_9cytoscnpy6clonesNtB2_13CloneDetector12group_clones
FN:76,_RNvMNtCsbhXKu17xbPQ_9cytoscnpy6clonesNtB2_13CloneDetector17detect_from_paths
FN:216,_RNvMNtCsbhXKu17xbPQ_9cytoscnpy6clonesNtB2_13CloneDetector17validate_with_cfg
FN:106,_RNvMNtCsbhXKu17xbPQ_9cytoscnpy6clonesNtB2_13CloneDetector20detect_from_subtrees
FN:46,_RNvMNtCsbhXKu17xbPQ_9cytoscnpy6clonesNtB2_13CloneDetector3new
FN:186,_RNvMNtCsbhXKu17xbPQ_9cytoscnpy6clonesNtB2_13CloneDetector6detect
FN:308,_RNvXs0_NtCsbhXKu17xbPQ_9cytoscnpy6clonesNtB5_10CloneErrorNtNtCsgS7EKHCc5jD_4core3fmt7Display3fmt
FN:282,_RNvXs_NtCsbhXKu17xbPQ_9cytoscnpy6clonesNtB4_13CloneDetectorNtNtCsgS7EKHCc5jD_4core7default7Default7default
FN:87,_RNCNvMNtCsbhXKu17xbPQ_9cytoscnpy6clonesNtB4_13CloneDetector17detect_from_paths0B6_
FN:228,_RNCNvMNtCsbhXKu17xbPQ_9cytoscnpy6clonesNtB4_13CloneDetector17validate_with_cfg0B6_
FN:233,_RNCNvMNtCsbhXKu17xbPQ_9cytoscnpy6clonesNtB4_13CloneDetector17validate_with_cfgs_0B6_
FN:113,_RNCNvMNtCsbhXKu17xbPQ_9cytoscnpy6clonesNtB4_13CloneDetector20detect_from_subtrees0B6_
FN:117,_RNCNvMNtCsbhXKu17xbPQ_9cytoscnpy6clonesNtB4_13CloneDetector20detect_from_subtreess_0B6_
FN:46,_RNvMNtCs2Eyh5DnjbiX_9cytoscnpy6clonesNtB2_13CloneDetector3new
FN:186,_RNvMNtCs2Eyh5DnjbiX_9cytoscnpy6clonesNtB2_13CloneDetector6detect
FN:308,_RNvXs0_NtCs2Eyh5DnjbiX_9cytoscnpy6clonesNtB5_10CloneErrorNtNtCsgS7EKHCc5jD_4core3fmt7Display3fmt
FN:282,_RNvXs_NtCs2Eyh5DnjbiX_9cytoscnpy6clonesNtB4_13CloneDetectorNtNtCsgS7EKHCc5jD_4core7default7Default7default
FN:55,_RNvMNtCs2Eyh5DnjbiX_9cytoscnpy6clonesNtB2_13CloneDetector11with_config
FN:205,_RNvMNtCs2Eyh5DnjbiX_9cytoscnpy6clonesNtB2_13CloneDetector12group_clones
FN:76,_RNvMNtCs2Eyh5DnjbiX_9cytoscnpy6clonesNtB2_13CloneDetector17detect_from_paths
FN:216,_RNvMNtCs2Eyh5DnjbiX_9cytoscnpy6clonesNtB2_13CloneDetector17validate_with_cfg
FN:106,_RNvMNtCs2Eyh5DnjbiX_9cytoscnpy6clonesNtB2_13CloneDetector20detect_from_subtrees
FN:87,_RNCNvMNtCs2Eyh5DnjbiX_9cytoscnpy6clonesNtB4_13CloneDetector17detect_from_paths0B6_
FN:228,_RNCNvMNtCs2Eyh5DnjbiX_9cytoscnpy6clonesNtB4_13CloneDetector17validate_with_cfg0B6_
FN:233,_RNCNvMNtCs2Eyh5DnjbiX_9cytoscnpy6clonesNtB4_13CloneDetector17validate_with_cfgs_0B6_
FN:113,_RNCNvMNtCs2Eyh5DnjbiX_9cytoscnpy6clonesNtB4_13CloneDetector20detect_from_subtrees0B6_
FN:117,_RNCNvMNtCs2Eyh5DnjbiX_9cytoscnpy6clonesNtB4_13CloneDetector20detect_from_subtreess_0B6_
FNDA:9,_RNvMNtCsbhXKu17xbPQ_9cytoscnpy6clonesNtB2_13CloneDetector11with_config
FNDA:16,_RNvMNtCsbhXKu17xbPQ_9cytoscnpy6clonesNtB2_13CloneDetector12group_clones
FNDA:7,_RNvMNtCsbhXKu17xbPQ_9cytoscnpy6clonesNtB2_13CloneDetector17detect_from_paths
FNDA:0,_RNvMNtCsbhXKu17xbPQ_9cytoscnpy6clonesNtB2_13CloneDetector17validate_with_cfg
FNDA:16,_RNvMNtCsbhXKu17xbPQ_9cytoscnpy6clonesNtB2_13CloneDetector20detect_from_subtrees
FNDA:7,_RNvMNtCsbhXKu17xbPQ_9cytoscnpy6clonesNtB2_13CloneDetector3new
FNDA:9,_RNvMNtCsbhXKu17xbPQ_9cytoscnpy6clonesNtB2_13CloneDetector6detect
FNDA:0,_RNvXs0_NtCsbhXKu17xbPQ_9cytoscnpy6clonesNtB5_10CloneErrorNtNtCsgS7EKHCc5jD_4core3fmt7Display3fmt
FNDA:0,_RNvXs_NtCsbhXKu17xbPQ_9cytoscnpy6clonesNtB4_13CloneDetectorNtNtCsgS7EKHCc5jD_4core7default7Default7default
FNDA:13,_RNCNvMNtCsbhXKu17xbPQ_9cytoscnpy6clonesNtB4_13CloneDetector17detect_from_paths0B6_
FNDA:0,_RNCNvMNtCsbhXKu17xbPQ_9cytoscnpy6clonesNtB4_13CloneDetector17validate_with_cfg0B6_
FNDA:0,_RNCNvMNtCsbhXKu17xbPQ_9cytoscnpy6clonesNtB4_13CloneDetector17validate_with_cfgs_0B6_
FNDA:25,_RNCNvMNtCsbhXKu17xbPQ_9cytoscnpy6clonesNtB4_13CloneDetector20detect_from_subtrees0B6_
FNDA:25,_RNCNvMNtCsbhXKu17xbPQ_9cytoscnpy6clonesNtB4_13CloneDetector20detect_from_subtreess_0B6_
FNDA:0,_RNvMNtCs2Eyh5DnjbiX_9cytoscnpy6clonesNtB2_13CloneDetector3new
FNDA:0,_RNvMNtCs2Eyh5DnjbiX_9cytoscnpy6clonesNtB2_13CloneDetector6detect
FNDA:0,_RNvXs0_NtCs2Eyh5DnjbiX_9cytoscnpy6clonesNtB5_10CloneErrorNtNtCsgS7EKHCc5jD_4core3fmt7Display3fmt
FNDA:0,_RNvXs_NtCs2Eyh5DnjbiX_9cytoscnpy6clonesNtB4_13CloneDetectorNtNtCsgS7EKHCc5jD_4core7default7Default7default
FNDA:0,_RNvMNtCs2Eyh5DnjbiX_9cytoscnpy6clonesNtB2_13CloneDetector11with_config
FNDA:0,_RNvMNtCs2Eyh5DnjbiX_9cytoscnpy6clonesNtB2_13CloneDetector12group_clones
FNDA:0,_RNvMNtCs2Eyh5DnjbiX_9cytoscnpy6clonesNtB2_13CloneDetector17detect_from_paths
FNDA:0,_RNvMNtCs2Eyh5DnjbiX_9cytoscnpy6clonesNtB2_13CloneDetector17validate_with_cfg
FNDA:0,_RNvMNtCs2Eyh5DnjbiX_9cytoscnpy6clonesNtB2_13CloneDetector20detect_from_subtrees
FNDA:0,_RNCNvMNtCs2Eyh5DnjbiX_9cytoscnpy6clonesNtB4_13CloneDetector17detect_from_paths0B6_
FNDA:0,_RNCNvMNtCs2Eyh5DnjbiX_9cytoscnpy6clonesNtB4_13CloneDetector17validate_with_cfg0B6_
FNDA:0,_RNCNvMNtCs2Eyh5DnjbiX_9cytoscnpy6clonesNtB4_13CloneDetector17validate_with_cfgs_0B6_
FNDA:0,_RNCNvMNtCs2Eyh5DnjbiX_9cytoscnpy6clonesNtB4_13CloneDetector20detect_from_subtrees0B6_
FNDA:0,_RNCNvMNtCs2Eyh5DnjbiX_9cytoscnpy6clonesNtB4_13CloneDetector20detect_from_subtreess_0B6_
FNF:14
FNH:9
DA:46,7
DA:47,7
DA:48,7
DA:49,7
DA:50,7
DA:51,7
DA:55,9
DA:56,9
DA:57,9
DA:58,9
DA:59,9
DA:60,9
DA:61,9
DA:62,9
DA:63,9
DA:76,7
DA:81,7
DA:83,7
DA:85,7
DA:86,7
DA:87,13
DA:88,13
DA:89,0
DA:90,13
DA:91,13
DA:92,13
DA:93,13
DA:94,7
DA:95,7
DA:97,7
DA:102,7
DA:103,7
DA:106,16
DA:108,16
DA:109,16
DA:111,16
DA:112,16
DA:113,25
DA:114,16
DA:115,16
DA:116,16
DA:117,25
DA:118,16
DA:121,16
DA:122,16
DA:125,16
DA:126,16
DA:128,25
DA:130,9
DA:131,9
DA:133,9
DA:138,9
DA:139,9
DA:141,9
DA:142,6
DA:143,3
DA:144,2
DA:145,1
DA:146,0
DA:148,1
DA:151,9
DA:152,9
DA:153,9
DA:154,9
DA:155,9
DA:156,9
DA:157,9
DA:158,9
DA:159,0
DA:165,16
DA:166,0
DA:168,16
DA:172,16
DA:173,16
DA:175,16
DA:176,16
DA:177,16
DA:178,16
DA:179,16
DA:180,16
DA:186,9
DA:187,9
DA:190,22
DA:191,13
DA:192,12
DA:193,1
DA:194,1
DA:195,1
DA:200,9
DA:201,9
DA:205,16
DA:207,16
DA:208,16
DA:216,0
DA:217,0
DA:218,0
DA:219,0
DA:220,0
DA:225,0
DA:226,0
DA:227,0
DA:228,0
DA:229,0
DA:231,0
DA:232,0
DA:233,0
DA:235,0
DA:236,0
DA:238,0
DA:239,0
DA:241,0
DA:244,0
DA:245,0
DA:248,0
DA:249,0
DA:252,0
DA:253,0
DA:257,0
DA:258,0
DA:259,0
DA:262,0
DA:263,0
DA:265,0
DA:266,0
DA:268,0
DA:269,0
DA:271,0
DA:272,0
DA:274,0
DA:276,0
DA:277,0
DA:278,0
DA:282,0
DA:283,0
DA:284,0
DA:308,0
DA:309,0
DA:310,0
DA:311,0
DA:313,0
BRF:0
BRH:0
LF:145
LH:92
end_of_record
SF:E:\Github\CytoScnPy\cytoscnpy\src\clones\normalizer.rs
FN:26,_RNvMNtNtCsbhXKu17xbPQ_9cytoscnpy6clones10normalizerNtB2_14NormalizedTree13kind_sequence
FN:20,_RNvMNtNtCsbhXKu17xbPQ_9cytoscnpy6clones10normalizerNtB2_14NormalizedTree4size
FN:80,_RNvMs0_NtNtCsbhXKu17xbPQ_9cytoscnpy6clones10normalizerNtB5_10Normalizer14for_clone_type
FN:147,_RNvMs0_NtNtCsbhXKu17xbPQ_9cytoscnpy6clones10normalizerNtB5_10Normalizer14normalize_node
FN:126,_RNvMs0_NtNtCsbhXKu17xbPQ_9cytoscnpy6clones10normalizerNtB5_10Normalizer15normalize_nodes
FN:102,_RNvMs0_NtNtCsbhXKu17xbPQ_9cytoscnpy6clones10normalizerNtB5_10Normalizer9normalize
FN:58,_RNvMs_NtNtCsbhXKu17xbPQ_9cytoscnpy6clones10normalizerNtB4_14NormalizedNode13collect_kinds
FN:49,_RNvMs_NtNtCsbhXKu17xbPQ_9cytoscnpy6clones10normalizerNtB4_14NormalizedNode4size
FN:187,_RNvNtNtCsbhXKu17xbPQ_9cytoscnpy6clones10normalizer18is_literal_pattern
FN:160,_RNCNCNvMs0_NtNtCsbhXKu17xbPQ_9cytoscnpy6clones10normalizerNtB9_10Normalizer14normalize_node00Bd_
FN:154,_RNCNvMs0_NtNtCsbhXKu17xbPQ_9cytoscnpy6clones10normalizerNtB7_10Normalizer14normalize_node0Bb_
FN:175,_RNCNvMs0_NtNtCsbhXKu17xbPQ_9cytoscnpy6clones10normalizerNtB7_10Normalizer14normalize_nodes_0Bb_
FN:132,_RNCNvMs0_NtNtCsbhXKu17xbPQ_9cytoscnpy6clones10normalizerNtB7_10Normalizer15normalize_nodes0Bb_
FN:137,_RNCNvMs0_NtNtCsbhXKu17xbPQ_9cytoscnpy6clones10normalizerNtB7_10Normalizer15normalize_nodess_0Bb_
FN:109,_RNCNvMs0_NtNtCsbhXKu17xbPQ_9cytoscnpy6clones10normalizerNtB7_10Normalizer9normalize0Bb_
FN:115,_RNCNvMs0_NtNtCsbhXKu17xbPQ_9cytoscnpy6clones10normalizerNtB7_10Normalizer9normalizes_0Bb_
FN:200,_RNvNtNtNtCs2Eyh5DnjbiX_9cytoscnpy6clones10normalizer5testss_26test_type1_preserves_names
FN:213,_RNvNtNtNtCs2Eyh5DnjbiX_9cytoscnpy6clones10normalizer5testss_27test_type2_normalizes_names
FN:226,_RNvNtNtNtCs2Eyh5DnjbiX_9cytoscnpy6clones10normalizer5testss_31test_same_name_maps_to_same_var
FN:26,_RNvMNtNtCs2Eyh5DnjbiX_9cytoscnpy6clones10normalizerNtB2_14NormalizedTree13kind_sequence
FN:20,_RNvMNtNtCs2Eyh5DnjbiX_9cytoscnpy6clones10normalizerNtB2_14NormalizedTree4size
FN:80,_RNvMs0_NtNtCs2Eyh5DnjbiX_9cytoscnpy6clones10normalizerNtB5_10Normalizer14for_clone_type
FN:147,_RNvMs0_NtNtCs2Eyh5DnjbiX_9cytoscnpy6clones10normalizerNtB5_10Normalizer14normalize_node
FN:126,_RNvMs0_NtNtCs2Eyh5DnjbiX_9cytoscnpy6clones10normalizerNtB5_10Normalizer15normalize_nodes
FN:102,_RNvMs0_NtNtCs2Eyh5DnjbiX_9cytoscnpy6clones10normalizerNtB5_10Normalizer9normalize
FN:58,_RNvMs_NtNtCs2Eyh5DnjbiX_9cytoscnpy6clones10normalizerNtB4_14NormalizedNode13collect_kinds
FN:49,_RNvMs_NtNtCs2Eyh5DnjbiX_9cytoscnpy6clones10normalizerNtB4_14NormalizedNode4size
FN:187,_RNvNtNtCs2Eyh5DnjbiX_9cytoscnpy6clones10normalizer18is_literal_pattern
FN:160,_RNCNCNvMs0_NtNtCs2Eyh5DnjbiX_9cytoscnpy6clones10normalizerNtB9_10Normalizer14normalize_node00Bd_
FN:154,_RNCNvMs0_NtNtCs2Eyh5DnjbiX_9cytoscnpy6clones10normalizerNtB7_10Normalizer14normalize_node0Bb_
FN:175,_RNCNvMs0_NtNtCs2Eyh5DnjbiX_9cytoscnpy6clones10normalizerNtB7_10Normalizer14normalize_nodes_0Bb_
FN:132,_RNCNvMs0_NtNtCs2Eyh5DnjbiX_9cytoscnpy6clones10normalizerNtB7_10Normalizer15normalize_nodes0Bb_
FN:137,_RNCNvMs0_NtNtCs2Eyh5DnjbiX_9cytoscnpy6clones10normalizerNtB7_10Normalizer15normalize_nodess_0Bb_
FN:109,_RNCNvMs0_NtNtCs2Eyh5DnjbiX_9cytoscnpy6clones10normalizerNtB7_10Normalizer9normalize0Bb_
FN:115,_RNCNvMs0_NtNtCs2Eyh5DnjbiX_9cytoscnpy6clones10normalizerNtB7_10Normalizer9normalizes_0Bb_
FNDA:25,_RNvMNtNtCsbhXKu17xbPQ_9cytoscnpy6clones10normalizerNtB2_14NormalizedTree13kind_sequence
FNDA:36,_RNvMNtNtCsbhXKu17xbPQ_9cytoscnpy6clones10normalizerNtB2_14NormalizedTree4size
FNDA:32,_RNvMs0_NtNtCsbhXKu17xbPQ_9cytoscnpy6clones10normalizerNtB5_10Normalizer14for_clone_type
FNDA:732,_RNvMs0_NtNtCsbhXKu17xbPQ_9cytoscnpy6clones10normalizerNtB5_10Normalizer14normalize_node
FNDA:0,_RNvMs0_NtNtCsbhXKu17xbPQ_9cytoscnpy6clones10normalizerNtB5_10Normalizer15normalize_nodes
FNDA:50,_RNvMs0_NtNtCsbhXKu17xbPQ_9cytoscnpy6clones10normalizerNtB5_10Normalizer9normalize
FNDA:366,_RNvMs_NtNtCsbhXKu17xbPQ_9cytoscnpy6clones10normalizerNtB4_14NormalizedNode13collect_kinds
FNDA:590,_RNvMs_NtNtCsbhXKu17xbPQ_9cytoscnpy6clones10normalizerNtB4_14NormalizedNode4size
FNDA:200,_RNvNtNtCsbhXKu17xbPQ_9cytoscnpy6clones10normalizer18is_literal_pattern
FNDA:138,_RNCNCNvMs0_NtNtCsbhXKu17xbPQ_9cytoscnpy6clones10normalizerNtB9_10Normalizer14normalize_node00Bd_
FNDA:200,_RNCNvMs0_NtNtCsbhXKu17xbPQ_9cytoscnpy6clones10normalizerNtB7_10Normalizer14normalize_node0Bb_
FNDA:600,_RNCNvMs0_NtNtCsbhXKu17xbPQ_9cytoscnpy6clones10normalizerNtB7_10Normalizer14normalize_nodes_0Bb_
FNDA:0,_RNCNvMs0_NtNtCsbhXKu17xbPQ_9cytoscnpy6clones10normalizerNtB7_10Normalizer15normalize_nodes0Bb_
FNDA:0,_RNCNvMs0_NtNtCsbhXKu17xbPQ_9cytoscnpy6clones10normalizerNtB7_10Normalizer15normalize_nodess_0Bb_
FNDA:132,_RNCNvMs0_NtNtCsbhXKu17xbPQ_9cytoscnpy6clones10normalizerNtB7_10Normalizer9normalize0Bb_
FNDA:0,_RNCNvMs0_NtNtCsbhXKu17xbPQ_9cytoscnpy6clones10normalizerNtB7_10Normalizer9normalizes_0Bb_
FNDA:1,_RNvNtNtNtCs2Eyh5DnjbiX_9cytoscnpy6clones10normalizer5testss_26test_type1_preserves_names
FNDA:1,_RNvNtNtNtCs2Eyh5DnjbiX_9cytoscnpy6clones10normalizer5testss_27test_type2_normalizes_names
FNDA:1,_RNvNtNtNtCs2Eyh5DnjbiX_9cytoscnpy6clones10normalizer5testss_31test_same_name_maps_to_same_var
FNDA:5,_RNvMNtNtCs2Eyh5DnjbiX_9cytoscnpy6clones10normalizerNtB2_14NormalizedTree13kind_sequence
FNDA:4,_RNvMNtNtCs2Eyh5DnjbiX_9cytoscnpy6clones10normalizerNtB2_14NormalizedTree4size
FNDA:3,_RNvMs0_NtNtCs2Eyh5DnjbiX_9cytoscnpy6clones10normalizerNtB5_10Normalizer14for_clone_type
FNDA:4,_RNvMs0_NtNtCs2Eyh5DnjbiX_9cytoscnpy6clones10normalizerNtB5_10Normalizer14normalize_node
FNDA:3,_RNvMs0_NtNtCs2Eyh5DnjbiX_9cytoscnpy6clones10normalizerNtB5_10Normalizer15normalize_nodes
FNDA:0,_RNvMs0_NtNtCs2Eyh5DnjbiX_9cytoscnpy6clones10normalizerNtB5_10Normalizer9normalize
FNDA:16,_RNvMs_NtNtCs2Eyh5DnjbiX_9cytoscnpy6clones10normalizerNtB4_14NormalizedNode13collect_kinds
FNDA:13,_RNvMs_NtNtCs2Eyh5DnjbiX_9cytoscnpy6clones10normalizerNtB4_14NormalizedNode4size
FNDA:3,_RNvNtNtCs2Eyh5DnjbiX_9cytoscnpy6clones10normalizer18is_literal_pattern
FNDA:2,_RNCNCNvMs0_NtNtCs2Eyh5DnjbiX_9cytoscnpy6clones10normalizerNtB9_10Normalizer14normalize_node00Bd_
FNDA:3,_RNCNvMs0_NtNtCs2Eyh5DnjbiX_9cytoscnpy6clones10normalizerNtB7_10Normalizer14normalize_node0Bb_
FNDA:0,_RNCNvMs0_NtNtCs2Eyh5DnjbiX_9cytoscnpy6clones10normalizerNtB7_10Normalizer14normalize_nodes_0Bb_
FNDA:4,_RNCNvMs0_NtNtCs2Eyh5DnjbiX_9cytoscnpy6clones10normalizerNtB7_10Normalizer15normalize_nodes0Bb_
FNDA:0,_RNCNvMs0_NtNtCs2Eyh5DnjbiX_9cytoscnpy6clones10normalizerNtB7_10Normalizer15normalize_nodess_0Bb_
FNDA:0,_RNCNvMs0_NtNtCs2Eyh5DnjbiX_9cytoscnpy6clones10normalizerNtB7_10Normalizer9normalize0Bb_
FNDA:0,_RNCNvMs0_NtNtCs2Eyh5DnjbiX_9cytoscnpy6clones10normalizerNtB7_10Normalizer9normalizes_0Bb_
FNF:19
FNH:17
DA:20,40
DA:21,40
DA:22,40
DA:26,30
DA:27,30
DA:28,112
DA:29,82
DA:30,82
DA:31,30
DA:32,30
DA:49,603
DA:50,603
DA:51,603
DA:52,603
DA:53,603
DA:54,603
DA:55,603
DA:58,382
DA:59,382
DA:60,682
DA:61,300
DA:62,300
DA:63,382
DA:80,35
DA:81,35
DA:82,17
DA:83,17
DA:84,17
DA:85,17
DA:86,17
DA:87,18
DA:88,18
DA:89,18
DA:90,18
DA:91,18
DA:92,0
DA:93,0
DA:94,0
DA:95,0
DA:96,0
DA:98,35
DA:102,50
DA:103,50
DA:104,50
DA:106,50
DA:107,50
DA:108,50
DA:109,132
DA:110,50
DA:113,50
DA:114,0
DA:115,0
DA:116,0
DA:118,50
DA:121,50
DA:122,50
DA:126,3
DA:127,3
DA:128,3
DA:130,3
DA:131,3
DA:132,4
DA:133,3
DA:135,3
DA:136,0
DA:137,0
DA:138,0
DA:140,3
DA:143,3
DA:144,3
DA:147,736
DA:148,736
DA:149,736
DA:150,736
DA:151,736
DA:152,736
DA:153,736
DA:154,369
DA:156,203
DA:157,0
DA:160,203
DA:161,140
DA:162,140
DA:163,140
DA:164,140
DA:165,203
DA:167,203
DA:169,367
DA:172,736
DA:173,736
DA:174,736
DA:175,736
DA:176,736
DA:178,736
DA:179,736
DA:180,736
DA:181,736
DA:182,736
DA:183,736
DA:187,203
DA:189,203
DA:190,203
DA:191,203
DA:192,203
DA:193,203
DA:200,1
DA:201,1
DA:202,1
DA:203,1
DA:204,1
DA:205,1
DA:206,1
DA:208,1
DA:209,1
DA:210,1
DA:213,1
DA:214,1
DA:215,1
DA:216,1
DA:217,1
DA:218,1
DA:219,1
DA:221,1
DA:222,1
DA:223,1
DA:226,1
DA:227,1
DA:228,1
DA:229,1
DA:230,1
DA:231,1
DA:232,1
DA:233,1
DA:234,1
DA:235,1
DA:236,1
DA:237,1
DA:238,1
DA:241,1
DA:242,1
DA:243,1
BRF:0
BRH:0
LF:148
LH:134
end_of_record
SF:E:\Github\CytoScnPy\cytoscnpy\src\clones\parser.rs
FN:112,_RNCNvMs0_NtNtCsbhXKu17xbPQ_9cytoscnpy6clones6parserNtB7_9AstParser5parse0Bb_
FN:228,_RNCNvNtNtCsbhXKu17xbPQ_9cytoscnpy6clones6parser12stmt_to_node0B7_
FN:401,_RNCNvNtNtCsbhXKu17xbPQ_9cytoscnpy6clones6parser12stmt_to_nodes0_0B7_
FN:435,_RNCNvNtNtCsbhXKu17xbPQ_9cytoscnpy6clones6parser12stmt_to_nodes1_0B7_
FN:388,_RNCNvNtNtCsbhXKu17xbPQ_9cytoscnpy6clones6parser12stmt_to_nodes_0B7_
FN:62,_RNvMNtNtCsbhXKu17xbPQ_9cytoscnpy6clones6parserNtB2_11SubtreeNode4size
FN:109,_RNvMs0_NtNtCsbhXKu17xbPQ_9cytoscnpy6clones6parserNtB5_9AstParser5parse
FN:70,_RNvMs_NtNtCsbhXKu17xbPQ_9cytoscnpy6clones6parserNtB4_7Subtree11to_instance
FN:207,_RNvNtNtCsbhXKu17xbPQ_9cytoscnpy6clones6parser12stmt_to_node
FN:194,_RNvNtNtCsbhXKu17xbPQ_9cytoscnpy6clones6parser13byte_to_lines
FN:120,_RNvNtNtCsbhXKu17xbPQ_9cytoscnpy6clones6parser16extract_subtrees
FN:130,_RNvNtNtCsbhXKu17xbPQ_9cytoscnpy6clones6parser17extract_from_body
FN:465,_RNvNtNtCsbhXKu17xbPQ_9cytoscnpy6clones6parser18extract_expr_nodes
FN:201,_RNvNtNtCsbhXKu17xbPQ_9cytoscnpy6clones6parser18extract_stmt_nodes
FN:607,_RNvNtNtNtCs2Eyh5DnjbiX_9cytoscnpy6clones6parser5testss_23test_parser_inner_class
FN:634,_RNvNtNtNtCs2Eyh5DnjbiX_9cytoscnpy6clones6parser5testss_24test_parser_async_method
FN:571,_RNvNtNtNtCs2Eyh5DnjbiX_9cytoscnpy6clones6parser5testss_26test_parser_async_function
FN:589,_RNvNtNtNtCs2Eyh5DnjbiX_9cytoscnpy6clones6parser5testss_27test_parser_nested_function
FN:112,_RNCNvMs0_NtNtCs2Eyh5DnjbiX_9cytoscnpy6clones6parserNtB7_9AstParser5parse0Bb_
FN:228,_RNCNvNtNtCs2Eyh5DnjbiX_9cytoscnpy6clones6parser12stmt_to_node0B7_
FN:401,_RNCNvNtNtCs2Eyh5DnjbiX_9cytoscnpy6clones6parser12stmt_to_nodes0_0B7_
FN:435,_RNCNvNtNtCs2Eyh5DnjbiX_9cytoscnpy6clones6parser12stmt_to_nodes1_0B7_
FN:388,_RNCNvNtNtCs2Eyh5DnjbiX_9cytoscnpy6clones6parser12stmt_to_nodes_0B7_
FN:62,_RNvMNtNtCs2Eyh5DnjbiX_9cytoscnpy6clones6parserNtB2_11SubtreeNode4size
FN:109,_RNvMs0_NtNtCs2Eyh5DnjbiX_9cytoscnpy6clones6parserNtB5_9AstParser5parse
FN:70,_RNvMs_NtNtCs2Eyh5DnjbiX_9cytoscnpy6clones6parserNtB4_7Subtree11to_instance
FN:207,_RNvNtNtCs2Eyh5DnjbiX_9cytoscnpy6clones6parser12stmt_to_node
FN:194,_RNvNtNtCs2Eyh5DnjbiX_9cytoscnpy6clones6parser13byte_to_lines
FN:120,_RNvNtNtCs2Eyh5DnjbiX_9cytoscnpy6clones6parser16extract_subtrees
FN:130,_RNvNtNtCs2Eyh5DnjbiX_9cytoscnpy6clones6parser17extract_from_body
FN:465,_RNvNtNtCs2Eyh5DnjbiX_9cytoscnpy6clones6parser18extract_expr_nodes
FN:201,_RNvNtNtCs2Eyh5DnjbiX_9cytoscnpy6clones6parser18extract_stmt_nodes
FN:629,_RNCNvNtNtNtCs2Eyh5DnjbiX_9cytoscnpy6clones6parser5testss_23test_parser_inner_classs0_0B9_
FN:630,_RNCNvNtNtNtCs2Eyh5DnjbiX_9cytoscnpy6clones6parser5testss_23test_parser_inner_classs1_0B9_
FN:620,_RNCNvNtNtNtCs2Eyh5DnjbiX_9cytoscnpy6clones6parser5testss_23test_parser_inner_classs_0B9_
FN:647,_RNCNvNtNtNtCs2Eyh5DnjbiX_9cytoscnpy6clones6parser5testss_24test_parser_async_method0B9_
FN:601,_RNCNvNtNtNtCs2Eyh5DnjbiX_9cytoscnpy6clones6parser5testss_27test_parser_nested_function0B9_
FNDA:1,_RNCNvMs0_NtNtCsbhXKu17xbPQ_9cytoscnpy6clones6parserNtB7_9AstParser5parse0Bb_
FNDA:44,_RNCNvNtNtCsbhXKu17xbPQ_9cytoscnpy6clones6parser12stmt_to_node0B7_
FNDA:0,_RNCNvNtNtCsbhXKu17xbPQ_9cytoscnpy6clones6parser12stmt_to_nodes0_0B7_
FNDA:0,_RNCNvNtNtCsbhXKu17xbPQ_9cytoscnpy6clones6parser12stmt_to_nodes1_0B7_
FNDA:1,_RNCNvNtNtCsbhXKu17xbPQ_9cytoscnpy6clones6parser12stmt_to_nodes_0B7_
FNDA:3,_RNvMNtNtCsbhXKu17xbPQ_9cytoscnpy6clones6parserNtB2_11SubtreeNode4size
FNDA:35,_RNvMs0_NtNtCsbhXKu17xbPQ_9cytoscnpy6clones6parserNtB5_9AstParser5parse
FNDA:21,_RNvMs_NtNtCsbhXKu17xbPQ_9cytoscnpy6clones6parserNtB4_7Subtree11to_instance
FNDA:133,_RNvNtNtCsbhXKu17xbPQ_9cytoscnpy6clones6parser12stmt_to_node
FNDA:38,_RNvNtNtCsbhXKu17xbPQ_9cytoscnpy6clones6parser13byte_to_lines
FNDA:35,_RNvNtNtCsbhXKu17xbPQ_9cytoscnpy6clones6parser16extract_subtrees
FNDA:72,_RNvNtNtCsbhXKu17xbPQ_9cytoscnpy6clones6parser17extract_from_body
FNDA:385,_RNvNtNtCsbhXKu17xbPQ_9cytoscnpy6clones6parser18extract_expr_nodes
FNDA:69,_RNvNtNtCsbhXKu17xbPQ_9cytoscnpy6clones6parser18extract_stmt_nodes
FNDA:1,_RNvNtNtNtCs2Eyh5DnjbiX_9cytoscnpy6clones6parser5testss_23test_parser_inner_class
FNDA:1,_RNvNtNtNtCs2Eyh5DnjbiX_9cytoscnpy6clones6parser5testss_24test_parser_async_method
FNDA:1,_RNvNtNtNtCs2Eyh5DnjbiX_9cytoscnpy6clones6parser5testss_26test_parser_async_function
FNDA:1,_RNvNtNtNtCs2Eyh5DnjbiX_9cytoscnpy6clones6parser5testss_27test_parser_nested_function
FNDA:0,_RNCNvMs0_NtNtCs2Eyh5DnjbiX_9cytoscnpy6clones6parserNtB7_9AstParser5parse0Bb_
FNDA:3,_RNCNvNtNtCs2Eyh5DnjbiX_9cytoscnpy6clones6parser12stmt_to_node0B7_
FNDA:0,_RNCNvNtNtCs2Eyh5DnjbiX_9cytoscnpy6clones6parser12stmt_to_nodes0_0B7_
FNDA:0,_RNCNvNtNtCs2Eyh5DnjbiX_9cytoscnpy6clones6parser12stmt_to_nodes1_0B7_
FNDA:0,_RNCNvNtNtCs2Eyh5DnjbiX_9cytoscnpy6clones6parser12stmt_to_nodes_0B7_
FNDA:0,_RNvMNtNtCs2Eyh5DnjbiX_9cytoscnpy6clones6parserNtB2_11SubtreeNode4size
FNDA:4,_RNvMs0_NtNtCs2Eyh5DnjbiX_9cytoscnpy6clones6parserNtB5_9AstParser5parse
FNDA:0,_RNvMs_NtNtCs2Eyh5DnjbiX_9cytoscnpy6clones6parserNtB4_7Subtree11to_instance
FNDA:13,_RNvNtNtCs2Eyh5DnjbiX_9cytoscnpy6clones6parser12stmt_to_node
FNDA:7,_RNvNtNtCs2Eyh5DnjbiX_9cytoscnpy6clones6parser13byte_to_lines
FNDA:4,_RNvNtNtCs2Eyh5DnjbiX_9cytoscnpy6clones6parser16extract_subtrees
FNDA:11,_RNvNtNtCs2Eyh5DnjbiX_9cytoscnpy6clones6parser17extract_from_body
FNDA:5,_RNvNtNtCs2Eyh5DnjbiX_9cytoscnpy6clones6parser18extract_expr_nodes
FNDA:10,_RNvNtNtCs2Eyh5DnjbiX_9cytoscnpy6clones6parser18extract_stmt_nodes
FNDA:1,_RNCNvNtNtNtCs2Eyh5DnjbiX_9cytoscnpy6clones6parser5testss_23test_parser_inner_classs0_0B9_
FNDA:2,_RNCNvNtNtNtCs2Eyh5DnjbiX_9cytoscnpy6clones6parser5testss_23test_parser_inner_classs1_0B9_
FNDA:2,_RNCNvNtNtNtCs2Eyh5DnjbiX_9cytoscnpy6clones6parser5testss_23test_parser_inner_classs_0B9_
FNDA:2,_RNCNvNtNtNtCs2Eyh5DnjbiX_9cytoscnpy6clones6parser5testss_24test_parser_async_method0B9_
FNDA:2,_RNCNvNtNtNtCs2Eyh5DnjbiX_9cytoscnpy6clones6parser5testss_27test_parser_nested_function0B9_
FNF:23
FNH:21
DA:62,3
DA:63,3
DA:64,3
DA:70,21
DA:74,21
DA:76,76
DA:77,55
DA:78,55
DA:81,21
DA:82,21
DA:83,0
DA:84,0
DA:85,0
DA:88,21
DA:89,21
DA:90,21
DA:91,21
DA:92,21
DA:93,21
DA:94,21
DA:95,21
DA:96,21
DA:97,21
DA:98,21
DA:109,39
DA:110,39
DA:111,39
DA:112,39
DA:113,39
DA:120,39
DA:121,39
DA:122,38
DA:124,38
DA:126,38
DA:127,39
DA:130,83
DA:131,83
DA:132,83
DA:133,83
DA:134,83
DA:135,83
DA:136,83
DA:137,230
DA:138,147
DA:139,41
DA:140,41
DA:141,41
DA:142,41
DA:145,41
DA:146,4
DA:147,37
DA:148,1
DA:150,36
DA:153,41
DA:154,41
DA:155,41
DA:156,41
DA:157,41
DA:158,41
DA:159,41
DA:160,41
DA:161,41
DA:162,41
DA:163,41
DA:166,41
DA:168,4
DA:169,4
DA:170,4
DA:171,4
DA:172,4
DA:173,4
DA:174,4
DA:175,4
DA:176,4
DA:177,4
DA:178,4
DA:179,4
DA:180,4
DA:181,4
DA:182,4
DA:183,4
DA:184,4
DA:185,4
DA:186,4
DA:187,4
DA:188,102
DA:191,83
DA:194,45
DA:195,45
DA:196,45
DA:197,45
DA:198,45
DA:201,79
DA:202,79
DA:203,79
DA:207,146
DA:208,146
DA:210,5
DA:211,5
DA:212,2
DA:214,3
DA:216,5
DA:217,5
DA:218,5
DA:219,5
DA:220,5
DA:222,1
DA:223,1
DA:224,1
DA:225,1
DA:226,1
DA:227,47
DA:228,47
DA:229,47
DA:230,47
DA:231,47
DA:232,47
DA:233,47
DA:235,38
DA:236,38
DA:237,76
DA:238,38
DA:239,38
DA:240,38
DA:241,38
DA:242,38
DA:243,38
DA:244,38
DA:245,38
DA:247,1
DA:248,1
DA:249,1
DA:250,1
DA:251,1
DA:252,1
DA:253,1
DA:254,1
DA:256,0
DA:257,0
DA:258,0
DA:259,0
DA:260,0
DA:261,0
DA:262,0
DA:263,0
DA:264,0
DA:265,0
DA:268,4
DA:269,4
DA:270,4
DA:271,4
DA:272,4
DA:273,4
DA:274,4
DA:275,4
DA:276,4
DA:277,4
DA:279,2
DA:280,2
DA:281,2
DA:282,2
DA:283,2
DA:284,2
DA:285,2
DA:286,2
DA:288,15
DA:289,15
DA:290,15
DA:292,18
DA:293,3
DA:294,1
DA:295,2
DA:296,3
DA:298,15
DA:299,15
DA:300,15
DA:301,15
DA:302,15
DA:305,0
DA:306,0
DA:307,0
DA:308,0
DA:309,0
DA:310,0
DA:311,0
DA:312,0
DA:314,0
DA:315,0
DA:316,0
DA:317,0
DA:318,0
DA:319,0
DA:321,1
DA:322,1
DA:323,2
DA:324,1
DA:325,1
DA:326,1
DA:327,1
DA:328,1
DA:329,1
DA:333,1
DA:334,1
DA:335,1
DA:336,1
DA:337,1
DA:338,1
DA:339,1
DA:341,19
DA:342,19
DA:343,19
DA:344,19
DA:345,19
DA:346,11
DA:347,11
DA:348,11
DA:349,11
DA:350,11
DA:351,1
DA:352,1
DA:353,1
DA:354,1
DA:355,1
DA:356,0
DA:357,0
DA:358,0
DA:359,0
DA:360,0
DA:361,0
DA:362,0
DA:363,0
DA:364,0
DA:365,0
DA:366,0
DA:367,0
DA:368,0
DA:369,0
DA:370,0
DA:371,0
DA:372,0
DA:373,0
DA:375,0
DA:376,0
DA:377,0
DA:378,0
DA:379,0
DA:380,0
DA:381,0
DA:382,0
DA:383,0
DA:384,0
DA:386,1
DA:388,1
DA:389,1
DA:390,1
DA:391,1
DA:392,1
DA:393,1
DA:395,0
DA:396,0
DA:397,0
DA:398,0
DA:399,0
DA:400,0
DA:401,0
DA:402,0
DA:403,0
DA:404,0
DA:405,0
DA:406,0
DA:408,0
DA:409,0
DA:410,0
DA:411,0
DA:412,0
DA:413,0
DA:414,0
DA:415,0
DA:416,0
DA:417,0
DA:418,0
DA:419,0
DA:420,0
DA:421,0
DA:422,0
DA:423,0
DA:424,0
DA:425,0
DA:426,0
DA:427,0
DA:428,0
DA:429,0
DA:430,0
DA:431,0
DA:432,0
DA:434,0
DA:435,0
DA:436,0
DA:439,0
DA:440,0
DA:441,0
DA:442,0
DA:443,0
DA:444,0
DA:445,0
DA:446,0
DA:448,0
DA:449,0
DA:450,0
DA:451,0
DA:452,0
DA:453,0
DA:454,0
DA:456,0
DA:457,0
DA:458,0
DA:459,0
DA:460,0
DA:462,146
DA:465,390
DA:466,390
DA:467,182
DA:468,182
DA:469,182
DA:470,182
DA:471,182
DA:472,51
DA:473,51
DA:474,100
DA:475,49
DA:476,49
DA:478,51
DA:479,51
DA:480,51
DA:481,51
DA:482,51
DA:484,29
DA:485,29
DA:486,29
DA:487,29
DA:488,29
DA:489,29
DA:490,29
DA:491,29
DA:492,29
DA:493,29
DA:494,29
DA:495,29
DA:497,33
DA:498,33
DA:499,33
DA:500,33
DA:501,33
DA:502,33
DA:503,33
DA:504,33
DA:506,33
DA:507,33
DA:508,33
DA:509,33
DA:510,33
DA:511,38
DA:512,38
DA:513,38
DA:514,38
DA:515,38
DA:516,1
DA:517,1
DA:518,1
DA:519,1
DA:520,1
DA:521,0
DA:522,0
DA:523,0
DA:524,0
DA:525,0
DA:526,0
DA:527,0
DA:528,0
DA:529,0
DA:530,0
DA:531,2
DA:532,2
DA:533,2
DA:534,2
DA:535,2
DA:536,2
DA:537,2
DA:539,0
DA:540,0
DA:541,0
DA:542,0
DA:543,0
DA:544,0
DA:545,0
DA:547,4
DA:548,4
DA:549,16
DA:550,12
DA:551,12
DA:552,12
DA:553,12
DA:555,4
DA:556,4
DA:557,4
DA:558,4
DA:559,4
DA:562,17
DA:564,390
DA:571,1
DA:572,1
DA:573,1
DA:574,1
DA:575,1
DA:576,1
DA:577,1
DA:579,1
DA:580,1
DA:581,1
DA:582,0
DA:583,0
DA:585,1
DA:586,1
DA:589,1
DA:590,1
DA:591,1
DA:592,1
DA:593,1
DA:594,1
DA:595,1
DA:596,1
DA:599,1
DA:601,2
DA:602,1
DA:603,1
DA:604,1
DA:607,1
DA:608,1
DA:609,1
DA:610,1
DA:611,1
DA:612,1
DA:613,1
DA:614,1
DA:616,1
DA:617,1
DA:618,1
DA:619,1
DA:620,2
DA:621,1
DA:622,1
DA:623,0
DA:624,2
DA:625,1
DA:627,1
DA:628,1
DA:629,1
DA:630,2
DA:631,1
DA:634,1
DA:635,1
DA:636,1
DA:637,1
DA:638,1
DA:639,1
DA:640,1
DA:643,1
DA:645,1
DA:646,1
DA:647,2
DA:648,1
DA:649,1
DA:650,1
BRF:0
BRH:0
LF:483
LH:341
end_of_record
SF:E:\Github\CytoScnPy\cytoscnpy\src\clones\similarity.rs
FN:48,_RNvMs_NtNtCsbhXKu17xbPQ_9cytoscnpy6clones10similarityNtB4_14TreeSimilarity10similarity
FN:95,_RNvMs_NtNtCsbhXKu17xbPQ_9cytoscnpy6clones10similarityNtB4_14TreeSimilarity12flatten_node
FN:36,_RNvMs_NtNtCsbhXKu17xbPQ_9cytoscnpy6clones10similarityNtB4_14TreeSimilarity13edit_distance
FN:62,_RNvMs_NtNtCsbhXKu17xbPQ_9cytoscnpy6clones10similarityNtB4_14TreeSimilarity22classify_by_similarity
FN:103,_RNvMs_NtNtCsbhXKu17xbPQ_9cytoscnpy6clones10similarityNtB4_14TreeSimilarity22sequence_edit_distance
FN:86,_RNvMs_NtNtCsbhXKu17xbPQ_9cytoscnpy6clones10similarityNtB4_14TreeSimilarity7flatten
FN:75,_RNvMs_NtNtCsbhXKu17xbPQ_9cytoscnpy6clones10similarityNtB4_14TreeSimilarity8classify
FN:22,_RNvXNtNtCsbhXKu17xbPQ_9cytoscnpy6clones10similarityNtB2_14TreeSimilarityNtNtCsgS7EKHCc5jD_4core7default7Default7default
FN:48,_RNvMs_NtNtCs2Eyh5DnjbiX_9cytoscnpy6clones10similarityNtB4_14TreeSimilarity10similarity
FN:95,_RNvMs_NtNtCs2Eyh5DnjbiX_9cytoscnpy6clones10similarityNtB4_14TreeSimilarity12flatten_node
FN:36,_RNvMs_NtNtCs2Eyh5DnjbiX_9cytoscnpy6clones10similarityNtB4_14TreeSimilarity13edit_distance
FN:62,_RNvMs_NtNtCs2Eyh5DnjbiX_9cytoscnpy6clones10similarityNtB4_14TreeSimilarity22classify_by_similarity
FN:103,_RNvMs_NtNtCs2Eyh5DnjbiX_9cytoscnpy6clones10similarityNtB4_14TreeSimilarity22sequence_edit_distance
FN:86,_RNvMs_NtNtCs2Eyh5DnjbiX_9cytoscnpy6clones10similarityNtB4_14TreeSimilarity7flatten
FN:22,_RNvXNtNtCs2Eyh5DnjbiX_9cytoscnpy6clones10similarityNtB2_14TreeSimilarityNtNtCsgS7EKHCc5jD_4core7default7Default7default
FN:154,_RNvNtNtNtCs2Eyh5DnjbiX_9cytoscnpy6clones10similarity5tests4node
FN:150,_RNvNtNtNtCs2Eyh5DnjbiX_9cytoscnpy6clones10similarity5tests9make_tree
FN:206,_RNvNtNtNtCs2Eyh5DnjbiX_9cytoscnpy6clones10similarity5testss_27test_classify_by_similarity
FN:163,_RNvNtNtNtCs2Eyh5DnjbiX_9cytoscnpy6clones10similarity5testss_39test_identical_trees_have_zero_distance
FN:186,_RNvNtNtNtCs2Eyh5DnjbiX_9cytoscnpy6clones10similarity5testss_39test_similar_trees_have_high_similarity
FN:176,_RNvNtNtNtCs2Eyh5DnjbiX_9cytoscnpy6clones10similarity5testss_42test_different_trees_have_nonzero_distance
FN:75,_RNvMs_NtNtCs2Eyh5DnjbiX_9cytoscnpy6clones10similarityNtB4_14TreeSimilarity8classify
FNDA:18,_RNvMs_NtNtCsbhXKu17xbPQ_9cytoscnpy6clones10similarityNtB4_14TreeSimilarity10similarity
FNDA:885,_RNvMs_NtNtCsbhXKu17xbPQ_9cytoscnpy6clones10similarityNtB4_14TreeSimilarity12flatten_node
FNDA:27,_RNvMs_NtNtCsbhXKu17xbPQ_9cytoscnpy6clones10similarityNtB4_14TreeSimilarity13edit_distance
FNDA:0,_RNvMs_NtNtCsbhXKu17xbPQ_9cytoscnpy6clones10similarityNtB4_14TreeSimilarity22classify_by_similarity
FNDA:27,_RNvMs_NtNtCsbhXKu17xbPQ_9cytoscnpy6clones10similarityNtB4_14TreeSimilarity22sequence_edit_distance
FNDA:54,_RNvMs_NtNtCsbhXKu17xbPQ_9cytoscnpy6clones10similarityNtB4_14TreeSimilarity7flatten
FNDA:0,_RNvMs_NtNtCsbhXKu17xbPQ_9cytoscnpy6clones10similarityNtB4_14TreeSimilarity8classify
FNDA:16,_RNvXNtNtCsbhXKu17xbPQ_9cytoscnpy6clones10similarityNtB2_14TreeSimilarityNtNtCsgS7EKHCc5jD_4core7default7Default7default
FNDA:2,_RNvMs_NtNtCs2Eyh5DnjbiX_9cytoscnpy6clones10similarityNtB4_14TreeSimilarity10similarity
FNDA:23,_RNvMs_NtNtCs2Eyh5DnjbiX_9cytoscnpy6clones10similarityNtB4_14TreeSimilarity12flatten_node
FNDA:4,_RNvMs_NtNtCs2Eyh5DnjbiX_9cytoscnpy6clones10similarityNtB4_14TreeSimilarity13edit_distance
FNDA:5,_RNvMs_NtNtCs2Eyh5DnjbiX_9cytoscnpy6clones10similarityNtB4_14TreeSimilarity22classify_by_similarity
FNDA:4,_RNvMs_NtNtCs2Eyh5DnjbiX_9cytoscnpy6clones10similarityNtB4_14TreeSimilarity22sequence_edit_distance
FNDA:8,_RNvMs_NtNtCs2Eyh5DnjbiX_9cytoscnpy6clones10similarityNtB4_14TreeSimilarity7flatten
FNDA:4,_RNvXNtNtCs2Eyh5DnjbiX_9cytoscnpy6clones10similarityNtB2_14TreeSimilarityNtNtCsgS7EKHCc5jD_4core7default7Default7default
FNDA:14,_RNvNtNtNtCs2Eyh5DnjbiX_9cytoscnpy6clones10similarity5tests4node
FNDA:5,_RNvNtNtNtCs2Eyh5DnjbiX_9cytoscnpy6clones10similarity5tests9make_tree
FNDA:1,_RNvNtNtNtCs2Eyh5DnjbiX_9cytoscnpy6clones10similarity5testss_27test_classify_by_similarity
FNDA:1,_RNvNtNtNtCs2Eyh5DnjbiX_9cytoscnpy6clones10similarity5testss_39test_identical_trees_have_zero_distance
FNDA:1,_RNvNtNtNtCs2Eyh5DnjbiX_9cytoscnpy6clones10similarity5testss_39test_similar_trees_have_high_similarity
FNDA:1,_RNvNtNtNtCs2Eyh5DnjbiX_9cytoscnpy6clones10similarity5testss_42test_different_trees_have_nonzero_distance
FNDA:0,_RNvMs_NtNtCs2Eyh5DnjbiX_9cytoscnpy6clones10similarityNtB4_14TreeSimilarity8classify
FNF:14
FNH:13
DA:22,20
DA:23,20
DA:24,20
DA:25,20
DA:26,20
DA:27,20
DA:28,20
DA:36,31
DA:38,31
DA:39,31
DA:42,31
DA:43,31
DA:48,20
DA:49,20
DA:50,20
DA:52,20
DA:53,0
DA:54,20
DA:56,20
DA:57,20
DA:62,5
DA:63,5
DA:64,2
DA:65,3
DA:66,1
DA:68,2
DA:70,5
DA:75,0
DA:76,0
DA:77,0
DA:78,0
DA:79,0
DA:81,0
DA:83,0
DA:86,62
DA:87,62
DA:88,232
DA:89,170
DA:90,170
DA:91,62
DA:92,62
DA:95,908
DA:96,908
DA:97,1646
DA:98,738
DA:99,738
DA:100,908
DA:103,31
DA:104,31
DA:105,31
DA:106,31
DA:107,31
DA:108,31
DA:109,31
DA:112,31
DA:115,471
DA:116,471
DA:117,471
DA:118,499
DA:119,499
DA:120,499
DA:123,440
DA:124,14545
DA:125,14545
DA:126,14545
DA:128,14545
DA:129,1015
DA:130,13530
DA:131,1758
DA:133,11772
DA:136,14545
DA:137,14545
DA:138,14545
DA:142,31
DA:143,31
DA:150,5
DA:151,5
DA:152,5
DA:154,14
DA:155,14
DA:156,14
DA:157,14
DA:158,14
DA:159,14
DA:160,14
DA:163,1
DA:164,1
DA:165,1
DA:166,1
DA:167,1
DA:168,1
DA:171,1
DA:172,1
DA:173,1
DA:176,1
DA:177,1
DA:178,1
DA:179,1
DA:181,1
DA:182,1
DA:183,1
DA:186,1
DA:187,1
DA:188,1
DA:189,1
DA:190,1
DA:191,1
DA:193,1
DA:194,1
DA:195,1
DA:196,1
DA:197,1
DA:200,1
DA:201,1
DA:202,1
DA:203,1
DA:206,1
DA:207,1
DA:209,1
DA:210,1
DA:211,1
DA:212,1
DA:213,1
DA:214,1
BRF:0
BRH:0
LF:124
LH:116
end_of_record
SF:E:\Github\CytoScnPy\cytoscnpy\src\clones\types.rs
FN:144,_RNCNvMs0_NtNtCsbhXKu17xbPQ_9cytoscnpy6clones5typesNtB7_10CloneGroup10duplicates0Bb_
FN:135,_RNCNvMs0_NtNtCsbhXKu17xbPQ_9cytoscnpy6clones5typesNtB7_10CloneGroup9canonical0Bb_
FN:284,_RNCNvMs2_NtNtCsbhXKu17xbPQ_9cytoscnpy6clones5typesNtB7_12CloneFinding9from_pair0Bb_
FN:30,_RNvMNtNtCsbhXKu17xbPQ_9cytoscnpy6clones5typesNtB2_9CloneType10short_name
FN:20,_RNvMNtNtCsbhXKu17xbPQ_9cytoscnpy6clones5typesNtB2_9CloneType12display_name
FN:40,_RNvMNtNtCsbhXKu17xbPQ_9cytoscnpy6clones5typesNtB2_9CloneType16confidence_bonus
FN:140,_RNvMs0_NtNtCsbhXKu17xbPQ_9cytoscnpy6clones5typesNtB5_10CloneGroup10duplicates
FN:134,_RNvMs0_NtNtCsbhXKu17xbPQ_9cytoscnpy6clones5typesNtB5_10CloneGroup9canonical
FN:173,_RNvMs1_NtNtCsbhXKu17xbPQ_9cytoscnpy6clones5typesNtB5_12CloneSummary11from_groups
FN:267,_RNvMs2_NtNtCsbhXKu17xbPQ_9cytoscnpy6clones5typesNtB5_12CloneFinding9from_pair
FN:101,_RNvMs_NtNtCsbhXKu17xbPQ_9cytoscnpy6clones5typesNtB4_9ClonePair12is_same_file
FN:107,_RNvMs_NtNtCsbhXKu17xbPQ_9cytoscnpy6clones5typesNtB4_9ClonePair9canonical
FN:144,_RNCNvMs0_NtNtCs2Eyh5DnjbiX_9cytoscnpy6clones5typesNtB7_10CloneGroup10duplicates0Bb_
FN:135,_RNCNvMs0_NtNtCs2Eyh5DnjbiX_9cytoscnpy6clones5typesNtB7_10CloneGroup9canonical0Bb_
FN:30,_RNvMNtNtCs2Eyh5DnjbiX_9cytoscnpy6clones5typesNtB2_9CloneType10short_name
FN:140,_RNvMs0_NtNtCs2Eyh5DnjbiX_9cytoscnpy6clones5typesNtB5_10CloneGroup10duplicates
FN:134,_RNvMs0_NtNtCs2Eyh5DnjbiX_9cytoscnpy6clones5typesNtB5_10CloneGroup9canonical
FN:107,_RNvMs_NtNtCs2Eyh5DnjbiX_9cytoscnpy6clones5typesNtB4_9ClonePair9canonical
FN:284,_RNCNvMs2_NtNtCs2Eyh5DnjbiX_9cytoscnpy6clones5typesNtB7_12CloneFinding9from_pair0Bb_
FN:20,_RNvMNtNtCs2Eyh5DnjbiX_9cytoscnpy6clones5typesNtB2_9CloneType12display_name
FN:40,_RNvMNtNtCs2Eyh5DnjbiX_9cytoscnpy6clones5typesNtB2_9CloneType16confidence_bonus
FN:173,_RNvMs1_NtNtCs2Eyh5DnjbiX_9cytoscnpy6clones5typesNtB5_12CloneSummary11from_groups
FN:267,_RNvMs2_NtNtCs2Eyh5DnjbiX_9cytoscnpy6clones5typesNtB5_12CloneFinding9from_pair
FN:101,_RNvMs_NtNtCs2Eyh5DnjbiX_9cytoscnpy6clones5typesNtB4_9ClonePair12is_same_file
FNDA:2,_RNCNvMs0_NtNtCsbhXKu17xbPQ_9cytoscnpy6clones5typesNtB7_10CloneGroup10duplicates0Bb_
FNDA:1,_RNCNvMs0_NtNtCsbhXKu17xbPQ_9cytoscnpy6clones5typesNtB7_10CloneGroup9canonical0Bb_
FNDA:10,_RNCNvMs2_NtNtCsbhXKu17xbPQ_9cytoscnpy6clones5typesNtB7_12CloneFinding9from_pair0Bb_
FNDA:0,_RNvMNtNtCsbhXKu17xbPQ_9cytoscnpy6clones5typesNtB2_9CloneType10short_name
FNDA:3,_RNvMNtNtCsbhXKu17xbPQ_9cytoscnpy6clones5typesNtB2_9CloneType12display_name
FNDA:13,_RNvMNtNtCsbhXKu17xbPQ_9cytoscnpy6clones5typesNtB2_9CloneType16confidence_bonus
FNDA:1,_RNvMs0_NtNtCsbhXKu17xbPQ_9cytoscnpy6clones5typesNtB5_10CloneGroup10duplicates
FNDA:1,_RNvMs0_NtNtCsbhXKu17xbPQ_9cytoscnpy6clones5typesNtB5_10CloneGroup9canonical
FNDA:18,_RNvMs1_NtNtCsbhXKu17xbPQ_9cytoscnpy6clones5typesNtB5_12CloneSummary11from_groups
FNDA:10,_RNvMs2_NtNtCsbhXKu17xbPQ_9cytoscnpy6clones5typesNtB5_12CloneFinding9from_pair
FNDA:10,_RNvMs_NtNtCsbhXKu17xbPQ_9cytoscnpy6clones5typesNtB4_9ClonePair12is_same_file
FNDA:1,_RNvMs_NtNtCsbhXKu17xbPQ_9cytoscnpy6clones5typesNtB4_9ClonePair9canonical
FNDA:0,_RNCNvMs0_NtNtCs2Eyh5DnjbiX_9cytoscnpy6clones5typesNtB7_10CloneGroup10duplicates0Bb_
FNDA:0,_RNCNvMs0_NtNtCs2Eyh5DnjbiX_9cytoscnpy6clones5typesNtB7_10CloneGroup9canonical0Bb_
FNDA:0,_RNvMNtNtCs2Eyh5DnjbiX_9cytoscnpy6clones5typesNtB2_9CloneType10short_name
FNDA:0,_RNvMs0_NtNtCs2Eyh5DnjbiX_9cytoscnpy6clones5typesNtB5_10CloneGroup10duplicates
FNDA:0,_RNvMs0_NtNtCs2Eyh5DnjbiX_9cytoscnpy6clones5typesNtB5_10CloneGroup9canonical
FNDA:0,_RNvMs_NtNtCs2Eyh5DnjbiX_9cytoscnpy6clones5typesNtB4_9ClonePair9canonical
FNDA:0,_RNCNvMs2_NtNtCs2Eyh5DnjbiX_9cytoscnpy6clones5typesNtB7_12CloneFinding9from_pair0Bb_
FNDA:0,_RNvMNtNtCs2Eyh5DnjbiX_9cytoscnpy6clones5typesNtB2_9CloneType12display_name
FNDA:2,_RNvMNtNtCs2Eyh5DnjbiX_9cytoscnpy6clones5typesNtB2_9CloneType16confidence_bonus
FNDA:0,_RNvMs1_NtNtCs2Eyh5DnjbiX_9cytoscnpy6clones5typesNtB5_12CloneSummary11from_groups
FNDA:0,_RNvMs2_NtNtCs2Eyh5DnjbiX_9cytoscnpy6clones5typesNtB5_12CloneFinding9from_pair
FNDA:0,_RNvMs_NtNtCs2Eyh5DnjbiX_9cytoscnpy6clones5typesNtB4_9ClonePair12is_same_file
FNF:12
FNH:11
DA:20,3
DA:21,3
DA:22,3
DA:23,0
DA:24,0
DA:26,3
DA:30,0
DA:31,0
DA:32,0
DA:33,0
DA:34,0
DA:36,0
DA:40,15
DA:41,15
DA:42,10
DA:43,1
DA:44,4
DA:46,15
DA:101,10
DA:102,10
DA:103,10
DA:107,1
DA:108,1
DA:109,0
DA:111,1
DA:113,1
DA:134,1
DA:135,1
DA:136,1
DA:140,1
DA:141,1
DA:142,1
DA:143,1
DA:144,2
DA:145,1
DA:146,1
DA:147,1
DA:173,18
DA:176,18
DA:177,18
DA:178,18
DA:179,18
DA:180,18
DA:181,18
DA:183,20
DA:184,2
DA:185,1
DA:186,1
DA:187,0
DA:190,5
DA:191,3
DA:192,3
DA:193,3
DA:194,3
DA:198,18
DA:199,18
DA:200,18
DA:201,18
DA:202,18
DA:203,18
DA:204,18
DA:205,1
DA:207,17
DA:210,18
DA:267,10
DA:268,10
DA:269,5
DA:271,5
DA:274,10
DA:275,9
DA:276,1
DA:277,0
DA:281,10
DA:282,10
DA:283,10
DA:284,10
DA:285,10
DA:286,10
DA:287,10
DA:289,10
DA:290,5
DA:291,5
DA:295,5
DA:298,5
DA:299,5
DA:303,5
DA:308,10
DA:309,10
DA:310,10
DA:311,9
DA:312,1
DA:313,0
DA:316,10
DA:317,10
DA:318,5
DA:320,5
DA:322,10
DA:323,10
DA:324,10
DA:325,10
DA:326,10
DA:327,10
DA:328,10
DA:329,10
DA:330,10
DA:331,10
DA:332,10
DA:333,10
DA:334,10
DA:335,10
DA:336,10
DA:337,10
DA:338,10
DA:339,10
DA:341,10
BRF:0
BRH:0
LF:118
LH:106
end_of_record
SF:E:\Github\CytoScnPy\cytoscnpy\src\commands\cc.rs
FN:61,_RNvXNtNtCsbhXKu17xbPQ_9cytoscnpy8commands2ccNtB2_8CcResultNtNtB4_5utils7HasRank4rank
FN:72,_RINvNtNtCsbhXKu17xbPQ_9cytoscnpy8commands2cc6run_ccQNtNtNtCslP1BYCnN0Ot_3std2io5stdio6StdoutEB6_
FN:78,_RNCINvNtNtCsbhXKu17xbPQ_9cytoscnpy8commands2cc6run_ccQNtNtNtCslP1BYCnN0Ot_3std2io5stdio6StdoutE0B8_
FN:124,_RNCINvNtNtCsbhXKu17xbPQ_9cytoscnpy8commands2cc6run_ccQNtNtNtCslP1BYCnN0Ot_3std2io5stdio6StdoutEs0_0B8_
FN:125,_RNCINvNtNtCsbhXKu17xbPQ_9cytoscnpy8commands2cc6run_ccQNtNtNtCslP1BYCnN0Ot_3std2io5stdio6StdoutEs1_0B8_
FN:126,_RNCINvNtNtCsbhXKu17xbPQ_9cytoscnpy8commands2cc6run_ccQNtNtNtCslP1BYCnN0Ot_3std2io5stdio6StdoutEs2_0B8_
FN:102,_RNCINvNtNtCsbhXKu17xbPQ_9cytoscnpy8commands2cc6run_ccQNtNtNtCslP1BYCnN0Ot_3std2io5stdio6StdoutEs_0B8_
FN:87,_RNCNCINvNtNtCsbhXKu17xbPQ_9cytoscnpy8commands2cc6run_ccQNtNtNtCslP1BYCnN0Ot_3std2io5stdio6StdoutE00Ba_
FN:72,_RINvNtNtCsbhXKu17xbPQ_9cytoscnpy8commands2cc6run_ccQINtNtCs1S013FBku8r_5alloc3vec3VechEECsk4WInR7jcT_18absolute_path_test
FN:78,_RNCINvNtNtCsbhXKu17xbPQ_9cytoscnpy8commands2cc6run_ccQINtNtCs1S013FBku8r_5alloc3vec3VechEE0Csk4WInR7jcT_18absolute_path_test
FN:124,_RNCINvNtNtCsbhXKu17xbPQ_9cytoscnpy8commands2cc6run_ccQINtNtCs1S013FBku8r_5alloc3vec3VechEEs0_0Csk4WInR7jcT_18absolute_path_test
FN:125,_RNCINvNtNtCsbhXKu17xbPQ_9cytoscnpy8commands2cc6run_ccQINtNtCs1S013FBku8r_5alloc3vec3VechEEs1_0Csk4WInR7jcT_18absolute_path_test
FN:126,_RNCINvNtNtCsbhXKu17xbPQ_9cytoscnpy8commands2cc6run_ccQINtNtCs1S013FBku8r_5alloc3vec3VechEEs2_0Csk4WInR7jcT_18absolute_path_test
FN:102,_RNCINvNtNtCsbhXKu17xbPQ_9cytoscnpy8commands2cc6run_ccQINtNtCs1S013FBku8r_5alloc3vec3VechEEs_0Csk4WInR7jcT_18absolute_path_test
FN:87,_RNCNCINvNtNtCsbhXKu17xbPQ_9cytoscnpy8commands2cc6run_ccQINtNtCs1S013FBku8r_5alloc3vec3VechEE00Csk4WInR7jcT_18absolute_path_test
FN:72,_RINvNtNtCsbhXKu17xbPQ_9cytoscnpy8commands2cc6run_ccQINtNtCs1S013FBku8r_5alloc3vec3VechEECs7iDxd3mzZu1_14cli_flags_test
FN:78,_RNCINvNtNtCsbhXKu17xbPQ_9cytoscnpy8commands2cc6run_ccQINtNtCs1S013FBku8r_5alloc3vec3VechEE0Cs7iDxd3mzZu1_14cli_flags_test
FN:124,_RNCINvNtNtCsbhXKu17xbPQ_9cytoscnpy8commands2cc6run_ccQINtNtCs1S013FBku8r_5alloc3vec3VechEEs0_0Cs7iDxd3mzZu1_14cli_flags_test
FN:125,_RNCINvNtNtCsbhXKu17xbPQ_9cytoscnpy8commands2cc6run_ccQINtNtCs1S013FBku8r_5alloc3vec3VechEEs1_0Cs7iDxd3mzZu1_14cli_flags_test
FN:126,_RNCINvNtNtCsbhXKu17xbPQ_9cytoscnpy8commands2cc6run_ccQINtNtCs1S013FBku8r_5alloc3vec3VechEEs2_0Cs7iDxd3mzZu1_14cli_flags_test
FN:102,_RNCINvNtNtCsbhXKu17xbPQ_9cytoscnpy8commands2cc6run_ccQINtNtCs1S013FBku8r_5alloc3vec3VechEEs_0Cs7iDxd3mzZu1_14cli_flags_test
FN:87,_RNCNCINvNtNtCsbhXKu17xbPQ_9cytoscnpy8commands2cc6run_ccQINtNtCs1S013FBku8r_5alloc3vec3VechEE00Cs7iDxd3mzZu1_14cli_flags_test
FN:72,_RINvNtNtCsbhXKu17xbPQ_9cytoscnpy8commands2cc6run_ccQINtNtCs1S013FBku8r_5alloc3vec3VechEECs6VGBe2Euocw_13cli_json_test
FN:78,_RNCINvNtNtCsbhXKu17xbPQ_9cytoscnpy8commands2cc6run_ccQINtNtCs1S013FBku8r_5alloc3vec3VechEE0Cs6VGBe2Euocw_13cli_json_test
FN:124,_RNCINvNtNtCsbhXKu17xbPQ_9cytoscnpy8commands2cc6run_ccQINtNtCs1S013FBku8r_5alloc3vec3VechEEs0_0Cs6VGBe2Euocw_13cli_json_test
FN:125,_RNCINvNtNtCsbhXKu17xbPQ_9cytoscnpy8commands2cc6run_ccQINtNtCs1S013FBku8r_5alloc3vec3VechEEs1_0Cs6VGBe2Euocw_13cli_json_test
FN:126,_RNCINvNtNtCsbhXKu17xbPQ_9cytoscnpy8commands2cc6run_ccQINtNtCs1S013FBku8r_5alloc3vec3VechEEs2_0Cs6VGBe2Euocw_13cli_json_test
FN:102,_RNCINvNtNtCsbhXKu17xbPQ_9cytoscnpy8commands2cc6run_ccQINtNtCs1S013FBku8r_5alloc3vec3VechEEs_0Cs6VGBe2Euocw_13cli_json_test
FN:87,_RNCNCINvNtNtCsbhXKu17xbPQ_9cytoscnpy8commands2cc6run_ccQINtNtCs1S013FBku8r_5alloc3vec3VechEE00Cs6VGBe2Euocw_13cli_json_test
FN:72,_RINvNtNtCsbhXKu17xbPQ_9cytoscnpy8commands2cc6run_ccQINtNtCs1S013FBku8r_5alloc3vec3VechEECsg3hQ6IUqp3w_16cli_metrics_test
FN:78,_RNCINvNtNtCsbhXKu17xbPQ_9cytoscnpy8commands2cc6run_ccQINtNtCs1S013FBku8r_5alloc3vec3VechEE0Csg3hQ6IUqp3w_16cli_metrics_test
FN:124,_RNCINvNtNtCsbhXKu17xbPQ_9cytoscnpy8commands2cc6run_ccQINtNtCs1S013FBku8r_5alloc3vec3VechEEs0_0Csg3hQ6IUqp3w_16cli_metrics_test
FN:125,_RNCINvNtNtCsbhXKu17xbPQ_9cytoscnpy8commands2cc6run_ccQINtNtCs1S013FBku8r_5alloc3vec3VechEEs1_0Csg3hQ6IUqp3w_16cli_metrics_test
FN:126,_RNCINvNtNtCsbhXKu17xbPQ_9cytoscnpy8commands2cc6run_ccQINtNtCs1S013FBku8r_5alloc3vec3VechEEs2_0Csg3hQ6IUqp3w_16cli_metrics_test
FN:102,_RNCINvNtNtCsbhXKu17xbPQ_9cytoscnpy8commands2cc6run_ccQINtNtCs1S013FBku8r_5alloc3vec3VechEEs_0Csg3hQ6IUqp3w_16cli_metrics_test
FN:87,_RNCNCINvNtNtCsbhXKu17xbPQ_9cytoscnpy8commands2cc6run_ccQINtNtCs1S013FBku8r_5alloc3vec3VechEE00Csg3hQ6IUqp3w_16cli_metrics_test
FN:61,_RNvXNtNtCs2Eyh5DnjbiX_9cytoscnpy8commands2ccNtB2_8CcResultNtNtB4_5utils7HasRank4rank
FN:72,_RINvNtNtCs2Eyh5DnjbiX_9cytoscnpy8commands2cc6run_ccQNtNtNtCslP1BYCnN0Ot_3std2io5stdio6StdoutEB6_
FN:78,_RNCINvNtNtCs2Eyh5DnjbiX_9cytoscnpy8commands2cc6run_ccQNtNtNtCslP1BYCnN0Ot_3std2io5stdio6StdoutE0B8_
FN:124,_RNCINvNtNtCs2Eyh5DnjbiX_9cytoscnpy8commands2cc6run_ccQNtNtNtCslP1BYCnN0Ot_3std2io5stdio6StdoutEs0_0B8_
FN:125,_RNCINvNtNtCs2Eyh5DnjbiX_9cytoscnpy8commands2cc6run_ccQNtNtNtCslP1BYCnN0Ot_3std2io5stdio6StdoutEs1_0B8_
FN:126,_RNCINvNtNtCs2Eyh5DnjbiX_9cytoscnpy8commands2cc6run_ccQNtNtNtCslP1BYCnN0Ot_3std2io5stdio6StdoutEs2_0B8_
FN:102,_RNCINvNtNtCs2Eyh5DnjbiX_9cytoscnpy8commands2cc6run_ccQNtNtNtCslP1BYCnN0Ot_3std2io5stdio6StdoutEs_0B8_
FN:87,_RNCNCINvNtNtCs2Eyh5DnjbiX_9cytoscnpy8commands2cc6run_ccQNtNtNtCslP1BYCnN0Ot_3std2io5stdio6StdoutE00Ba_
FN:72,_RINvNtNtCsbhXKu17xbPQ_9cytoscnpy8commands2cc6run_ccQINtNtCs1S013FBku8r_5alloc3vec3VechEECs5uXW1tGmheJ_20entry_point_cli_test
FN:78,_RNCINvNtNtCsbhXKu17xbPQ_9cytoscnpy8commands2cc6run_ccQINtNtCs1S013FBku8r_5alloc3vec3VechEE0Cs5uXW1tGmheJ_20entry_point_cli_test
FN:124,_RNCINvNtNtCsbhXKu17xbPQ_9cytoscnpy8commands2cc6run_ccQINtNtCs1S013FBku8r_5alloc3vec3VechEEs0_0Cs5uXW1tGmheJ_20entry_point_cli_test
FN:125,_RNCINvNtNtCsbhXKu17xbPQ_9cytoscnpy8commands2cc6run_ccQINtNtCs1S013FBku8r_5alloc3vec3VechEEs1_0Cs5uXW1tGmheJ_20entry_point_cli_test
FN:126,_RNCINvNtNtCsbhXKu17xbPQ_9cytoscnpy8commands2cc6run_ccQINtNtCs1S013FBku8r_5alloc3vec3VechEEs2_0Cs5uXW1tGmheJ_20entry_point_cli_test
FN:102,_RNCINvNtNtCsbhXKu17xbPQ_9cytoscnpy8commands2cc6run_ccQINtNtCs1S013FBku8r_5alloc3vec3VechEEs_0Cs5uXW1tGmheJ_20entry_point_cli_test
FN:87,_RNCNCINvNtNtCsbhXKu17xbPQ_9cytoscnpy8commands2cc6run_ccQINtNtCs1S013FBku8r_5alloc3vec3VechEE00Cs5uXW1tGmheJ_20entry_point_cli_test
FN:72,_RINvNtNtCsbhXKu17xbPQ_9cytoscnpy8commands2cc6run_ccQINtNtCs1S013FBku8r_5alloc3vec3VechEECs42cSN1H4Ayx_13cytoscnpy_mcp
FN:78,_RNCINvNtNtCsbhXKu17xbPQ_9cytoscnpy8commands2cc6run_ccQINtNtCs1S013FBku8r_5alloc3vec3VechEE0Cs42cSN1H4Ayx_13cytoscnpy_mcp
FN:124,_RNCINvNtNtCsbhXKu17xbPQ_9cytoscnpy8commands2cc6run_ccQINtNtCs1S013FBku8r_5alloc3vec3VechEEs0_0Cs42cSN1H4Ayx_13cytoscnpy_mcp
FN:125,_RNCINvNtNtCsbhXKu17xbPQ_9cytoscnpy8commands2cc6run_ccQINtNtCs1S013FBku8r_5alloc3vec3VechEEs1_0Cs42cSN1H4Ayx_13cytoscnpy_mcp
FN:126,_RNCINvNtNtCsbhXKu17xbPQ_9cytoscnpy8commands2cc6run_ccQINtNtCs1S013FBku8r_5alloc3vec3VechEEs2_0Cs42cSN1H4Ayx_13cytoscnpy_mcp
FN:102,_RNCINvNtNtCsbhXKu17xbPQ_9cytoscnpy8commands2cc6run_ccQINtNtCs1S013FBku8r_5alloc3vec3VechEEs_0Cs42cSN1H4Ayx_13cytoscnpy_mcp
FN:87,_RNCNCINvNtNtCsbhXKu17xbPQ_9cytoscnpy8commands2cc6run_ccQINtNtCs1S013FBku8r_5alloc3vec3VechEE00Cs42cSN1H4Ayx_13cytoscnpy_mcp
FN:72,_RINvNtNtCsbhXKu17xbPQ_9cytoscnpy8commands2cc6run_ccQINtNtCs1S013FBku8r_5alloc3vec3VechEECsdWd4hUIhEqZ_14root_flag_test
FN:78,_RNCINvNtNtCsbhXKu17xbPQ_9cytoscnpy8commands2cc6run_ccQINtNtCs1S013FBku8r_5alloc3vec3VechEE0CsdWd4hUIhEqZ_14root_flag_test
FN:124,_RNCINvNtNtCsbhXKu17xbPQ_9cytoscnpy8commands2cc6run_ccQINtNtCs1S013FBku8r_5alloc3vec3VechEEs0_0CsdWd4hUIhEqZ_14root_flag_test
FN:125,_RNCINvNtNtCsbhXKu17xbPQ_9cytoscnpy8commands2cc6run_ccQINtNtCs1S013FBku8r_5alloc3vec3VechEEs1_0CsdWd4hUIhEqZ_14root_flag_test
FN:126,_RNCINvNtNtCsbhXKu17xbPQ_9cytoscnpy8commands2cc6run_ccQINtNtCs1S013FBku8r_5alloc3vec3VechEEs2_0CsdWd4hUIhEqZ_14root_flag_test
FN:102,_RNCINvNtNtCsbhXKu17xbPQ_9cytoscnpy8commands2cc6run_ccQINtNtCs1S013FBku8r_5alloc3vec3VechEEs_0CsdWd4hUIhEqZ_14root_flag_test
FN:87,_RNCNCINvNtNtCsbhXKu17xbPQ_9cytoscnpy8commands2cc6run_ccQINtNtCs1S013FBku8r_5alloc3vec3VechEE00CsdWd4hUIhEqZ_14root_flag_test
FNDA:12,_RNvXNtNtCsbhXKu17xbPQ_9cytoscnpy8commands2ccNtB2_8CcResultNtNtB4_5utils7HasRank4rank
FNDA:0,_RINvNtNtCsbhXKu17xbPQ_9cytoscnpy8commands2cc6run_ccQNtNtNtCslP1BYCnN0Ot_3std2io5stdio6StdoutEB6_
FNDA:0,_RNCINvNtNtCsbhXKu17xbPQ_9cytoscnpy8commands2cc6run_ccQNtNtNtCslP1BYCnN0Ot_3std2io5stdio6StdoutE0B8_
FNDA:0,_RNCINvNtNtCsbhXKu17xbPQ_9cytoscnpy8commands2cc6run_ccQNtNtNtCslP1BYCnN0Ot_3std2io5stdio6StdoutEs0_0B8_
FNDA:0,_RNCINvNtNtCsbhXKu17xbPQ_9cytoscnpy8commands2cc6run_ccQNtNtNtCslP1BYCnN0Ot_3std2io5stdio6StdoutEs1_0B8_
FNDA:0,_RNCINvNtNtCsbhXKu17xbPQ_9cytoscnpy8commands2cc6run_ccQNtNtNtCslP1BYCnN0Ot_3std2io5stdio6StdoutEs2_0B8_
FNDA:0,_RNCINvNtNtCsbhXKu17xbPQ_9cytoscnpy8commands2cc6run_ccQNtNtNtCslP1BYCnN0Ot_3std2io5stdio6StdoutEs_0B8_
FNDA:0,_RNCNCINvNtNtCsbhXKu17xbPQ_9cytoscnpy8commands2cc6run_ccQNtNtNtCslP1BYCnN0Ot_3std2io5stdio6StdoutE00Ba_
FNDA:0,_RINvNtNtCsbhXKu17xbPQ_9cytoscnpy8commands2cc6run_ccQINtNtCs1S013FBku8r_5alloc3vec3VechEECsk4WInR7jcT_18absolute_path_test
FNDA:0,_RNCINvNtNtCsbhXKu17xbPQ_9cytoscnpy8commands2cc6run_ccQINtNtCs1S013FBku8r_5alloc3vec3VechEE0Csk4WInR7jcT_18absolute_path_test
FNDA:0,_RNCINvNtNtCsbhXKu17xbPQ_9cytoscnpy8commands2cc6run_ccQINtNtCs1S013FBku8r_5alloc3vec3VechEEs0_0Csk4WInR7jcT_18absolute_path_test
FNDA:0,_RNCINvNtNtCsbhXKu17xbPQ_9cytoscnpy8commands2cc6run_ccQINtNtCs1S013FBku8r_5alloc3vec3VechEEs1_0Csk4WInR7jcT_18absolute_path_test
FNDA:0,_RNCINvNtNtCsbhXKu17xbPQ_9cytoscnpy8commands2cc6run_ccQINtNtCs1S013FBku8r_5alloc3vec3VechEEs2_0Csk4WInR7jcT_18absolute_path_test
FNDA:0,_RNCINvNtNtCsbhXKu17xbPQ_9cytoscnpy8commands2cc6run_ccQINtNtCs1S013FBku8r_5alloc3vec3VechEEs_0Csk4WInR7jcT_18absolute_path_test
FNDA:0,_RNCNCINvNtNtCsbhXKu17xbPQ_9cytoscnpy8commands2cc6run_ccQINtNtCs1S013FBku8r_5alloc3vec3VechEE00Csk4WInR7jcT_18absolute_path_test
FNDA:3,_RINvNtNtCsbhXKu17xbPQ_9cytoscnpy8commands2cc6run_ccQINtNtCs1S013FBku8r_5alloc3vec3VechEECs7iDxd3mzZu1_14cli_flags_test
FNDA:3,_RNCINvNtNtCsbhXKu17xbPQ_9cytoscnpy8commands2cc6run_ccQINtNtCs1S013FBku8r_5alloc3vec3VechEE0Cs7iDxd3mzZu1_14cli_flags_test
FNDA:0,_RNCINvNtNtCsbhXKu17xbPQ_9cytoscnpy8commands2cc6run_ccQINtNtCs1S013FBku8r_5alloc3vec3VechEEs0_0Cs7iDxd3mzZu1_14cli_flags_test
FNDA:0,_RNCINvNtNtCsbhXKu17xbPQ_9cytoscnpy8commands2cc6run_ccQINtNtCs1S013FBku8r_5alloc3vec3VechEEs1_0Cs7iDxd3mzZu1_14cli_flags_test
FNDA:0,_RNCINvNtNtCsbhXKu17xbPQ_9cytoscnpy8commands2cc6run_ccQINtNtCs1S013FBku8r_5alloc3vec3VechEEs2_0Cs7iDxd3mzZu1_14cli_flags_test
FNDA:0,_RNCINvNtNtCsbhXKu17xbPQ_9cytoscnpy8commands2cc6run_ccQINtNtCs1S013FBku8r_5alloc3vec3VechEEs_0Cs7iDxd3mzZu1_14cli_flags_test
FNDA:6,_RNCNCINvNtNtCsbhXKu17xbPQ_9cytoscnpy8commands2cc6run_ccQINtNtCs1S013FBku8r_5alloc3vec3VechEE00Cs7iDxd3mzZu1_14cli_flags_test
FNDA:2,_RINvNtNtCsbhXKu17xbPQ_9cytoscnpy8commands2cc6run_ccQINtNtCs1S013FBku8r_5alloc3vec3VechEECs6VGBe2Euocw_13cli_json_test
FNDA:2,_RNCINvNtNtCsbhXKu17xbPQ_9cytoscnpy8commands2cc6run_ccQINtNtCs1S013FBku8r_5alloc3vec3VechEE0Cs6VGBe2Euocw_13cli_json_test
FNDA:0,_RNCINvNtNtCsbhXKu17xbPQ_9cytoscnpy8commands2cc6run_ccQINtNtCs1S013FBku8r_5alloc3vec3VechEEs0_0Cs6VGBe2Euocw_13cli_json_test
FNDA:0,_RNCINvNtNtCsbhXKu17xbPQ_9cytoscnpy8commands2cc6run_ccQINtNtCs1S013FBku8r_5alloc3vec3VechEEs1_0Cs6VGBe2Euocw_13cli_json_test
FNDA:0,_RNCINvNtNtCsbhXKu17xbPQ_9cytoscnpy8commands2cc6run_ccQINtNtCs1S013FBku8r_5alloc3vec3VechEEs2_0Cs6VGBe2Euocw_13cli_json_test
FNDA:0,_RNCINvNtNtCsbhXKu17xbPQ_9cytoscnpy8commands2cc6run_ccQINtNtCs1S013FBku8r_5alloc3vec3VechEEs_0Cs6VGBe2Euocw_13cli_json_test
FNDA:2,_RNCNCINvNtNtCsbhXKu17xbPQ_9cytoscnpy8commands2cc6run_ccQINtNtCs1S013FBku8r_5alloc3vec3VechEE00Cs6VGBe2Euocw_13cli_json_test
FNDA:1,_RINvNtNtCsbhXKu17xbPQ_9cytoscnpy8commands2cc6run_ccQINtNtCs1S013FBku8r_5alloc3vec3VechEECsg3hQ6IUqp3w_16cli_metrics_test
FNDA:1,_RNCINvNtNtCsbhXKu17xbPQ_9cytoscnpy8commands2cc6run_ccQINtNtCs1S013FBku8r_5alloc3vec3VechEE0Csg3hQ6IUqp3w_16cli_metrics_test
FNDA:0,_RNCINvNtNtCsbhXKu17xbPQ_9cytoscnpy8commands2cc6run_ccQINtNtCs1S013FBku8r_5alloc3vec3VechEEs0_0Csg3hQ6IUqp3w_16cli_metrics_test
FNDA:0,_RNCINvNtNtCsbhXKu17xbPQ_9cytoscnpy8commands2cc6run_ccQINtNtCs1S013FBku8r_5alloc3vec3VechEEs1_0Csg3hQ6IUqp3w_16cli_metrics_test
FNDA:0,_RNCINvNtNtCsbhXKu17xbPQ_9cytoscnpy8commands2cc6run_ccQINtNtCs1S013FBku8r_5alloc3vec3VechEEs2_0Csg3hQ6IUqp3w_16cli_metrics_test
FNDA:0,_RNCINvNtNtCsbhXKu17xbPQ_9cytoscnpy8commands2cc6run_ccQINtNtCs1S013FBku8r_5alloc3vec3VechEEs_0Csg3hQ6IUqp3w_16cli_metrics_test
FNDA:1,_RNCNCINvNtNtCsbhXKu17xbPQ_9cytoscnpy8commands2cc6run_ccQINtNtCs1S013FBku8r_5alloc3vec3VechEE00Csg3hQ6IUqp3w_16cli_metrics_test
FNDA:0,_RNvXNtNtCs2Eyh5DnjbiX_9cytoscnpy8commands2ccNtB2_8CcResultNtNtB4_5utils7HasRank4rank
FNDA:0,_RINvNtNtCs2Eyh5DnjbiX_9cytoscnpy8commands2cc6run_ccQNtNtNtCslP1BYCnN0Ot_3std2io5stdio6StdoutEB6_
FNDA:0,_RNCINvNtNtCs2Eyh5DnjbiX_9cytoscnpy8commands2cc6run_ccQNtNtNtCslP1BYCnN0Ot_3std2io5stdio6StdoutE0B8_
FNDA:0,_RNCINvNtNtCs2Eyh5DnjbiX_9cytoscnpy8commands2cc6run_ccQNtNtNtCslP1BYCnN0Ot_3std2io5stdio6StdoutEs0_0B8_
FNDA:0,_RNCINvNtNtCs2Eyh5DnjbiX_9cytoscnpy8commands2cc6run_ccQNtNtNtCslP1BYCnN0Ot_3std2io5stdio6StdoutEs1_0B8_
FNDA:0,_RNCINvNtNtCs2Eyh5DnjbiX_9cytoscnpy8commands2cc6run_ccQNtNtNtCslP1BYCnN0Ot_3std2io5stdio6StdoutEs2_0B8_
FNDA:0,_RNCINvNtNtCs2Eyh5DnjbiX_9cytoscnpy8commands2cc6run_ccQNtNtNtCslP1BYCnN0Ot_3std2io5stdio6StdoutEs_0B8_
FNDA:0,_RNCNCINvNtNtCs2Eyh5DnjbiX_9cytoscnpy8commands2cc6run_ccQNtNtNtCslP1BYCnN0Ot_3std2io5stdio6StdoutE00Ba_
FNDA:1,_RINvNtNtCsbhXKu17xbPQ_9cytoscnpy8commands2cc6run_ccQINtNtCs1S013FBku8r_5alloc3vec3VechEECs5uXW1tGmheJ_20entry_point_cli_test
FNDA:1,_RNCINvNtNtCsbhXKu17xbPQ_9cytoscnpy8commands2cc6run_ccQINtNtCs1S013FBku8r_5alloc3vec3VechEE0Cs5uXW1tGmheJ_20entry_point_cli_test
FNDA:0,_RNCINvNtNtCsbhXKu17xbPQ_9cytoscnpy8commands2cc6run_ccQINtNtCs1S013FBku8r_5alloc3vec3VechEEs0_0Cs5uXW1tGmheJ_20entry_point_cli_test
FNDA:0,_RNCINvNtNtCsbhXKu17xbPQ_9cytoscnpy8commands2cc6run_ccQINtNtCs1S013FBku8r_5alloc3vec3VechEEs1_0Cs5uXW1tGmheJ_20entry_point_cli_test
FNDA:0,_RNCINvNtNtCsbhXKu17xbPQ_9cytoscnpy8commands2cc6run_ccQINtNtCs1S013FBku8r_5alloc3vec3VechEEs2_0Cs5uXW1tGmheJ_20entry_point_cli_test
FNDA:0,_RNCINvNtNtCsbhXKu17xbPQ_9cytoscnpy8commands2cc6run_ccQINtNtCs1S013FBku8r_5alloc3vec3VechEEs_0Cs5uXW1tGmheJ_20entry_point_cli_test
FNDA:1,_RNCNCINvNtNtCsbhXKu17xbPQ_9cytoscnpy8commands2cc6run_ccQINtNtCs1S013FBku8r_5alloc3vec3VechEE00Cs5uXW1tGmheJ_20entry_point_cli_test
FNDA:0,_RINvNtNtCsbhXKu17xbPQ_9cytoscnpy8commands2cc6run_ccQINtNtCs1S013FBku8r_5alloc3vec3VechEECs42cSN1H4Ayx_13cytoscnpy_mcp
FNDA:0,_RNCINvNtNtCsbhXKu17xbPQ_9cytoscnpy8commands2cc6run_ccQINtNtCs1S013FBku8r_5alloc3vec3VechEE0Cs42cSN1H4Ayx_13cytoscnpy_mcp
FNDA:0,_RNCINvNtNtCsbhXKu17xbPQ_9cytoscnpy8commands2cc6run_ccQINtNtCs1S013FBku8r_5alloc3vec3VechEEs0_0Cs42cSN1H4Ayx_13cytoscnpy_mcp
FNDA:0,_RNCINvNtNtCsbhXKu17xbPQ_9cytoscnpy8commands2cc6run_ccQINtNtCs1S013FBku8r_5alloc3vec3VechEEs1_0Cs42cSN1H4Ayx_13cytoscnpy_mcp
FNDA:0,_RNCINvNtNtCsbhXKu17xbPQ_9cytoscnpy8commands2cc6run_ccQINtNtCs1S013FBku8r_5alloc3vec3VechEEs2_0Cs42cSN1H4Ayx_13cytoscnpy_mcp
FNDA:0,_RNCINvNtNtCsbhXKu17xbPQ_9cytoscnpy8commands2cc6run_ccQINtNtCs1S013FBku8r_5alloc3vec3VechEEs_0Cs42cSN1H4Ayx_13cytoscnpy_mcp
FNDA:0,_RNCNCINvNtNtCsbhXKu17xbPQ_9cytoscnpy8commands2cc6run_ccQINtNtCs1S013FBku8r_5alloc3vec3VechEE00Cs42cSN1H4Ayx_13cytoscnpy_mcp
FNDA:1,_RINvNtNtCsbhXKu17xbPQ_9cytoscnpy8commands2cc6run_ccQINtNtCs1S013FBku8r_5alloc3vec3VechEECsdWd4hUIhEqZ_14root_flag_test
FNDA:1,_RNCINvNtNtCsbhXKu17xbPQ_9cytoscnpy8commands2cc6run_ccQINtNtCs1S013FBku8r_5alloc3vec3VechEE0CsdWd4hUIhEqZ_14root_flag_test
FNDA:0,_RNCINvNtNtCsbhXKu17xbPQ_9cytoscnpy8commands2cc6run_ccQINtNtCs1S013FBku8r_5alloc3vec3VechEEs0_0CsdWd4hUIhEqZ_14root_flag_test
FNDA:0,_RNCINvNtNtCsbhXKu17xbPQ_9cytoscnpy8commands2cc6run_ccQINtNtCs1S013FBku8r_5alloc3vec3VechEEs1_0CsdWd4hUIhEqZ_14root_flag_test
FNDA:0,_RNCINvNtNtCsbhXKu17xbPQ_9cytoscnpy8commands2cc6run_ccQINtNtCs1S013FBku8r_5alloc3vec3VechEEs2_0CsdWd4hUIhEqZ_14root_flag_test
FNDA:0,_RNCINvNtNtCsbhXKu17xbPQ_9cytoscnpy8commands2cc6run_ccQINtNtCs1S013FBku8r_5alloc3vec3VechEEs_0CsdWd4hUIhEqZ_14root_flag_test
FNDA:2,_RNCNCINvNtNtCsbhXKu17xbPQ_9cytoscnpy8commands2cc6run_ccQINtNtCs1S013FBku8r_5alloc3vec3VechEE00CsdWd4hUIhEqZ_14root_flag_test
FNF:8
FNH:4
DA:61,12
DA:62,12
DA:63,12
DA:72,8
DA:73,8
DA:74,8
DA:76,8
DA:77,8
DA:78,8
DA:79,8
DA:80,0
DA:81,8
DA:82,8
DA:83,8
DA:84,8
DA:85,8
DA:86,8
DA:87,12
DA:88,12
DA:89,12
DA:90,12
DA:91,12
DA:92,12
DA:93,12
DA:94,8
DA:95,8
DA:96,8
DA:99,8
DA:100,0
DA:101,0
DA:102,0
DA:103,0
DA:104,0
DA:105,0
DA:106,0
DA:108,0
DA:109,0
DA:110,0
DA:111,0
DA:112,0
DA:113,0
DA:114,0
DA:115,0
DA:116,8
DA:119,8
DA:122,8
DA:123,0
DA:124,0
DA:125,0
DA:126,0
DA:127,0
DA:129,8
DA:131,8
DA:132,1
DA:133,1
DA:134,1
DA:135,1
DA:137,0
DA:140,1
DA:141,1
DA:142,1
DA:143,0
DA:144,1
DA:145,7
DA:147,8
DA:148,3
DA:149,3
DA:150,3
DA:151,3
DA:152,0
DA:153,5
DA:155,0
DA:156,0
DA:157,0
DA:158,0
DA:159,0
DA:160,0
DA:161,0
DA:162,0
DA:163,0
DA:164,0
DA:166,5
DA:167,5
DA:168,0
DA:169,5
DA:170,5
DA:171,5
DA:173,12
DA:174,7
DA:175,7
DA:176,0
DA:177,0
DA:178,0
DA:179,0
DA:182,7
DA:183,7
DA:184,7
DA:185,7
DA:186,7
DA:188,7
DA:189,0
DA:190,7
DA:191,7
DA:192,7
DA:194,5
DA:196,8
DA:197,8
BRF:0
BRH:0
LF:112
LH:64
end_of_record
SF:E:\Github\CytoScnPy\cytoscnpy\src\commands\clones.rs
FN:210,_RNvNtNtCsbhXKu17xbPQ_9cytoscnpy8commands6clones18load_matched_files
FN:270,_RNvNtNtCsbhXKu17xbPQ_9cytoscnpy8commands6clones23generate_clone_findings
FN:39,_RNvNtNtCsbhXKu17xbPQ_9cytoscnpy8commands6clones25generate_clone_suggestion
FN:98,_RINvNtNtCsbhXKu17xbPQ_9cytoscnpy8commands6clones10run_clonesQNtNtNtCslP1BYCnN0Ot_3std2io4util4SinkEB6_
FN:98,_RINvNtNtCsbhXKu17xbPQ_9cytoscnpy8commands6clones10run_clonesQNtNtNtCslP1BYCnN0Ot_3std2io5stdio6StdoutEB6_
FN:231,_RINvNtNtCsbhXKu17xbPQ_9cytoscnpy8commands6clones24print_clone_stats_simpleQQNtNtNtCslP1BYCnN0Ot_3std2io4util4SinkEB6_
FN:231,_RINvNtNtCsbhXKu17xbPQ_9cytoscnpy8commands6clones24print_clone_stats_simpleQQNtNtNtCslP1BYCnN0Ot_3std2io5stdio6StdoutEB6_
FN:361,_RINvNtNtCsbhXKu17xbPQ_9cytoscnpy8commands6clones26apply_clone_fixes_internalQQNtNtNtCslP1BYCnN0Ot_3std2io4util4SinkEB6_
FN:361,_RINvNtNtCsbhXKu17xbPQ_9cytoscnpy8commands6clones26apply_clone_fixes_internalQQNtNtNtCslP1BYCnN0Ot_3std2io5stdio6StdoutEB6_
FN:163,_RNCINvNtNtCsbhXKu17xbPQ_9cytoscnpy8commands6clones10run_clonesQNtNtNtCslP1BYCnN0Ot_3std2io4util4SinkE0B8_
FN:163,_RNCINvNtNtCsbhXKu17xbPQ_9cytoscnpy8commands6clones10run_clonesQNtNtNtCslP1BYCnN0Ot_3std2io5stdio6StdoutE0B8_
FN:393,_RNCINvNtNtCsbhXKu17xbPQ_9cytoscnpy8commands6clones26apply_clone_fixes_internalQQNtNtNtCslP1BYCnN0Ot_3std2io4util4SinkE0B8_
FN:433,_RNCINvNtNtCsbhXKu17xbPQ_9cytoscnpy8commands6clones26apply_clone_fixes_internalQQNtNtNtCslP1BYCnN0Ot_3std2io4util4SinkEs_0B8_
FN:393,_RNCINvNtNtCsbhXKu17xbPQ_9cytoscnpy8commands6clones26apply_clone_fixes_internalQQNtNtNtCslP1BYCnN0Ot_3std2io5stdio6StdoutE0B8_
FN:433,_RNCINvNtNtCsbhXKu17xbPQ_9cytoscnpy8commands6clones26apply_clone_fixes_internalQQNtNtNtCslP1BYCnN0Ot_3std2io5stdio6StdoutEs_0B8_
FN:293,_RNCNCNCNvNtNtCsbhXKu17xbPQ_9cytoscnpy8commands6clones23generate_clone_findings000Bb_
FN:225,_RNCNCNvNtNtCsbhXKu17xbPQ_9cytoscnpy8commands6clones18load_matched_filess_00B9_
FN:284,_RNCNCNvNtNtCsbhXKu17xbPQ_9cytoscnpy8commands6clones23generate_clone_findings00B9_
FN:216,_RNCNvNtNtCsbhXKu17xbPQ_9cytoscnpy8commands6clones18load_matched_files0B7_
FN:222,_RNCNvNtNtCsbhXKu17xbPQ_9cytoscnpy8commands6clones18load_matched_filess_0B7_
FN:282,_RNCNvNtNtCsbhXKu17xbPQ_9cytoscnpy8commands6clones23generate_clone_findings0B7_
FN:347,_RNCNvNtNtCsbhXKu17xbPQ_9cytoscnpy8commands6clones23generate_clone_findingss0_0B7_
FN:344,_RNCNvNtNtCsbhXKu17xbPQ_9cytoscnpy8commands6clones23generate_clone_findingss_0B7_
FN:98,_RINvNtNtCsbhXKu17xbPQ_9cytoscnpy8commands6clones10run_clonesQINtNtCs1S013FBku8r_5alloc3vec3VechEECsk4WInR7jcT_18absolute_path_test
FN:231,_RINvNtNtCsbhXKu17xbPQ_9cytoscnpy8commands6clones24print_clone_stats_simpleQQINtNtCs1S013FBku8r_5alloc3vec3VechEECsk4WInR7jcT_18absolute_path_test
FN:361,_RINvNtNtCsbhXKu17xbPQ_9cytoscnpy8commands6clones26apply_clone_fixes_internalQQINtNtCs1S013FBku8r_5alloc3vec3VechEECsk4WInR7jcT_18absolute_path_test
FN:163,_RNCINvNtNtCsbhXKu17xbPQ_9cytoscnpy8commands6clones10run_clonesQINtNtCs1S013FBku8r_5alloc3vec3VechEE0Csk4WInR7jcT_18absolute_path_test
FN:393,_RNCINvNtNtCsbhXKu17xbPQ_9cytoscnpy8commands6clones26apply_clone_fixes_internalQQINtNtCs1S013FBku8r_5alloc3vec3VechEE0Csk4WInR7jcT_18absolute_path_test
FN:433,_RNCINvNtNtCsbhXKu17xbPQ_9cytoscnpy8commands6clones26apply_clone_fixes_internalQQINtNtCs1S013FBku8r_5alloc3vec3VechEEs_0Csk4WInR7jcT_18absolute_path_test
FN:98,_RINvNtNtCsbhXKu17xbPQ_9cytoscnpy8commands6clones10run_clonesQINtNtCs1S013FBku8r_5alloc3vec3VechEECsl1vneGevItt_19clones_command_test
FN:231,_RINvNtNtCsbhXKu17xbPQ_9cytoscnpy8commands6clones24print_clone_stats_simpleQQINtNtCs1S013FBku8r_5alloc3vec3VechEECsl1vneGevItt_19clones_command_test
FN:361,_RINvNtNtCsbhXKu17xbPQ_9cytoscnpy8commands6clones26apply_clone_fixes_internalQQINtNtCs1S013FBku8r_5alloc3vec3VechEECsl1vneGevItt_19clones_command_test
FN:163,_RNCINvNtNtCsbhXKu17xbPQ_9cytoscnpy8commands6clones10run_clonesQINtNtCs1S013FBku8r_5alloc3vec3VechEE0Csl1vneGevItt_19clones_command_test
FN:393,_RNCINvNtNtCsbhXKu17xbPQ_9cytoscnpy8commands6clones26apply_clone_fixes_internalQQINtNtCs1S013FBku8r_5alloc3vec3VechEE0Csl1vneGevItt_19clones_command_test
FN:433,_RNCINvNtNtCsbhXKu17xbPQ_9cytoscnpy8commands6clones26apply_clone_fixes_internalQQINtNtCs1S013FBku8r_5alloc3vec3VechEEs_0Csl1vneGevItt_19clones_command_test
FN:98,_RINvNtNtCs2Eyh5DnjbiX_9cytoscnpy8commands6clones10run_clonesQNtNtNtCslP1BYCnN0Ot_3std2io4util4SinkEB6_
FN:98,_RINvNtNtCs2Eyh5DnjbiX_9cytoscnpy8commands6clones10run_clonesQNtNtNtCslP1BYCnN0Ot_3std2io5stdio6StdoutEB6_
FN:231,_RINvNtNtCs2Eyh5DnjbiX_9cytoscnpy8commands6clones24print_clone_stats_simpleQQNtNtNtCslP1BYCnN0Ot_3std2io4util4SinkEB6_
FN:231,_RINvNtNtCs2Eyh5DnjbiX_9cytoscnpy8commands6clones24print_clone_stats_simpleQQNtNtNtCslP1BYCnN0Ot_3std2io5stdio6StdoutEB6_
FN:361,_RINvNtNtCs2Eyh5DnjbiX_9cytoscnpy8commands6clones26apply_clone_fixes_internalQQNtNtNtCslP1BYCnN0Ot_3std2io4util4SinkEB6_
FN:361,_RINvNtNtCs2Eyh5DnjbiX_9cytoscnpy8commands6clones26apply_clone_fixes_internalQQNtNtNtCslP1BYCnN0Ot_3std2io5stdio6StdoutEB6_
FN:163,_RNCINvNtNtCs2Eyh5DnjbiX_9cytoscnpy8commands6clones10run_clonesQNtNtNtCslP1BYCnN0Ot_3std2io4util4SinkE0B8_
FN:163,_RNCINvNtNtCs2Eyh5DnjbiX_9cytoscnpy8commands6clones10run_clonesQNtNtNtCslP1BYCnN0Ot_3std2io5stdio6StdoutE0B8_
FN:393,_RNCINvNtNtCs2Eyh5DnjbiX_9cytoscnpy8commands6clones26apply_clone_fixes_internalQQNtNtNtCslP1BYCnN0Ot_3std2io4util4SinkE0B8_
FN:433,_RNCINvNtNtCs2Eyh5DnjbiX_9cytoscnpy8commands6clones26apply_clone_fixes_internalQQNtNtNtCslP1BYCnN0Ot_3std2io4util4SinkEs_0B8_
FN:393,_RNCINvNtNtCs2Eyh5DnjbiX_9cytoscnpy8commands6clones26apply_clone_fixes_internalQQNtNtNtCslP1BYCnN0Ot_3std2io5stdio6StdoutE0B8_
FN:433,_RNCINvNtNtCs2Eyh5DnjbiX_9cytoscnpy8commands6clones26apply_clone_fixes_internalQQNtNtNtCslP1BYCnN0Ot_3std2io5stdio6StdoutEs_0B8_
FN:293,_RNCNCNCNvNtNtCs2Eyh5DnjbiX_9cytoscnpy8commands6clones23generate_clone_findings000Bb_
FN:225,_RNCNCNvNtNtCs2Eyh5DnjbiX_9cytoscnpy8commands6clones18load_matched_filess_00B9_
FN:284,_RNCNCNvNtNtCs2Eyh5DnjbiX_9cytoscnpy8commands6clones23generate_clone_findings00B9_
FN:216,_RNCNvNtNtCs2Eyh5DnjbiX_9cytoscnpy8commands6clones18load_matched_files0B7_
FN:222,_RNCNvNtNtCs2Eyh5DnjbiX_9cytoscnpy8commands6clones18load_matched_filess_0B7_
FN:282,_RNCNvNtNtCs2Eyh5DnjbiX_9cytoscnpy8commands6clones23generate_clone_findings0B7_
FN:347,_RNCNvNtNtCs2Eyh5DnjbiX_9cytoscnpy8commands6clones23generate_clone_findingss0_0B7_
FN:344,_RNCNvNtNtCs2Eyh5DnjbiX_9cytoscnpy8commands6clones23generate_clone_findingss_0B7_
FN:210,_RNvNtNtCs2Eyh5DnjbiX_9cytoscnpy8commands6clones18load_matched_files
FN:270,_RNvNtNtCs2Eyh5DnjbiX_9cytoscnpy8commands6clones23generate_clone_findings
FN:39,_RNvNtNtCs2Eyh5DnjbiX_9cytoscnpy8commands6clones25generate_clone_suggestion
FN:98,_RINvNtNtCsbhXKu17xbPQ_9cytoscnpy8commands6clones10run_clonesQINtNtCs1S013FBku8r_5alloc3vec3VechEECs5uXW1tGmheJ_20entry_point_cli_test
FN:231,_RINvNtNtCsbhXKu17xbPQ_9cytoscnpy8commands6clones24print_clone_stats_simpleQQINtNtCs1S013FBku8r_5alloc3vec3VechEECs5uXW1tGmheJ_20entry_point_cli_test
FN:361,_RINvNtNtCsbhXKu17xbPQ_9cytoscnpy8commands6clones26apply_clone_fixes_internalQQINtNtCs1S013FBku8r_5alloc3vec3VechEECs5uXW1tGmheJ_20entry_point_cli_test
FN:163,_RNCINvNtNtCsbhXKu17xbPQ_9cytoscnpy8commands6clones10run_clonesQINtNtCs1S013FBku8r_5alloc3vec3VechEE0Cs5uXW1tGmheJ_20entry_point_cli_test
FN:393,_RNCINvNtNtCsbhXKu17xbPQ_9cytoscnpy8commands6clones26apply_clone_fixes_internalQQINtNtCs1S013FBku8r_5alloc3vec3VechEE0Cs5uXW1tGmheJ_20entry_point_cli_test
FN:433,_RNCINvNtNtCsbhXKu17xbPQ_9cytoscnpy8commands6clones26apply_clone_fixes_internalQQINtNtCs1S013FBku8r_5alloc3vec3VechEEs_0Cs5uXW1tGmheJ_20entry_point_cli_test
FN:98,_RINvNtNtCsbhXKu17xbPQ_9cytoscnpy8commands6clones10run_clonesQINtNtCs1S013FBku8r_5alloc3vec3VechEECsdWd4hUIhEqZ_14root_flag_test
FN:231,_RINvNtNtCsbhXKu17xbPQ_9cytoscnpy8commands6clones24print_clone_stats_simpleQQINtNtCs1S013FBku8r_5alloc3vec3VechEECsdWd4hUIhEqZ_14root_flag_test
FN:361,_RINvNtNtCsbhXKu17xbPQ_9cytoscnpy8commands6clones26apply_clone_fixes_internalQQINtNtCs1S013FBku8r_5alloc3vec3VechEECsdWd4hUIhEqZ_14root_flag_test
FN:163,_RNCINvNtNtCsbhXKu17xbPQ_9cytoscnpy8commands6clones10run_clonesQINtNtCs1S013FBku8r_5alloc3vec3VechEE0CsdWd4hUIhEqZ_14root_flag_test
FN:393,_RNCINvNtNtCsbhXKu17xbPQ_9cytoscnpy8commands6clones26apply_clone_fixes_internalQQINtNtCs1S013FBku8r_5alloc3vec3VechEE0CsdWd4hUIhEqZ_14root_flag_test
FN:433,_RNCINvNtNtCsbhXKu17xbPQ_9cytoscnpy8commands6clones26apply_clone_fixes_internalQQINtNtCs1S013FBku8r_5alloc3vec3VechEEs_0CsdWd4hUIhEqZ_14root_flag_test
FNDA:4,_RNvNtNtCsbhXKu17xbPQ_9cytoscnpy8commands6clones18load_matched_files
FNDA:4,_RNvNtNtCsbhXKu17xbPQ_9cytoscnpy8commands6clones23generate_clone_findings
FNDA:11,_RNvNtNtCsbhXKu17xbPQ_9cytoscnpy8commands6clones25generate_clone_suggestion
FNDA:0,_RINvNtNtCsbhXKu17xbPQ_9cytoscnpy8commands6clones10run_clonesQNtNtNtCslP1BYCnN0Ot_3std2io4util4SinkEB6_
FNDA:0,_RINvNtNtCsbhXKu17xbPQ_9cytoscnpy8commands6clones10run_clonesQNtNtNtCslP1BYCnN0Ot_3std2io5stdio6StdoutEB6_
FNDA:0,_RINvNtNtCsbhXKu17xbPQ_9cytoscnpy8commands6clones24print_clone_stats_simpleQQNtNtNtCslP1BYCnN0Ot_3std2io4util4SinkEB6_
FNDA:0,_RINvNtNtCsbhXKu17xbPQ_9cytoscnpy8commands6clones24print_clone_stats_simpleQQNtNtNtCslP1BYCnN0Ot_3std2io5stdio6StdoutEB6_
FNDA:0,_RINvNtNtCsbhXKu17xbPQ_9cytoscnpy8commands6clones26apply_clone_fixes_internalQQNtNtNtCslP1BYCnN0Ot_3std2io4util4SinkEB6_
FNDA:0,_RINvNtNtCsbhXKu17xbPQ_9cytoscnpy8commands6clones26apply_clone_fixes_internalQQNtNtNtCslP1BYCnN0Ot_3std2io5stdio6StdoutEB6_
FNDA:0,_RNCINvNtNtCsbhXKu17xbPQ_9cytoscnpy8commands6clones10run_clonesQNtNtNtCslP1BYCnN0Ot_3std2io4util4SinkE0B8_
FNDA:0,_RNCINvNtNtCsbhXKu17xbPQ_9cytoscnpy8commands6clones10run_clonesQNtNtNtCslP1BYCnN0Ot_3std2io5stdio6StdoutE0B8_
FNDA:0,_RNCINvNtNtCsbhXKu17xbPQ_9cytoscnpy8commands6clones26apply_clone_fixes_internalQQNtNtNtCslP1BYCnN0Ot_3std2io4util4SinkE0B8_
FNDA:0,_RNCINvNtNtCsbhXKu17xbPQ_9cytoscnpy8commands6clones26apply_clone_fixes_internalQQNtNtNtCslP1BYCnN0Ot_3std2io4util4SinkEs_0B8_
FNDA:0,_RNCINvNtNtCsbhXKu17xbPQ_9cytoscnpy8commands6clones26apply_clone_fixes_internalQQNtNtNtCslP1BYCnN0Ot_3std2io5stdio6StdoutE0B8_
FNDA:0,_RNCINvNtNtCsbhXKu17xbPQ_9cytoscnpy8commands6clones26apply_clone_fixes_internalQQNtNtNtCslP1BYCnN0Ot_3std2io5stdio6StdoutEs_0B8_
FNDA:6,_RNCNCNCNvNtNtCsbhXKu17xbPQ_9cytoscnpy8commands6clones23generate_clone_findings000Bb_
FNDA:8,_RNCNCNvNtNtCsbhXKu17xbPQ_9cytoscnpy8commands6clones18load_matched_filess_00B9_
FNDA:8,_RNCNCNvNtNtCsbhXKu17xbPQ_9cytoscnpy8commands6clones23generate_clone_findings00B9_
FNDA:4,_RNCNvNtNtCsbhXKu17xbPQ_9cytoscnpy8commands6clones18load_matched_files0B7_
FNDA:8,_RNCNvNtNtCsbhXKu17xbPQ_9cytoscnpy8commands6clones18load_matched_filess_0B7_
FNDA:4,_RNCNvNtNtCsbhXKu17xbPQ_9cytoscnpy8commands6clones23generate_clone_findings0B7_
FNDA:8,_RNCNvNtNtCsbhXKu17xbPQ_9cytoscnpy8commands6clones23generate_clone_findingss0_0B7_
FNDA:8,_RNCNvNtNtCsbhXKu17xbPQ_9cytoscnpy8commands6clones23generate_clone_findingss_0B7_
FNDA:0,_RINvNtNtCsbhXKu17xbPQ_9cytoscnpy8commands6clones10run_clonesQINtNtCs1S013FBku8r_5alloc3vec3VechEECsk4WInR7jcT_18absolute_path_test
FNDA:0,_RINvNtNtCsbhXKu17xbPQ_9cytoscnpy8commands6clones24print_clone_stats_simpleQQINtNtCs1S013FBku8r_5alloc3vec3VechEECsk4WInR7jcT_18absolute_path_test
FNDA:0,_RINvNtNtCsbhXKu17xbPQ_9cytoscnpy8commands6clones26apply_clone_fixes_internalQQINtNtCs1S013FBku8r_5alloc3vec3VechEECsk4WInR7jcT_18absolute_path_test
FNDA:0,_RNCINvNtNtCsbhXKu17xbPQ_9cytoscnpy8commands6clones10run_clonesQINtNtCs1S013FBku8r_5alloc3vec3VechEE0Csk4WInR7jcT_18absolute_path_test
FNDA:0,_RNCINvNtNtCsbhXKu17xbPQ_9cytoscnpy8commands6clones26apply_clone_fixes_internalQQINtNtCs1S013FBku8r_5alloc3vec3VechEE0Csk4WInR7jcT_18absolute_path_test
FNDA:0,_RNCINvNtNtCsbhXKu17xbPQ_9cytoscnpy8commands6clones26apply_clone_fixes_internalQQINtNtCs1S013FBku8r_5alloc3vec3VechEEs_0Csk4WInR7jcT_18absolute_path_test
FNDA:7,_RINvNtNtCsbhXKu17xbPQ_9cytoscnpy8commands6clones10run_clonesQINtNtCs1S013FBku8r_5alloc3vec3VechEECsl1vneGevItt_19clones_command_test
FNDA:2,_RINvNtNtCsbhXKu17xbPQ_9cytoscnpy8commands6clones24print_clone_stats_simpleQQINtNtCs1S013FBku8r_5alloc3vec3VechEECsl1vneGevItt_19clones_command_test
FNDA:2,_RINvNtNtCsbhXKu17xbPQ_9cytoscnpy8commands6clones26apply_clone_fixes_internalQQINtNtCs1S013FBku8r_5alloc3vec3VechEECsl1vneGevItt_19clones_command_test
FNDA:0,_RNCINvNtNtCsbhXKu17xbPQ_9cytoscnpy8commands6clones10run_clonesQINtNtCs1S013FBku8r_5alloc3vec3VechEE0Csl1vneGevItt_19clones_command_test
FNDA:0,_RNCINvNtNtCsbhXKu17xbPQ_9cytoscnpy8commands6clones26apply_clone_fixes_internalQQINtNtCs1S013FBku8r_5alloc3vec3VechEE0Csl1vneGevItt_19clones_command_test
FNDA:2,_RNCINvNtNtCsbhXKu17xbPQ_9cytoscnpy8commands6clones26apply_clone_fixes_internalQQINtNtCs1S013FBku8r_5alloc3vec3VechEEs_0Csl1vneGevItt_19clones_command_test
FNDA:0,_RINvNtNtCs2Eyh5DnjbiX_9cytoscnpy8commands6clones10run_clonesQNtNtNtCslP1BYCnN0Ot_3std2io4util4SinkEB6_
FNDA:0,_RINvNtNtCs2Eyh5DnjbiX_9cytoscnpy8commands6clones10run_clonesQNtNtNtCslP1BYCnN0Ot_3std2io5stdio6StdoutEB6_
FNDA:0,_RINvNtNtCs2Eyh5DnjbiX_9cytoscnpy8commands6clones24print_clone_stats_simpleQQNtNtNtCslP1BYCnN0Ot_3std2io4util4SinkEB6_
FNDA:0,_RINvNtNtCs2Eyh5DnjbiX_9cytoscnpy8commands6clones24print_clone_stats_simpleQQNtNtNtCslP1BYCnN0Ot_3std2io5stdio6StdoutEB6_
FNDA:0,_RINvNtNtCs2Eyh5DnjbiX_9cytoscnpy8commands6clones26apply_clone_fixes_internalQQNtNtNtCslP1BYCnN0Ot_3std2io4util4SinkEB6_
FNDA:0,_RINvNtNtCs2Eyh5DnjbiX_9cytoscnpy8commands6clones26apply_clone_fixes_internalQQNtNtNtCslP1BYCnN0Ot_3std2io5stdio6StdoutEB6_
FNDA:0,_RNCINvNtNtCs2Eyh5DnjbiX_9cytoscnpy8commands6clones10run_clonesQNtNtNtCslP1BYCnN0Ot_3std2io4util4SinkE0B8_
FNDA:0,_RNCINvNtNtCs2Eyh5DnjbiX_9cytoscnpy8commands6clones10run_clonesQNtNtNtCslP1BYCnN0Ot_3std2io5stdio6StdoutE0B8_
FNDA:0,_RNCINvNtNtCs2Eyh5DnjbiX_9cytoscnpy8commands6clones26apply_clone_fixes_internalQQNtNtNtCslP1BYCnN0Ot_3std2io4util4SinkE0B8_
FNDA:0,_RNCINvNtNtCs2Eyh5DnjbiX_9cytoscnpy8commands6clones26apply_clone_fixes_internalQQNtNtNtCslP1BYCnN0Ot_3std2io4util4SinkEs_0B8_
FNDA:0,_RNCINvNtNtCs2Eyh5DnjbiX_9cytoscnpy8commands6clones26apply_clone_fixes_internalQQNtNtNtCslP1BYCnN0Ot_3std2io5stdio6StdoutE0B8_
FNDA:0,_RNCINvNtNtCs2Eyh5DnjbiX_9cytoscnpy8commands6clones26apply_clone_fixes_internalQQNtNtNtCslP1BYCnN0Ot_3std2io5stdio6StdoutEs_0B8_
FNDA:0,_RNCNCNCNvNtNtCs2Eyh5DnjbiX_9cytoscnpy8commands6clones23generate_clone_findings000Bb_
FNDA:0,_RNCNCNvNtNtCs2Eyh5DnjbiX_9cytoscnpy8commands6clones18load_matched_filess_00B9_
FNDA:0,_RNCNCNvNtNtCs2Eyh5DnjbiX_9cytoscnpy8commands6clones23generate_clone_findings00B9_
FNDA:0,_RNCNvNtNtCs2Eyh5DnjbiX_9cytoscnpy8commands6clones18load_matched_files0B7_
FNDA:0,_RNCNvNtNtCs2Eyh5DnjbiX_9cytoscnpy8commands6clones18load_matched_filess_0B7_
FNDA:0,_RNCNvNtNtCs2Eyh5DnjbiX_9cytoscnpy8commands6clones23generate_clone_findings0B7_
FNDA:0,_RNCNvNtNtCs2Eyh5DnjbiX_9cytoscnpy8commands6clones23generate_clone_findingss0_0B7_
FNDA:0,_RNCNvNtNtCs2Eyh5DnjbiX_9cytoscnpy8commands6clones23generate_clone_findingss_0B7_
FNDA:0,_RNvNtNtCs2Eyh5DnjbiX_9cytoscnpy8commands6clones18load_matched_files
FNDA:0,_RNvNtNtCs2Eyh5DnjbiX_9cytoscnpy8commands6clones23generate_clone_findings
FNDA:0,_RNvNtNtCs2Eyh5DnjbiX_9cytoscnpy8commands6clones25generate_clone_suggestion
FNDA:0,_RINvNtNtCsbhXKu17xbPQ_9cytoscnpy8commands6clones10run_clonesQINtNtCs1S013FBku8r_5alloc3vec3VechEECs5uXW1tGmheJ_20entry_point_cli_test
FNDA:0,_RINvNtNtCsbhXKu17xbPQ_9cytoscnpy8commands6clones24print_clone_stats_simpleQQINtNtCs1S013FBku8r_5alloc3vec3VechEECs5uXW1tGmheJ_20entry_point_cli_test
FNDA:0,_RINvNtNtCsbhXKu17xbPQ_9cytoscnpy8commands6clones26apply_clone_fixes_internalQQINtNtCs1S013FBku8r_5alloc3vec3VechEECs5uXW1tGmheJ_20entry_point_cli_test
FNDA:0,_RNCINvNtNtCsbhXKu17xbPQ_9cytoscnpy8commands6clones10run_clonesQINtNtCs1S013FBku8r_5alloc3vec3VechEE0Cs5uXW1tGmheJ_20entry_point_cli_test
FNDA:0,_RNCINvNtNtCsbhXKu17xbPQ_9cytoscnpy8commands6clones26apply_clone_fixes_internalQQINtNtCs1S013FBku8r_5alloc3vec3VechEE0Cs5uXW1tGmheJ_20entry_point_cli_test
FNDA:0,_RNCINvNtNtCsbhXKu17xbPQ_9cytoscnpy8commands6clones26apply_clone_fixes_internalQQINtNtCs1S013FBku8r_5alloc3vec3VechEEs_0Cs5uXW1tGmheJ_20entry_point_cli_test
FNDA:0,_RINvNtNtCsbhXKu17xbPQ_9cytoscnpy8commands6clones10run_clonesQINtNtCs1S013FBku8r_5alloc3vec3VechEECsdWd4hUIhEqZ_14root_flag_test
FNDA:0,_RINvNtNtCsbhXKu17xbPQ_9cytoscnpy8commands6clones24print_clone_stats_simpleQQINtNtCs1S013FBku8r_5alloc3vec3VechEECsdWd4hUIhEqZ_14root_flag_test
FNDA:0,_RINvNtNtCsbhXKu17xbPQ_9cytoscnpy8commands6clones26apply_clone_fixes_internalQQINtNtCs1S013FBku8r_5alloc3vec3VechEECsdWd4hUIhEqZ_14root_flag_test
FNDA:0,_RNCINvNtNtCsbhXKu17xbPQ_9cytoscnpy8commands6clones10run_clonesQINtNtCs1S013FBku8r_5alloc3vec3VechEE0CsdWd4hUIhEqZ_14root_flag_test
FNDA:0,_RNCINvNtNtCsbhXKu17xbPQ_9cytoscnpy8commands6clones26apply_clone_fixes_internalQQINtNtCs1S013FBku8r_5alloc3vec3VechEE0CsdWd4hUIhEqZ_14root_flag_test
FNDA:0,_RNCINvNtNtCsbhXKu17xbPQ_9cytoscnpy8commands6clones26apply_clone_fixes_internalQQINtNtCs1S013FBku8r_5alloc3vec3VechEEs_0CsdWd4hUIhEqZ_14root_flag_test
FNF:17
FNH:15
DA:39,11
DA:40,11
DA:41,11
DA:42,11
DA:43,11
DA:44,11
DA:45,11
DA:46,11
DA:48,11
DA:49,0
DA:50,0
DA:51,0
DA:52,0
DA:54,11
DA:57,0
DA:58,0
DA:59,0
DA:60,0
DA:62,0
DA:66,0
DA:67,0
DA:68,0
DA:69,0
DA:70,0
DA:72,0
DA:75,0
DA:76,0
DA:77,0
DA:78,0
DA:80,0
DA:84,0
DA:88,11
DA:98,7
DA:99,7
DA:100,7
DA:101,7
DA:102,7
DA:104,7
DA:105,7
DA:107,7
DA:108,0
DA:109,0
DA:110,7
DA:112,7
DA:115,7
DA:116,7
DA:117,7
DA:119,7
DA:120,2
DA:121,5
DA:123,7
DA:124,3
DA:125,3
DA:127,0
DA:129,3
DA:130,4
DA:133,4
DA:135,4
DA:137,4
DA:138,1
DA:139,1
DA:141,3
DA:142,3
DA:144,3
DA:145,3
DA:146,3
DA:147,3
DA:148,3
DA:150,3
DA:151,3
DA:152,3
DA:153,3
DA:154,3
DA:157,9
DA:158,6
DA:159,3
DA:160,3
DA:161,3
DA:162,3
DA:163,3
DA:164,3
DA:165,3
DA:166,3
DA:169,3
DA:170,3
DA:171,3
DA:172,3
DA:175,3
DA:176,3
DA:177,3
DA:178,3
DA:179,3
DA:182,3
DA:183,3
DA:184,3
DA:185,3
DA:186,3
DA:187,3
DA:188,3
DA:190,3
DA:193,3
DA:196,4
DA:197,2
DA:198,2
DA:199,2
DA:200,2
DA:201,2
DA:202,2
DA:203,0
DA:204,2
DA:206,4
DA:207,7
DA:210,4
DA:214,4
DA:215,4
DA:216,4
DA:217,4
DA:220,4
DA:221,4
DA:222,8
DA:223,8
DA:224,8
DA:225,8
DA:226,8
DA:227,4
DA:228,4
DA:231,2
DA:232,2
DA:233,2
DA:234,2
DA:235,2
DA:236,2
DA:237,2
DA:238,2
DA:240,2
DA:241,2
DA:242,2
DA:243,4
DA:244,2
DA:245,2
DA:246,0
DA:247,0
DA:250,2
DA:251,2
DA:252,2
DA:254,2
DA:256,2
DA:257,2
DA:258,2
DA:259,2
DA:260,2
DA:261,2
DA:262,0
DA:263,0
DA:264,2
DA:265,2
DA:266,2
DA:270,4
DA:271,4
DA:272,4
DA:273,4
DA:274,4
DA:278,4
DA:280,4
DA:281,4
DA:282,4
DA:284,8
DA:286,8
DA:287,8
DA:288,8
DA:289,8
DA:292,8
DA:293,6
DA:294,4
DA:295,4
DA:296,4
DA:297,4
DA:298,4
DA:299,4
DA:300,4
DA:301,4
DA:302,0
DA:303,0
DA:304,4
DA:306,8
DA:307,8
DA:309,4
DA:310,4
DA:311,4
DA:313,4
DA:314,4
DA:316,12
DA:317,8
DA:318,8
DA:319,8
DA:320,8
DA:321,8
DA:322,8
DA:323,8
DA:324,8
DA:327,4
DA:329,12
DA:330,8
DA:331,8
DA:332,8
DA:333,8
DA:334,8
DA:335,0
DA:336,0
DA:337,0
DA:338,0
DA:344,8
DA:345,4
DA:346,4
DA:347,8
DA:349,8
DA:350,8
DA:351,8
DA:352,0
DA:353,8
DA:354,0
DA:355,0
DA:356,8
DA:357,8
DA:358,4
DA:359,4
DA:361,2
DA:362,2
DA:363,2
DA:364,2
DA:365,2
DA:366,2
DA:367,2
DA:371,2
DA:372,1
DA:373,1
DA:374,1
DA:375,1
DA:376,0
DA:378,1
DA:381,2
DA:382,2
DA:384,6
DA:385,4
DA:387,2
DA:389,2
DA:392,2
DA:393,0
DA:394,0
DA:395,0
DA:396,0
DA:397,0
DA:398,0
DA:399,0
DA:400,0
DA:401,0
DA:402,0
DA:403,2
DA:405,2
DA:406,2
DA:407,0
DA:408,2
DA:409,2
DA:411,2
DA:412,1
DA:413,1
DA:414,1
DA:415,1
DA:420,1
DA:421,0
DA:422,1
DA:423,1
DA:424,1
DA:425,1
DA:426,1
DA:427,1
DA:428,2
DA:431,2
DA:432,2
DA:433,2
DA:434,1
DA:435,1
DA:436,1
DA:437,1
DA:438,1
DA:439,0
DA:440,0
DA:442,1
DA:443,2
DA:444,2
BRF:0
BRH:0
LF:301
LH:246
end_of_record
SF:E:\Github\CytoScnPy\cytoscnpy\src\commands\fix.rs
FN:91,_RNvNtNtCsbhXKu17xbPQ_9cytoscnpy8commands3fix14find_def_range
FN:133,_RNvNtNtCsbhXKu17xbPQ_9cytoscnpy8commands3fix20collect_items_to_fix
FN:176,_RINvNtNtCsbhXKu17xbPQ_9cytoscnpy8commands3fix15print_fix_statsQNtNtNtCslP1BYCnN0Ot_3std2io5stdio6StdoutEB6_
FN:52,_RINvNtNtCsbhXKu17xbPQ_9cytoscnpy8commands3fix16run_fix_deadcodeQNtNtNtCslP1BYCnN0Ot_3std2io5stdio6StdoutEB6_
FN:236,_RINvNtNtCsbhXKu17xbPQ_9cytoscnpy8commands3fix27apply_dead_code_fix_to_fileQNtNtNtCslP1BYCnN0Ot_3std2io5stdio6StdoutEB6_
FN:210,_RNCINvNtNtCsbhXKu17xbPQ_9cytoscnpy8commands3fix15print_fix_statsQNtNtNtCslP1BYCnN0Ot_3std2io5stdio6StdoutE0B8_
FN:220,_RNCINvNtNtCsbhXKu17xbPQ_9cytoscnpy8commands3fix15print_fix_statsQNtNtNtCslP1BYCnN0Ot_3std2io5stdio6StdoutEs0_0B8_
FN:215,_RNCINvNtNtCsbhXKu17xbPQ_9cytoscnpy8commands3fix15print_fix_statsQNtNtNtCslP1BYCnN0Ot_3std2io5stdio6StdoutEs_0B8_
FN:283,_RNCINvNtNtCsbhXKu17xbPQ_9cytoscnpy8commands3fix27apply_dead_code_fix_to_fileQNtNtNtCslP1BYCnN0Ot_3std2io5stdio6StdoutE0B8_
FN:176,_RINvNtNtCsbhXKu17xbPQ_9cytoscnpy8commands3fix15print_fix_statsQINtNtCs1S013FBku8r_5alloc3vec3VechEECsk4WInR7jcT_18absolute_path_test
FN:52,_RINvNtNtCsbhXKu17xbPQ_9cytoscnpy8commands3fix16run_fix_deadcodeQINtNtCs1S013FBku8r_5alloc3vec3VechEECsk4WInR7jcT_18absolute_path_test
FN:236,_RINvNtNtCsbhXKu17xbPQ_9cytoscnpy8commands3fix27apply_dead_code_fix_to_fileQINtNtCs1S013FBku8r_5alloc3vec3VechEECsk4WInR7jcT_18absolute_path_test
FN:210,_RNCINvNtNtCsbhXKu17xbPQ_9cytoscnpy8commands3fix15print_fix_statsQINtNtCs1S013FBku8r_5alloc3vec3VechEE0Csk4WInR7jcT_18absolute_path_test
FN:220,_RNCINvNtNtCsbhXKu17xbPQ_9cytoscnpy8commands3fix15print_fix_statsQINtNtCs1S013FBku8r_5alloc3vec3VechEEs0_0Csk4WInR7jcT_18absolute_path_test
FN:215,_RNCINvNtNtCsbhXKu17xbPQ_9cytoscnpy8commands3fix15print_fix_statsQINtNtCs1S013FBku8r_5alloc3vec3VechEEs_0Csk4WInR7jcT_18absolute_path_test
FN:283,_RNCINvNtNtCsbhXKu17xbPQ_9cytoscnpy8commands3fix27apply_dead_code_fix_to_fileQINtNtCs1S013FBku8r_5alloc3vec3VechEE0Csk4WInR7jcT_18absolute_path_test
FN:350,_RNvNtNtNtCs2Eyh5DnjbiX_9cytoscnpy8commands3fix5tests17create_definition
FN:379,_RNvNtNtNtCs2Eyh5DnjbiX_9cytoscnpy8commands3fix5tests28create_empty_analysis_result
FN:433,_RNvNtNtNtCs2Eyh5DnjbiX_9cytoscnpy8commands3fix5testss_25test_find_def_range_class
FN:448,_RNvNtNtNtCs2Eyh5DnjbiX_9cytoscnpy8commands3fix5testss_26test_find_def_range_import
FN:500,_RNvNtNtNtCs2Eyh5DnjbiX_9cytoscnpy8commands3fix5testss_27test_run_fix_deadcode_apply
FN:416,_RNvNtNtNtCs2Eyh5DnjbiX_9cytoscnpy8commands3fix5testss_28test_find_def_range_function
FN:461,_RNvNtNtNtCs2Eyh5DnjbiX_9cytoscnpy8commands3fix5testss_29test_run_fix_deadcode_dry_run
FN:176,_RINvNtNtCs2Eyh5DnjbiX_9cytoscnpy8commands3fix15print_fix_statsQINtNtCs1S013FBku8r_5alloc3vec3VechEEB6_
FN:176,_RINvNtNtCs2Eyh5DnjbiX_9cytoscnpy8commands3fix15print_fix_statsQNtNtNtCslP1BYCnN0Ot_3std2io5stdio6StdoutEB6_
FN:52,_RINvNtNtCs2Eyh5DnjbiX_9cytoscnpy8commands3fix16run_fix_deadcodeQINtNtCs1S013FBku8r_5alloc3vec3VechEEB6_
FN:52,_RINvNtNtCs2Eyh5DnjbiX_9cytoscnpy8commands3fix16run_fix_deadcodeQNtNtNtCslP1BYCnN0Ot_3std2io5stdio6StdoutEB6_
FN:236,_RINvNtNtCs2Eyh5DnjbiX_9cytoscnpy8commands3fix27apply_dead_code_fix_to_fileQINtNtCs1S013FBku8r_5alloc3vec3VechEEB6_
FN:236,_RINvNtNtCs2Eyh5DnjbiX_9cytoscnpy8commands3fix27apply_dead_code_fix_to_fileQNtNtNtCslP1BYCnN0Ot_3std2io5stdio6StdoutEB6_
FN:210,_RNCINvNtNtCs2Eyh5DnjbiX_9cytoscnpy8commands3fix15print_fix_statsQINtNtCs1S013FBku8r_5alloc3vec3VechEE0B8_
FN:220,_RNCINvNtNtCs2Eyh5DnjbiX_9cytoscnpy8commands3fix15print_fix_statsQINtNtCs1S013FBku8r_5alloc3vec3VechEEs0_0B8_
FN:215,_RNCINvNtNtCs2Eyh5DnjbiX_9cytoscnpy8commands3fix15print_fix_statsQINtNtCs1S013FBku8r_5alloc3vec3VechEEs_0B8_
FN:210,_RNCINvNtNtCs2Eyh5DnjbiX_9cytoscnpy8commands3fix15print_fix_statsQNtNtNtCslP1BYCnN0Ot_3std2io5stdio6StdoutE0B8_
FN:220,_RNCINvNtNtCs2Eyh5DnjbiX_9cytoscnpy8commands3fix15print_fix_statsQNtNtNtCslP1BYCnN0Ot_3std2io5stdio6StdoutEs0_0B8_
FN:215,_RNCINvNtNtCs2Eyh5DnjbiX_9cytoscnpy8commands3fix15print_fix_statsQNtNtNtCslP1BYCnN0Ot_3std2io5stdio6StdoutEs_0B8_
FN:283,_RNCINvNtNtCs2Eyh5DnjbiX_9cytoscnpy8commands3fix27apply_dead_code_fix_to_fileQINtNtCs1S013FBku8r_5alloc3vec3VechEE0B8_
FN:283,_RNCINvNtNtCs2Eyh5DnjbiX_9cytoscnpy8commands3fix27apply_dead_code_fix_to_fileQNtNtNtCslP1BYCnN0Ot_3std2io5stdio6StdoutE0B8_
FN:91,_RNvNtNtCs2Eyh5DnjbiX_9cytoscnpy8commands3fix14find_def_range
FN:133,_RNvNtNtCs2Eyh5DnjbiX_9cytoscnpy8commands3fix20collect_items_to_fix
FN:176,_RINvNtNtCsbhXKu17xbPQ_9cytoscnpy8commands3fix15print_fix_statsQINtNtCs1S013FBku8r_5alloc3vec3VechEECs5uXW1tGmheJ_20entry_point_cli_test
FN:52,_RINvNtNtCsbhXKu17xbPQ_9cytoscnpy8commands3fix16run_fix_deadcodeQINtNtCs1S013FBku8r_5alloc3vec3VechEECs5uXW1tGmheJ_20entry_point_cli_test
FN:236,_RINvNtNtCsbhXKu17xbPQ_9cytoscnpy8commands3fix27apply_dead_code_fix_to_fileQINtNtCs1S013FBku8r_5alloc3vec3VechEECs5uXW1tGmheJ_20entry_point_cli_test
FN:210,_RNCINvNtNtCsbhXKu17xbPQ_9cytoscnpy8commands3fix15print_fix_statsQINtNtCs1S013FBku8r_5alloc3vec3VechEE0Cs5uXW1tGmheJ_20entry_point_cli_test
FN:220,_RNCINvNtNtCsbhXKu17xbPQ_9cytoscnpy8commands3fix15print_fix_statsQINtNtCs1S013FBku8r_5alloc3vec3VechEEs0_0Cs5uXW1tGmheJ_20entry_point_cli_test
FN:215,_RNCINvNtNtCsbhXKu17xbPQ_9cytoscnpy8commands3fix15print_fix_statsQINtNtCs1S013FBku8r_5alloc3vec3VechEEs_0Cs5uXW1tGmheJ_20entry_point_cli_test
FN:283,_RNCINvNtNtCsbhXKu17xbPQ_9cytoscnpy8commands3fix27apply_dead_code_fix_to_fileQINtNtCs1S013FBku8r_5alloc3vec3VechEE0Cs5uXW1tGmheJ_20entry_point_cli_test
FN:176,_RINvNtNtCsbhXKu17xbPQ_9cytoscnpy8commands3fix15print_fix_statsQINtNtCs1S013FBku8r_5alloc3vec3VechEECsdWd4hUIhEqZ_14root_flag_test
FN:52,_RINvNtNtCsbhXKu17xbPQ_9cytoscnpy8commands3fix16run_fix_deadcodeQINtNtCs1S013FBku8r_5alloc3vec3VechEECsdWd4hUIhEqZ_14root_flag_test
FN:236,_RINvNtNtCsbhXKu17xbPQ_9cytoscnpy8commands3fix27apply_dead_code_fix_to_fileQINtNtCs1S013FBku8r_5alloc3vec3VechEECsdWd4hUIhEqZ_14root_flag_test
FN:210,_RNCINvNtNtCsbhXKu17xbPQ_9cytoscnpy8commands3fix15print_fix_statsQINtNtCs1S013FBku8r_5alloc3vec3VechEE0CsdWd4hUIhEqZ_14root_flag_test
FN:220,_RNCINvNtNtCsbhXKu17xbPQ_9cytoscnpy8commands3fix15print_fix_statsQINtNtCs1S013FBku8r_5alloc3vec3VechEEs0_0CsdWd4hUIhEqZ_14root_flag_test
FN:215,_RNCINvNtNtCsbhXKu17xbPQ_9cytoscnpy8commands3fix15print_fix_statsQINtNtCs1S013FBku8r_5alloc3vec3VechEEs_0CsdWd4hUIhEqZ_14root_flag_test
FN:283,_RNCINvNtNtCsbhXKu17xbPQ_9cytoscnpy8commands3fix27apply_dead_code_fix_to_fileQINtNtCs1S013FBku8r_5alloc3vec3VechEE0CsdWd4hUIhEqZ_14root_flag_test
FNDA:1,_RNvNtNtCsbhXKu17xbPQ_9cytoscnpy8commands3fix14find_def_range
FNDA:1,_RNvNtNtCsbhXKu17xbPQ_9cytoscnpy8commands3fix20collect_items_to_fix
FNDA:0,_RINvNtNtCsbhXKu17xbPQ_9cytoscnpy8commands3fix15print_fix_statsQNtNtNtCslP1BYCnN0Ot_3std2io5stdio6StdoutEB6_
FNDA:0,_RINvNtNtCsbhXKu17xbPQ_9cytoscnpy8commands3fix16run_fix_deadcodeQNtNtNtCslP1BYCnN0Ot_3std2io5stdio6StdoutEB6_
FNDA:0,_RINvNtNtCsbhXKu17xbPQ_9cytoscnpy8commands3fix27apply_dead_code_fix_to_fileQNtNtNtCslP1BYCnN0Ot_3std2io5stdio6StdoutEB6_
FNDA:0,_RNCINvNtNtCsbhXKu17xbPQ_9cytoscnpy8commands3fix15print_fix_statsQNtNtNtCslP1BYCnN0Ot_3std2io5stdio6StdoutE0B8_
FNDA:0,_RNCINvNtNtCsbhXKu17xbPQ_9cytoscnpy8commands3fix15print_fix_statsQNtNtNtCslP1BYCnN0Ot_3std2io5stdio6StdoutEs0_0B8_
FNDA:0,_RNCINvNtNtCsbhXKu17xbPQ_9cytoscnpy8commands3fix15print_fix_statsQNtNtNtCslP1BYCnN0Ot_3std2io5stdio6StdoutEs_0B8_
FNDA:0,_RNCINvNtNtCsbhXKu17xbPQ_9cytoscnpy8commands3fix27apply_dead_code_fix_to_fileQNtNtNtCslP1BYCnN0Ot_3std2io5stdio6StdoutE0B8_
FNDA:1,_RINvNtNtCsbhXKu17xbPQ_9cytoscnpy8commands3fix15print_fix_statsQINtNtCs1S013FBku8r_5alloc3vec3VechEECsk4WInR7jcT_18absolute_path_test
FNDA:1,_RINvNtNtCsbhXKu17xbPQ_9cytoscnpy8commands3fix16run_fix_deadcodeQINtNtCs1S013FBku8r_5alloc3vec3VechEECsk4WInR7jcT_18absolute_path_test
FNDA:1,_RINvNtNtCsbhXKu17xbPQ_9cytoscnpy8commands3fix27apply_dead_code_fix_to_fileQINtNtCs1S013FBku8r_5alloc3vec3VechEECsk4WInR7jcT_18absolute_path_test
FNDA:0,_RNCINvNtNtCsbhXKu17xbPQ_9cytoscnpy8commands3fix15print_fix_statsQINtNtCs1S013FBku8r_5alloc3vec3VechEE0Csk4WInR7jcT_18absolute_path_test
FNDA:0,_RNCINvNtNtCsbhXKu17xbPQ_9cytoscnpy8commands3fix15print_fix_statsQINtNtCs1S013FBku8r_5alloc3vec3VechEEs0_0Csk4WInR7jcT_18absolute_path_test
FNDA:0,_RNCINvNtNtCsbhXKu17xbPQ_9cytoscnpy8commands3fix15print_fix_statsQINtNtCs1S013FBku8r_5alloc3vec3VechEEs_0Csk4WInR7jcT_18absolute_path_test
FNDA:1,_RNCINvNtNtCsbhXKu17xbPQ_9cytoscnpy8commands3fix27apply_dead_code_fix_to_fileQINtNtCs1S013FBku8r_5alloc3vec3VechEE0Csk4WInR7jcT_18absolute_path_test
FNDA:2,_RNvNtNtNtCs2Eyh5DnjbiX_9cytoscnpy8commands3fix5tests17create_definition
FNDA:2,_RNvNtNtNtCs2Eyh5DnjbiX_9cytoscnpy8commands3fix5tests28create_empty_analysis_result
FNDA:1,_RNvNtNtNtCs2Eyh5DnjbiX_9cytoscnpy8commands3fix5testss_25test_find_def_range_class
FNDA:1,_RNvNtNtNtCs2Eyh5DnjbiX_9cytoscnpy8commands3fix5testss_26test_find_def_range_import
FNDA:1,_RNvNtNtNtCs2Eyh5DnjbiX_9cytoscnpy8commands3fix5testss_27test_run_fix_deadcode_apply
FNDA:1,_RNvNtNtNtCs2Eyh5DnjbiX_9cytoscnpy8commands3fix5testss_28test_find_def_range_function
FNDA:1,_RNvNtNtNtCs2Eyh5DnjbiX_9cytoscnpy8commands3fix5testss_29test_run_fix_deadcode_dry_run
FNDA:2,_RINvNtNtCs2Eyh5DnjbiX_9cytoscnpy8commands3fix15print_fix_statsQINtNtCs1S013FBku8r_5alloc3vec3VechEEB6_
FNDA:0,_RINvNtNtCs2Eyh5DnjbiX_9cytoscnpy8commands3fix15print_fix_statsQNtNtNtCslP1BYCnN0Ot_3std2io5stdio6StdoutEB6_
FNDA:2,_RINvNtNtCs2Eyh5DnjbiX_9cytoscnpy8commands3fix16run_fix_deadcodeQINtNtCs1S013FBku8r_5alloc3vec3VechEEB6_
FNDA:0,_RINvNtNtCs2Eyh5DnjbiX_9cytoscnpy8commands3fix16run_fix_deadcodeQNtNtNtCslP1BYCnN0Ot_3std2io5stdio6StdoutEB6_
FNDA:2,_RINvNtNtCs2Eyh5DnjbiX_9cytoscnpy8commands3fix27apply_dead_code_fix_to_fileQINtNtCs1S013FBku8r_5alloc3vec3VechEEB6_
FNDA:0,_RINvNtNtCs2Eyh5DnjbiX_9cytoscnpy8commands3fix27apply_dead_code_fix_to_fileQNtNtNtCslP1BYCnN0Ot_3std2io5stdio6StdoutEB6_
FNDA:1,_RNCINvNtNtCs2Eyh5DnjbiX_9cytoscnpy8commands3fix15print_fix_statsQINtNtCs1S013FBku8r_5alloc3vec3VechEE0B8_
FNDA:0,_RNCINvNtNtCs2Eyh5DnjbiX_9cytoscnpy8commands3fix15print_fix_statsQINtNtCs1S013FBku8r_5alloc3vec3VechEEs0_0B8_
FNDA:0,_RNCINvNtNtCs2Eyh5DnjbiX_9cytoscnpy8commands3fix15print_fix_statsQINtNtCs1S013FBku8r_5alloc3vec3VechEEs_0B8_
FNDA:0,_RNCINvNtNtCs2Eyh5DnjbiX_9cytoscnpy8commands3fix15print_fix_statsQNtNtNtCslP1BYCnN0Ot_3std2io5stdio6StdoutE0B8_
FNDA:0,_RNCINvNtNtCs2Eyh5DnjbiX_9cytoscnpy8commands3fix15print_fix_statsQNtNtNtCslP1BYCnN0Ot_3std2io5stdio6StdoutEs0_0B8_
FNDA:0,_RNCINvNtNtCs2Eyh5DnjbiX_9cytoscnpy8commands3fix15print_fix_statsQNtNtNtCslP1BYCnN0Ot_3std2io5stdio6StdoutEs_0B8_
FNDA:0,_RNCINvNtNtCs2Eyh5DnjbiX_9cytoscnpy8commands3fix27apply_dead_code_fix_to_fileQINtNtCs1S013FBku8r_5alloc3vec3VechEE0B8_
FNDA:0,_RNCINvNtNtCs2Eyh5DnjbiX_9cytoscnpy8commands3fix27apply_dead_code_fix_to_fileQNtNtNtCslP1BYCnN0Ot_3std2io5stdio6StdoutE0B8_
FNDA:5,_RNvNtNtCs2Eyh5DnjbiX_9cytoscnpy8commands3fix14find_def_range
FNDA:2,_RNvNtNtCs2Eyh5DnjbiX_9cytoscnpy8commands3fix20collect_items_to_fix
FNDA:0,_RINvNtNtCsbhXKu17xbPQ_9cytoscnpy8commands3fix15print_fix_statsQINtNtCs1S013FBku8r_5alloc3vec3VechEECs5uXW1tGmheJ_20entry_point_cli_test
FNDA:0,_RINvNtNtCsbhXKu17xbPQ_9cytoscnpy8commands3fix16run_fix_deadcodeQINtNtCs1S013FBku8r_5alloc3vec3VechEECs5uXW1tGmheJ_20entry_point_cli_test
FNDA:0,_RINvNtNtCsbhXKu17xbPQ_9cytoscnpy8commands3fix27apply_dead_code_fix_to_fileQINtNtCs1S013FBku8r_5alloc3vec3VechEECs5uXW1tGmheJ_20entry_point_cli_test
FNDA:0,_RNCINvNtNtCsbhXKu17xbPQ_9cytoscnpy8commands3fix15print_fix_statsQINtNtCs1S013FBku8r_5alloc3vec3VechEE0Cs5uXW1tGmheJ_20entry_point_cli_test
FNDA:0,_RNCINvNtNtCsbhXKu17xbPQ_9cytoscnpy8commands3fix15print_fix_statsQINtNtCs1S013FBku8r_5alloc3vec3VechEEs0_0Cs5uXW1tGmheJ_20entry_point_cli_test
FNDA:0,_RNCINvNtNtCsbhXKu17xbPQ_9cytoscnpy8commands3fix15print_fix_statsQINtNtCs1S013FBku8r_5alloc3vec3VechEEs_0Cs5uXW1tGmheJ_20entry_point_cli_test
FNDA:0,_RNCINvNtNtCsbhXKu17xbPQ_9cytoscnpy8commands3fix27apply_dead_code_fix_to_fileQINtNtCs1S013FBku8r_5alloc3vec3VechEE0Cs5uXW1tGmheJ_20entry_point_cli_test
FNDA:0,_RINvNtNtCsbhXKu17xbPQ_9cytoscnpy8commands3fix15print_fix_statsQINtNtCs1S013FBku8r_5alloc3vec3VechEECsdWd4hUIhEqZ_14root_flag_test
FNDA:0,_RINvNtNtCsbhXKu17xbPQ_9cytoscnpy8commands3fix16run_fix_deadcodeQINtNtCs1S013FBku8r_5alloc3vec3VechEECsdWd4hUIhEqZ_14root_flag_test
FNDA:0,_RINvNtNtCsbhXKu17xbPQ_9cytoscnpy8commands3fix27apply_dead_code_fix_to_fileQINtNtCs1S013FBku8r_5alloc3vec3VechEECsdWd4hUIhEqZ_14root_flag_test
FNDA:0,_RNCINvNtNtCsbhXKu17xbPQ_9cytoscnpy8commands3fix15print_fix_statsQINtNtCs1S013FBku8r_5alloc3vec3VechEE0CsdWd4hUIhEqZ_14root_flag_test
FNDA:0,_RNCINvNtNtCsbhXKu17xbPQ_9cytoscnpy8commands3fix15print_fix_statsQINtNtCs1S013FBku8r_5alloc3vec3VechEEs0_0CsdWd4hUIhEqZ_14root_flag_test
FNDA:0,_RNCINvNtNtCsbhXKu17xbPQ_9cytoscnpy8commands3fix15print_fix_statsQINtNtCs1S013FBku8r_5alloc3vec3VechEEs_0CsdWd4hUIhEqZ_14root_flag_test
FNDA:0,_RNCINvNtNtCsbhXKu17xbPQ_9cytoscnpy8commands3fix27apply_dead_code_fix_to_fileQINtNtCs1S013FBku8r_5alloc3vec3VechEE0CsdWd4hUIhEqZ_14root_flag_test
FNF:16
FNH:14
DA:52,3
DA:53,3
DA:54,3
DA:55,3
DA:56,3
DA:57,3
DA:58,1
DA:59,1
DA:60,1
DA:61,1
DA:62,0
DA:64,2
DA:67,3
DA:69,3
DA:70,0
DA:71,0
DA:72,0
DA:74,0
DA:75,0
DA:76,3
DA:78,3
DA:80,3
DA:82,6
DA:83,3
DA:84,2
DA:85,2
DA:88,3
DA:89,3
DA:91,6
DA:92,6
DA:93,6
DA:94,6
DA:95,6
DA:99,9
DA:100,5
DA:101,5
DA:102,5
DA:103,4
DA:104,1
DA:106,2
DA:107,2
DA:108,1
DA:109,1
DA:111,2
DA:112,3
DA:113,2
DA:114,2
DA:115,1
DA:116,1
DA:119,0
DA:120,0
DA:121,0
DA:122,0
DA:123,0
DA:124,0
DA:127,0
DA:130,0
DA:131,6
DA:133,3
DA:134,3
DA:135,3
DA:136,3
DA:137,3
DA:138,3
DA:140,3
DA:141,6
DA:142,3
DA:143,3
DA:144,3
DA:145,3
DA:146,3
DA:147,3
DA:149,0
DA:151,3
DA:152,1
DA:153,0
DA:154,0
DA:155,0
DA:156,0
DA:157,0
DA:158,0
DA:160,2
DA:162,3
DA:163,1
DA:164,0
DA:165,0
DA:166,0
DA:167,0
DA:168,0
DA:169,0
DA:171,2
DA:173,3
DA:174,3
DA:176,3
DA:177,3
DA:178,3
DA:179,3
DA:180,3
DA:181,3
DA:182,3
DA:183,1
DA:184,1
DA:186,1
DA:187,1
DA:188,1
DA:189,1
DA:190,2
DA:191,1
DA:192,1
DA:193,0
DA:194,0
DA:195,0
DA:200,1
DA:201,1
DA:202,1
DA:203,1
DA:204,1
DA:205,1
DA:207,1
DA:208,1
DA:209,1
DA:210,1
DA:211,1
DA:212,1
DA:213,1
DA:214,1
DA:215,1
DA:216,1
DA:217,1
DA:218,1
DA:219,1
DA:220,1
DA:221,1
DA:222,1
DA:224,1
DA:225,0
DA:226,0
DA:227,0
DA:229,0
DA:230,1
DA:231,1
DA:232,2
DA:233,3
DA:234,3
DA:236,3
DA:237,3
DA:238,3
DA:239,3
DA:240,3
DA:241,3
DA:245,3
DA:247,3
DA:248,3
DA:249,0
DA:250,0
DA:251,0
DA:252,0
DA:253,0
DA:254,0
DA:256,0
DA:257,0
DA:261,3
DA:262,3
DA:263,0
DA:264,0
DA:265,0
DA:266,0
DA:267,0
DA:268,0
DA:270,0
DA:271,0
DA:275,3
DA:276,3
DA:277,3
DA:280,3
DA:281,1
DA:282,1
DA:283,1
DA:284,1
DA:286,2
DA:289,6
DA:290,3
DA:291,3
DA:292,3
DA:295,3
DA:296,1
DA:298,2
DA:301,3
DA:302,1
DA:303,1
DA:304,1
DA:307,1
DA:309,0
DA:310,2
DA:311,2
DA:312,2
DA:313,2
DA:314,0
DA:317,3
DA:318,2
DA:319,2
DA:320,2
DA:321,2
DA:322,2
DA:323,2
DA:324,2
DA:325,2
DA:326,2
DA:327,2
DA:329,0
DA:330,2
DA:331,2
DA:332,2
DA:333,2
DA:334,2
DA:335,0
DA:336,1
DA:338,1
DA:339,3
DA:350,2
DA:351,2
DA:352,2
DA:353,2
DA:354,2
DA:355,2
DA:356,2
DA:357,2
DA:358,2
DA:359,2
DA:360,2
DA:361,2
DA:362,2
DA:363,2
DA:364,2
DA:365,2
DA:366,2
DA:367,2
DA:368,2
DA:369,2
DA:370,2
DA:371,2
DA:372,2
DA:373,2
DA:374,2
DA:375,2
DA:376,2
DA:377,2
DA:379,2
DA:380,2
DA:381,2
DA:382,2
DA:383,2
DA:384,2
DA:385,2
DA:386,2
DA:387,2
DA:388,2
DA:389,2
DA:390,2
DA:391,2
DA:392,2
DA:393,2
DA:394,2
DA:395,2
DA:396,2
DA:397,2
DA:398,2
DA:399,2
DA:400,2
DA:401,2
DA:402,2
DA:403,2
DA:404,2
DA:405,2
DA:406,2
DA:407,2
DA:408,2
DA:409,2
DA:410,2
DA:411,2
DA:412,2
DA:413,2
DA:416,1
DA:417,1
DA:418,1
DA:419,1
DA:420,1
DA:421,1
DA:422,1
DA:423,1
DA:424,1
DA:426,1
DA:427,1
DA:428,1
DA:429,1
DA:430,1
DA:433,1
DA:434,1
DA:435,1
DA:436,1
DA:437,1
DA:438,1
DA:439,1
DA:440,1
DA:441,1
DA:443,1
DA:444,1
DA:445,1
DA:448,1
DA:449,1
DA:450,1
DA:451,1
DA:452,1
DA:453,1
DA:454,1
DA:456,1
DA:457,1
DA:458,1
DA:461,1
DA:462,1
DA:463,1
DA:464,1
DA:465,1
DA:466,1
DA:467,1
DA:468,1
DA:470,1
DA:472,1
DA:473,1
DA:475,1
DA:476,1
DA:477,1
DA:478,1
DA:479,1
DA:480,1
DA:481,1
DA:482,1
DA:483,1
DA:484,1
DA:486,1
DA:487,1
DA:489,1
DA:491,1
DA:492,1
DA:493,1
DA:495,1
DA:496,1
DA:497,1
DA:500,1
DA:501,1
DA:502,1
DA:503,1
DA:504,1
DA:505,1
DA:506,1
DA:507,1
DA:509,1
DA:511,1
DA:512,1
DA:514,1
DA:515,1
DA:516,1
DA:517,1
DA:518,1
DA:519,1
DA:520,1
DA:521,1
DA:522,1
DA:523,1
DA:525,1
DA:526,1
DA:528,1
DA:529,1
DA:531,1
DA:532,1
DA:533,1
BRF:0
BRH:0
LF:380
LH:317
end_of_record
SF:E:\Github\CytoScnPy\cytoscnpy\src\commands\hal.rs
FN:33,_RINvNtNtCsbhXKu17xbPQ_9cytoscnpy8commands3hal7run_halQNtNtNtCslP1BYCnN0Ot_3std2io5stdio6StdoutEB6_
FN:48,_RNCINvNtNtCsbhXKu17xbPQ_9cytoscnpy8commands3hal7run_halQNtNtNtCslP1BYCnN0Ot_3std2io5stdio6StdoutE0B8_
FN:33,_RINvNtNtCsbhXKu17xbPQ_9cytoscnpy8commands3hal7run_halQINtNtCs1S013FBku8r_5alloc3vec3VechEECsk4WInR7jcT_18absolute_path_test
FN:48,_RNCINvNtNtCsbhXKu17xbPQ_9cytoscnpy8commands3hal7run_halQINtNtCs1S013FBku8r_5alloc3vec3VechEE0Csk4WInR7jcT_18absolute_path_test
FN:33,_RINvNtNtCsbhXKu17xbPQ_9cytoscnpy8commands3hal7run_halQINtNtCs1S013FBku8r_5alloc3vec3VechEECs7iDxd3mzZu1_14cli_flags_test
FN:48,_RNCINvNtNtCsbhXKu17xbPQ_9cytoscnpy8commands3hal7run_halQINtNtCs1S013FBku8r_5alloc3vec3VechEE0Cs7iDxd3mzZu1_14cli_flags_test
FN:33,_RINvNtNtCsbhXKu17xbPQ_9cytoscnpy8commands3hal7run_halQINtNtCs1S013FBku8r_5alloc3vec3VechEECs6VGBe2Euocw_13cli_json_test
FN:48,_RNCINvNtNtCsbhXKu17xbPQ_9cytoscnpy8commands3hal7run_halQINtNtCs1S013FBku8r_5alloc3vec3VechEE0Cs6VGBe2Euocw_13cli_json_test
FN:33,_RINvNtNtCsbhXKu17xbPQ_9cytoscnpy8commands3hal7run_halQINtNtCs1S013FBku8r_5alloc3vec3VechEECsg3hQ6IUqp3w_16cli_metrics_test
FN:48,_RNCINvNtNtCsbhXKu17xbPQ_9cytoscnpy8commands3hal7run_halQINtNtCs1S013FBku8r_5alloc3vec3VechEE0Csg3hQ6IUqp3w_16cli_metrics_test
FN:33,_RINvNtNtCs2Eyh5DnjbiX_9cytoscnpy8commands3hal7run_halQNtNtNtCslP1BYCnN0Ot_3std2io5stdio6StdoutEB6_
FN:48,_RNCINvNtNtCs2Eyh5DnjbiX_9cytoscnpy8commands3hal7run_halQNtNtNtCslP1BYCnN0Ot_3std2io5stdio6StdoutE0B8_
FN:33,_RINvNtNtCsbhXKu17xbPQ_9cytoscnpy8commands3hal7run_halQINtNtCs1S013FBku8r_5alloc3vec3VechEECs5uXW1tGmheJ_20entry_point_cli_test
FN:48,_RNCINvNtNtCsbhXKu17xbPQ_9cytoscnpy8commands3hal7run_halQINtNtCs1S013FBku8r_5alloc3vec3VechEE0Cs5uXW1tGmheJ_20entry_point_cli_test
FN:33,_RINvNtNtCsbhXKu17xbPQ_9cytoscnpy8commands3hal7run_halQINtNtCs1S013FBku8r_5alloc3vec3VechEECsdWd4hUIhEqZ_14root_flag_test
FN:48,_RNCINvNtNtCsbhXKu17xbPQ_9cytoscnpy8commands3hal7run_halQINtNtCs1S013FBku8r_5alloc3vec3VechEE0CsdWd4hUIhEqZ_14root_flag_test
FNDA:0,_RINvNtNtCsbhXKu17xbPQ_9cytoscnpy8commands3hal7run_halQNtNtNtCslP1BYCnN0Ot_3std2io5stdio6StdoutEB6_
FNDA:0,_RNCINvNtNtCsbhXKu17xbPQ_9cytoscnpy8commands3hal7run_halQNtNtNtCslP1BYCnN0Ot_3std2io5stdio6StdoutE0B8_
FNDA:0,_RINvNtNtCsbhXKu17xbPQ_9cytoscnpy8commands3hal7run_halQINtNtCs1S013FBku8r_5alloc3vec3VechEECsk4WInR7jcT_18absolute_path_test
FNDA:0,_RNCINvNtNtCsbhXKu17xbPQ_9cytoscnpy8commands3hal7run_halQINtNtCs1S013FBku8r_5alloc3vec3VechEE0Csk4WInR7jcT_18absolute_path_test
FNDA:1,_RINvNtNtCsbhXKu17xbPQ_9cytoscnpy8commands3hal7run_halQINtNtCs1S013FBku8r_5alloc3vec3VechEECs7iDxd3mzZu1_14cli_flags_test
FNDA:1,_RNCINvNtNtCsbhXKu17xbPQ_9cytoscnpy8commands3hal7run_halQINtNtCs1S013FBku8r_5alloc3vec3VechEE0Cs7iDxd3mzZu1_14cli_flags_test
FNDA:1,_RINvNtNtCsbhXKu17xbPQ_9cytoscnpy8commands3hal7run_halQINtNtCs1S013FBku8r_5alloc3vec3VechEECs6VGBe2Euocw_13cli_json_test
FNDA:1,_RNCINvNtNtCsbhXKu17xbPQ_9cytoscnpy8commands3hal7run_halQINtNtCs1S013FBku8r_5alloc3vec3VechEE0Cs6VGBe2Euocw_13cli_json_test
FNDA:1,_RINvNtNtCsbhXKu17xbPQ_9cytoscnpy8commands3hal7run_halQINtNtCs1S013FBku8r_5alloc3vec3VechEECsg3hQ6IUqp3w_16cli_metrics_test
FNDA:1,_RNCINvNtNtCsbhXKu17xbPQ_9cytoscnpy8commands3hal7run_halQINtNtCs1S013FBku8r_5alloc3vec3VechEE0Csg3hQ6IUqp3w_16cli_metrics_test
FNDA:0,_RINvNtNtCs2Eyh5DnjbiX_9cytoscnpy8commands3hal7run_halQNtNtNtCslP1BYCnN0Ot_3std2io5stdio6StdoutEB6_
FNDA:0,_RNCINvNtNtCs2Eyh5DnjbiX_9cytoscnpy8commands3hal7run_halQNtNtNtCslP1BYCnN0Ot_3std2io5stdio6StdoutE0B8_
FNDA:1,_RINvNtNtCsbhXKu17xbPQ_9cytoscnpy8commands3hal7run_halQINtNtCs1S013FBku8r_5alloc3vec3VechEECs5uXW1tGmheJ_20entry_point_cli_test
FNDA:1,_RNCINvNtNtCsbhXKu17xbPQ_9cytoscnpy8commands3hal7run_halQINtNtCs1S013FBku8r_5alloc3vec3VechEE0Cs5uXW1tGmheJ_20entry_point_cli_test
FNDA:0,_RINvNtNtCsbhXKu17xbPQ_9cytoscnpy8commands3hal7run_halQINtNtCs1S013FBku8r_5alloc3vec3VechEECsdWd4hUIhEqZ_14root_flag_test
FNDA:0,_RNCINvNtNtCsbhXKu17xbPQ_9cytoscnpy8commands3hal7run_halQINtNtCs1S013FBku8r_5alloc3vec3VechEE0CsdWd4hUIhEqZ_14root_flag_test
FNF:2
FNH:2
DA:33,4
DA:34,4
DA:35,4
DA:36,4
DA:37,4
DA:38,4
DA:39,4
DA:40,4
DA:41,4
DA:42,4
DA:43,4
DA:44,4
DA:46,4
DA:47,4
DA:48,4
DA:49,4
DA:50,0
DA:51,4
DA:52,4
DA:53,4
DA:55,4
DA:56,4
DA:57,4
DA:58,4
DA:59,1
DA:60,2
DA:61,1
DA:62,1
DA:63,1
DA:64,1
DA:65,1
DA:66,1
DA:67,1
DA:68,1
DA:69,1
DA:70,1
DA:71,1
DA:72,1
DA:73,1
DA:74,3
DA:75,3
DA:76,3
DA:77,3
DA:78,3
DA:79,3
DA:80,3
DA:81,3
DA:82,3
DA:83,3
DA:84,3
DA:85,3
DA:86,3
DA:87,3
DA:88,3
DA:89,0
DA:90,4
DA:91,4
DA:92,4
DA:94,4
DA:95,2
DA:96,2
DA:97,2
DA:98,2
DA:99,0
DA:101,2
DA:102,2
DA:103,1
DA:104,1
DA:105,1
DA:106,1
DA:107,1
DA:108,1
DA:109,1
DA:110,1
DA:112,4
DA:113,2
DA:114,2
DA:115,1
DA:116,1
DA:117,2
DA:118,2
DA:119,2
DA:120,2
DA:121,2
DA:122,2
DA:123,2
DA:124,2
DA:125,2
DA:127,2
DA:129,2
DA:131,4
DA:132,4
BRF:0
BRH:0
LF:93
LH:67
end_of_record
SF:E:\Github\CytoScnPy\cytoscnpy\src\commands\mi.rs
FN:53,_RNvXNtNtCsbhXKu17xbPQ_9cytoscnpy8commands2miNtB2_8MiResultNtNtB4_5utils7HasRank4rank
FN:64,_RINvNtNtCsbhXKu17xbPQ_9cytoscnpy8commands2mi6run_miQNtNtNtCslP1BYCnN0Ot_3std2io5stdio6StdoutEB6_
FN:70,_RNCINvNtNtCsbhXKu17xbPQ_9cytoscnpy8commands2mi6run_miQNtNtNtCslP1BYCnN0Ot_3std2io5stdio6StdoutE0B8_
FN:124,_RNCINvNtNtCsbhXKu17xbPQ_9cytoscnpy8commands2mi6run_miQNtNtNtCslP1BYCnN0Ot_3std2io5stdio6StdoutEs0_0B8_
FN:64,_RINvNtNtCsbhXKu17xbPQ_9cytoscnpy8commands2mi6run_miQINtNtCs1S013FBku8r_5alloc3vec3VechEECsk4WInR7jcT_18absolute_path_test
FN:70,_RNCINvNtNtCsbhXKu17xbPQ_9cytoscnpy8commands2mi6run_miQINtNtCs1S013FBku8r_5alloc3vec3VechEE0Csk4WInR7jcT_18absolute_path_test
FN:124,_RNCINvNtNtCsbhXKu17xbPQ_9cytoscnpy8commands2mi6run_miQINtNtCs1S013FBku8r_5alloc3vec3VechEEs0_0Csk4WInR7jcT_18absolute_path_test
FN:64,_RINvNtNtCsbhXKu17xbPQ_9cytoscnpy8commands2mi6run_miQINtNtCs1S013FBku8r_5alloc3vec3VechEECs7iDxd3mzZu1_14cli_flags_test
FN:70,_RNCINvNtNtCsbhXKu17xbPQ_9cytoscnpy8commands2mi6run_miQINtNtCs1S013FBku8r_5alloc3vec3VechEE0Cs7iDxd3mzZu1_14cli_flags_test
FN:124,_RNCINvNtNtCsbhXKu17xbPQ_9cytoscnpy8commands2mi6run_miQINtNtCs1S013FBku8r_5alloc3vec3VechEEs0_0Cs7iDxd3mzZu1_14cli_flags_test
FN:64,_RINvNtNtCsbhXKu17xbPQ_9cytoscnpy8commands2mi6run_miQINtNtCs1S013FBku8r_5alloc3vec3VechEECs6VGBe2Euocw_13cli_json_test
FN:70,_RNCINvNtNtCsbhXKu17xbPQ_9cytoscnpy8commands2mi6run_miQINtNtCs1S013FBku8r_5alloc3vec3VechEE0Cs6VGBe2Euocw_13cli_json_test
FN:124,_RNCINvNtNtCsbhXKu17xbPQ_9cytoscnpy8commands2mi6run_miQINtNtCs1S013FBku8r_5alloc3vec3VechEEs0_0Cs6VGBe2Euocw_13cli_json_test
FN:64,_RINvNtNtCsbhXKu17xbPQ_9cytoscnpy8commands2mi6run_miQINtNtCs1S013FBku8r_5alloc3vec3VechEECsg3hQ6IUqp3w_16cli_metrics_test
FN:70,_RNCINvNtNtCsbhXKu17xbPQ_9cytoscnpy8commands2mi6run_miQINtNtCs1S013FBku8r_5alloc3vec3VechEE0Csg3hQ6IUqp3w_16cli_metrics_test
FN:124,_RNCINvNtNtCsbhXKu17xbPQ_9cytoscnpy8commands2mi6run_miQINtNtCs1S013FBku8r_5alloc3vec3VechEEs0_0Csg3hQ6IUqp3w_16cli_metrics_test
FN:64,_RINvNtNtCsbhXKu17xbPQ_9cytoscnpy8commands2mi6run_miQINtNtCs1S013FBku8r_5alloc3vec3VechEECs7GoSISXc5Xp_13commands_test
FN:70,_RNCINvNtNtCsbhXKu17xbPQ_9cytoscnpy8commands2mi6run_miQINtNtCs1S013FBku8r_5alloc3vec3VechEE0Cs7GoSISXc5Xp_13commands_test
FN:124,_RNCINvNtNtCsbhXKu17xbPQ_9cytoscnpy8commands2mi6run_miQINtNtCs1S013FBku8r_5alloc3vec3VechEEs0_0Cs7GoSISXc5Xp_13commands_test
FN:53,_RNvXNtNtCs2Eyh5DnjbiX_9cytoscnpy8commands2miNtB2_8MiResultNtNtB4_5utils7HasRank4rank
FN:64,_RINvNtNtCs2Eyh5DnjbiX_9cytoscnpy8commands2mi6run_miQNtNtNtCslP1BYCnN0Ot_3std2io5stdio6StdoutEB6_
FN:70,_RNCINvNtNtCs2Eyh5DnjbiX_9cytoscnpy8commands2mi6run_miQNtNtNtCslP1BYCnN0Ot_3std2io5stdio6StdoutE0B8_
FN:124,_RNCINvNtNtCs2Eyh5DnjbiX_9cytoscnpy8commands2mi6run_miQNtNtNtCslP1BYCnN0Ot_3std2io5stdio6StdoutEs0_0B8_
FN:64,_RINvNtNtCsbhXKu17xbPQ_9cytoscnpy8commands2mi6run_miQINtNtCs1S013FBku8r_5alloc3vec3VechEECs5uXW1tGmheJ_20entry_point_cli_test
FN:70,_RNCINvNtNtCsbhXKu17xbPQ_9cytoscnpy8commands2mi6run_miQINtNtCs1S013FBku8r_5alloc3vec3VechEE0Cs5uXW1tGmheJ_20entry_point_cli_test
FN:124,_RNCINvNtNtCsbhXKu17xbPQ_9cytoscnpy8commands2mi6run_miQINtNtCs1S013FBku8r_5alloc3vec3VechEEs0_0Cs5uXW1tGmheJ_20entry_point_cli_test
FN:64,_RINvNtNtCsbhXKu17xbPQ_9cytoscnpy8commands2mi6run_miQINtNtCs1S013FBku8r_5alloc3vec3VechEECs42cSN1H4Ayx_13cytoscnpy_mcp
FN:70,_RNCINvNtNtCsbhXKu17xbPQ_9cytoscnpy8commands2mi6run_miQINtNtCs1S013FBku8r_5alloc3vec3VechEE0Cs42cSN1H4Ayx_13cytoscnpy_mcp
FN:124,_RNCINvNtNtCsbhXKu17xbPQ_9cytoscnpy8commands2mi6run_miQINtNtCs1S013FBku8r_5alloc3vec3VechEEs0_0Cs42cSN1H4Ayx_13cytoscnpy_mcp
FN:64,_RINvNtNtCsbhXKu17xbPQ_9cytoscnpy8commands2mi6run_miQINtNtCs1S013FBku8r_5alloc3vec3VechEECsdWd4hUIhEqZ_14root_flag_test
FN:70,_RNCINvNtNtCsbhXKu17xbPQ_9cytoscnpy8commands2mi6run_miQINtNtCs1S013FBku8r_5alloc3vec3VechEE0CsdWd4hUIhEqZ_14root_flag_test
FN:124,_RNCINvNtNtCsbhXKu17xbPQ_9cytoscnpy8commands2mi6run_miQINtNtCs1S013FBku8r_5alloc3vec3VechEEs0_0CsdWd4hUIhEqZ_14root_flag_test
FNDA:6,_RNvXNtNtCsbhXKu17xbPQ_9cytoscnpy8commands2miNtB2_8MiResultNtNtB4_5utils7HasRank4rank
FNDA:0,_RINvNtNtCsbhXKu17xbPQ_9cytoscnpy8commands2mi6run_miQNtNtNtCslP1BYCnN0Ot_3std2io5stdio6StdoutEB6_
FNDA:0,_RNCINvNtNtCsbhXKu17xbPQ_9cytoscnpy8commands2mi6run_miQNtNtNtCslP1BYCnN0Ot_3std2io5stdio6StdoutE0B8_
FNDA:0,_RNCINvNtNtCsbhXKu17xbPQ_9cytoscnpy8commands2mi6run_miQNtNtNtCslP1BYCnN0Ot_3std2io5stdio6StdoutEs0_0B8_
FNDA:0,_RINvNtNtCsbhXKu17xbPQ_9cytoscnpy8commands2mi6run_miQINtNtCs1S013FBku8r_5alloc3vec3VechEECsk4WInR7jcT_18absolute_path_test
FNDA:0,_RNCINvNtNtCsbhXKu17xbPQ_9cytoscnpy8commands2mi6run_miQINtNtCs1S013FBku8r_5alloc3vec3VechEE0Csk4WInR7jcT_18absolute_path_test
FNDA:0,_RNCINvNtNtCsbhXKu17xbPQ_9cytoscnpy8commands2mi6run_miQINtNtCs1S013FBku8r_5alloc3vec3VechEEs0_0Csk4WInR7jcT_18absolute_path_test
FNDA:1,_RINvNtNtCsbhXKu17xbPQ_9cytoscnpy8commands2mi6run_miQINtNtCs1S013FBku8r_5alloc3vec3VechEECs7iDxd3mzZu1_14cli_flags_test
FNDA:1,_RNCINvNtNtCsbhXKu17xbPQ_9cytoscnpy8commands2mi6run_miQINtNtCs1S013FBku8r_5alloc3vec3VechEE0Cs7iDxd3mzZu1_14cli_flags_test
FNDA:0,_RNCINvNtNtCsbhXKu17xbPQ_9cytoscnpy8commands2mi6run_miQINtNtCs1S013FBku8r_5alloc3vec3VechEEs0_0Cs7iDxd3mzZu1_14cli_flags_test
FNDA:1,_RINvNtNtCsbhXKu17xbPQ_9cytoscnpy8commands2mi6run_miQINtNtCs1S013FBku8r_5alloc3vec3VechEECs6VGBe2Euocw_13cli_json_test
FNDA:1,_RNCINvNtNtCsbhXKu17xbPQ_9cytoscnpy8commands2mi6run_miQINtNtCs1S013FBku8r_5alloc3vec3VechEE0Cs6VGBe2Euocw_13cli_json_test
FNDA:0,_RNCINvNtNtCsbhXKu17xbPQ_9cytoscnpy8commands2mi6run_miQINtNtCs1S013FBku8r_5alloc3vec3VechEEs0_0Cs6VGBe2Euocw_13cli_json_test
FNDA:1,_RINvNtNtCsbhXKu17xbPQ_9cytoscnpy8commands2mi6run_miQINtNtCs1S013FBku8r_5alloc3vec3VechEECsg3hQ6IUqp3w_16cli_metrics_test
FNDA:1,_RNCINvNtNtCsbhXKu17xbPQ_9cytoscnpy8commands2mi6run_miQINtNtCs1S013FBku8r_5alloc3vec3VechEE0Csg3hQ6IUqp3w_16cli_metrics_test
FNDA:0,_RNCINvNtNtCsbhXKu17xbPQ_9cytoscnpy8commands2mi6run_miQINtNtCs1S013FBku8r_5alloc3vec3VechEEs0_0Csg3hQ6IUqp3w_16cli_metrics_test
FNDA:2,_RINvNtNtCsbhXKu17xbPQ_9cytoscnpy8commands2mi6run_miQINtNtCs1S013FBku8r_5alloc3vec3VechEECs7GoSISXc5Xp_13commands_test
FNDA:2,_RNCINvNtNtCsbhXKu17xbPQ_9cytoscnpy8commands2mi6run_miQINtNtCs1S013FBku8r_5alloc3vec3VechEE0Cs7GoSISXc5Xp_13commands_test
FNDA:0,_RNCINvNtNtCsbhXKu17xbPQ_9cytoscnpy8commands2mi6run_miQINtNtCs1S013FBku8r_5alloc3vec3VechEEs0_0Cs7GoSISXc5Xp_13commands_test
FNDA:0,_RNvXNtNtCs2Eyh5DnjbiX_9cytoscnpy8commands2miNtB2_8MiResultNtNtB4_5utils7HasRank4rank
FNDA:0,_RINvNtNtCs2Eyh5DnjbiX_9cytoscnpy8commands2mi6run_miQNtNtNtCslP1BYCnN0Ot_3std2io5stdio6StdoutEB6_
FNDA:0,_RNCINvNtNtCs2Eyh5DnjbiX_9cytoscnpy8commands2mi6run_miQNtNtNtCslP1BYCnN0Ot_3std2io5stdio6StdoutE0B8_
FNDA:0,_RNCINvNtNtCs2Eyh5DnjbiX_9cytoscnpy8commands2mi6run_miQNtNtNtCslP1BYCnN0Ot_3std2io5stdio6StdoutEs0_0B8_
FNDA:1,_RINvNtNtCsbhXKu17xbPQ_9cytoscnpy8commands2mi6run_miQINtNtCs1S013FBku8r_5alloc3vec3VechEECs5uXW1tGmheJ_20entry_point_cli_test
FNDA:1,_RNCINvNtNtCsbhXKu17xbPQ_9cytoscnpy8commands2mi6run_miQINtNtCs1S013FBku8r_5alloc3vec3VechEE0Cs5uXW1tGmheJ_20entry_point_cli_test
FNDA:0,_RNCINvNtNtCsbhXKu17xbPQ_9cytoscnpy8commands2mi6run_miQINtNtCs1S013FBku8r_5alloc3vec3VechEEs0_0Cs5uXW1tGmheJ_20entry_point_cli_test
FNDA:0,_RINvNtNtCsbhXKu17xbPQ_9cytoscnpy8commands2mi6run_miQINtNtCs1S013FBku8r_5alloc3vec3VechEECs42cSN1H4Ayx_13cytoscnpy_mcp
FNDA:0,_RNCINvNtNtCsbhXKu17xbPQ_9cytoscnpy8commands2mi6run_miQINtNtCs1S013FBku8r_5alloc3vec3VechEE0Cs42cSN1H4Ayx_13cytoscnpy_mcp
FNDA:0,_RNCINvNtNtCsbhXKu17xbPQ_9cytoscnpy8commands2mi6run_miQINtNtCs1S013FBku8r_5alloc3vec3VechEEs0_0Cs42cSN1H4Ayx_13cytoscnpy_mcp
FNDA:0,_RINvNtNtCsbhXKu17xbPQ_9cytoscnpy8commands2mi6run_miQINtNtCs1S013FBku8r_5alloc3vec3VechEECsdWd4hUIhEqZ_14root_flag_test
FNDA:0,_RNCINvNtNtCsbhXKu17xbPQ_9cytoscnpy8commands2mi6run_miQINtNtCs1S013FBku8r_5alloc3vec3VechEE0CsdWd4hUIhEqZ_14root_flag_test
FNDA:0,_RNCINvNtNtCsbhXKu17xbPQ_9cytoscnpy8commands2mi6run_miQINtNtCs1S013FBku8r_5alloc3vec3VechEEs0_0CsdWd4hUIhEqZ_14root_flag_test
FNF:4
FNH:3
DA:53,6
DA:54,6
DA:55,6
DA:64,6
DA:65,6
DA:66,6
DA:68,6
DA:69,6
DA:70,6
DA:71,6
DA:72,0
DA:73,0
DA:74,0
DA:75,0
DA:76,0
DA:77,6
DA:78,6
DA:80,6
DA:81,6
DA:83,6
DA:84,6
DA:85,6
DA:86,6
DA:87,6
DA:88,6
DA:90,6
DA:92,6
DA:93,2
DA:95,4
DA:98,6
DA:99,6
DA:101,6
DA:102,6
DA:103,6
DA:104,6
DA:105,6
DA:106,6
DA:107,6
DA:110,6
DA:111,0
DA:112,0
DA:113,0
DA:114,0
DA:116,0
DA:118,0
DA:119,0
DA:120,6
DA:123,6
DA:124,0
DA:125,0
DA:126,0
DA:127,0
DA:129,0
DA:130,0
DA:131,0
DA:132,0
DA:133,0
DA:134,6
DA:137,6
DA:139,6
DA:140,4
DA:141,4
DA:142,4
DA:143,4
DA:144,0
DA:146,2
DA:147,2
DA:148,1
DA:149,1
DA:150,1
DA:151,1
DA:153,4
DA:154,2
DA:155,2
DA:156,0
DA:157,0
DA:158,0
DA:161,2
DA:162,2
DA:163,1
DA:164,1
DA:165,2
DA:166,2
DA:168,2
DA:170,6
DA:171,6
BRF:0
BRH:0
LF:88
LH:56
end_of_record
SF:E:\Github\CytoScnPy\cytoscnpy\src\commands\raw.rs
FN:30,_RINvNtNtCsbhXKu17xbPQ_9cytoscnpy8commands3raw7run_rawQNtNtNtCslP1BYCnN0Ot_3std2io5stdio6StdoutEB6_
FN:45,_RNCINvNtNtCsbhXKu17xbPQ_9cytoscnpy8commands3raw7run_rawQNtNtNtCslP1BYCnN0Ot_3std2io5stdio6StdoutE0B8_
FN:30,_RINvNtNtCsbhXKu17xbPQ_9cytoscnpy8commands3raw7run_rawQINtNtCs1S013FBku8r_5alloc3vec3VechEECsk4WInR7jcT_18absolute_path_test
FN:45,_RNCINvNtNtCsbhXKu17xbPQ_9cytoscnpy8commands3raw7run_rawQINtNtCs1S013FBku8r_5alloc3vec3VechEE0Csk4WInR7jcT_18absolute_path_test
FN:30,_RINvNtNtCsbhXKu17xbPQ_9cytoscnpy8commands3raw7run_rawQINtNtCs1S013FBku8r_5alloc3vec3VechEECs7iDxd3mzZu1_14cli_flags_test
FN:45,_RNCINvNtNtCsbhXKu17xbPQ_9cytoscnpy8commands3raw7run_rawQINtNtCs1S013FBku8r_5alloc3vec3VechEE0Cs7iDxd3mzZu1_14cli_flags_test
FN:30,_RINvNtNtCsbhXKu17xbPQ_9cytoscnpy8commands3raw7run_rawQINtNtCs1S013FBku8r_5alloc3vec3VechEECs6VGBe2Euocw_13cli_json_test
FN:45,_RNCINvNtNtCsbhXKu17xbPQ_9cytoscnpy8commands3raw7run_rawQINtNtCs1S013FBku8r_5alloc3vec3VechEE0Cs6VGBe2Euocw_13cli_json_test
FN:30,_RINvNtNtCsbhXKu17xbPQ_9cytoscnpy8commands3raw7run_rawQINtNtCs1S013FBku8r_5alloc3vec3VechEECsg3hQ6IUqp3w_16cli_metrics_test
FN:45,_RNCINvNtNtCsbhXKu17xbPQ_9cytoscnpy8commands3raw7run_rawQINtNtCs1S013FBku8r_5alloc3vec3VechEE0Csg3hQ6IUqp3w_16cli_metrics_test
FN:30,_RINvNtNtCs2Eyh5DnjbiX_9cytoscnpy8commands3raw7run_rawQNtNtNtCslP1BYCnN0Ot_3std2io5stdio6StdoutEB6_
FN:45,_RNCINvNtNtCs2Eyh5DnjbiX_9cytoscnpy8commands3raw7run_rawQNtNtNtCslP1BYCnN0Ot_3std2io5stdio6StdoutE0B8_
FN:30,_RINvNtNtCsbhXKu17xbPQ_9cytoscnpy8commands3raw7run_rawQINtNtCs1S013FBku8r_5alloc3vec3VechEECs5uXW1tGmheJ_20entry_point_cli_test
FN:45,_RNCINvNtNtCsbhXKu17xbPQ_9cytoscnpy8commands3raw7run_rawQINtNtCs1S013FBku8r_5alloc3vec3VechEE0Cs5uXW1tGmheJ_20entry_point_cli_test
FN:30,_RINvNtNtCsbhXKu17xbPQ_9cytoscnpy8commands3raw7run_rawQINtNtCs1S013FBku8r_5alloc3vec3VechEECsdWd4hUIhEqZ_14root_flag_test
FN:45,_RNCINvNtNtCsbhXKu17xbPQ_9cytoscnpy8commands3raw7run_rawQINtNtCs1S013FBku8r_5alloc3vec3VechEE0CsdWd4hUIhEqZ_14root_flag_test
FNDA:0,_RINvNtNtCsbhXKu17xbPQ_9cytoscnpy8commands3raw7run_rawQNtNtNtCslP1BYCnN0Ot_3std2io5stdio6StdoutEB6_
FNDA:0,_RNCINvNtNtCsbhXKu17xbPQ_9cytoscnpy8commands3raw7run_rawQNtNtNtCslP1BYCnN0Ot_3std2io5stdio6StdoutE0B8_
FNDA:0,_RINvNtNtCsbhXKu17xbPQ_9cytoscnpy8commands3raw7run_rawQINtNtCs1S013FBku8r_5alloc3vec3VechEECsk4WInR7jcT_18absolute_path_test
FNDA:0,_RNCINvNtNtCsbhXKu17xbPQ_9cytoscnpy8commands3raw7run_rawQINtNtCs1S013FBku8r_5alloc3vec3VechEE0Csk4WInR7jcT_18absolute_path_test
FNDA:1,_RINvNtNtCsbhXKu17xbPQ_9cytoscnpy8commands3raw7run_rawQINtNtCs1S013FBku8r_5alloc3vec3VechEECs7iDxd3mzZu1_14cli_flags_test
FNDA:2,_RNCINvNtNtCsbhXKu17xbPQ_9cytoscnpy8commands3raw7run_rawQINtNtCs1S013FBku8r_5alloc3vec3VechEE0Cs7iDxd3mzZu1_14cli_flags_test
FNDA:3,_RINvNtNtCsbhXKu17xbPQ_9cytoscnpy8commands3raw7run_rawQINtNtCs1S013FBku8r_5alloc3vec3VechEECs6VGBe2Euocw_13cli_json_test
FNDA:5,_RNCINvNtNtCsbhXKu17xbPQ_9cytoscnpy8commands3raw7run_rawQINtNtCs1S013FBku8r_5alloc3vec3VechEE0Cs6VGBe2Euocw_13cli_json_test
FNDA:2,_RINvNtNtCsbhXKu17xbPQ_9cytoscnpy8commands3raw7run_rawQINtNtCs1S013FBku8r_5alloc3vec3VechEECsg3hQ6IUqp3w_16cli_metrics_test
FNDA:2,_RNCINvNtNtCsbhXKu17xbPQ_9cytoscnpy8commands3raw7run_rawQINtNtCs1S013FBku8r_5alloc3vec3VechEE0Csg3hQ6IUqp3w_16cli_metrics_test
FNDA:0,_RINvNtNtCs2Eyh5DnjbiX_9cytoscnpy8commands3raw7run_rawQNtNtNtCslP1BYCnN0Ot_3std2io5stdio6StdoutEB6_
FNDA:0,_RNCINvNtNtCs2Eyh5DnjbiX_9cytoscnpy8commands3raw7run_rawQNtNtNtCslP1BYCnN0Ot_3std2io5stdio6StdoutE0B8_
FNDA:1,_RINvNtNtCsbhXKu17xbPQ_9cytoscnpy8commands3raw7run_rawQINtNtCs1S013FBku8r_5alloc3vec3VechEECs5uXW1tGmheJ_20entry_point_cli_test
FNDA:1,_RNCINvNtNtCsbhXKu17xbPQ_9cytoscnpy8commands3raw7run_rawQINtNtCs1S013FBku8r_5alloc3vec3VechEE0Cs5uXW1tGmheJ_20entry_point_cli_test
FNDA:0,_RINvNtNtCsbhXKu17xbPQ_9cytoscnpy8commands3raw7run_rawQINtNtCs1S013FBku8r_5alloc3vec3VechEECsdWd4hUIhEqZ_14root_flag_test
FNDA:0,_RNCINvNtNtCsbhXKu17xbPQ_9cytoscnpy8commands3raw7run_rawQINtNtCs1S013FBku8r_5alloc3vec3VechEE0CsdWd4hUIhEqZ_14root_flag_test
FNF:2
FNH:2
DA:30,7
DA:31,7
DA:32,7
DA:33,7
DA:34,7
DA:35,7
DA:36,7
DA:37,7
DA:38,7
DA:39,7
DA:40,7
DA:41,7
DA:43,7
DA:44,7
DA:45,10
DA:46,10
DA:47,0
DA:48,0
DA:49,0
DA:50,0
DA:51,0
DA:52,0
DA:53,0
DA:54,0
DA:55,0
DA:56,10
DA:57,10
DA:58,10
DA:59,10
DA:60,10
DA:61,10
DA:62,10
DA:63,10
DA:64,10
DA:65,10
DA:66,10
DA:67,10
DA:68,10
DA:69,7
DA:71,7
DA:72,1
DA:73,1
DA:74,1
DA:75,1
DA:76,1
DA:77,1
DA:78,1
DA:80,1
DA:81,0
DA:82,0
DA:83,0
DA:84,0
DA:85,0
DA:86,0
DA:87,0
DA:88,0
DA:90,0
DA:91,0
DA:92,0
DA:93,0
DA:94,0
DA:96,1
DA:97,1
DA:98,1
DA:100,1
DA:101,1
DA:102,1
DA:103,1
DA:104,1
DA:105,1
DA:106,1
DA:107,1
DA:109,1
DA:111,1
DA:112,6
DA:114,6
DA:115,5
DA:116,5
DA:117,5
DA:118,5
DA:119,0
DA:121,1
DA:122,1
DA:123,1
DA:126,2
DA:127,1
DA:128,1
DA:129,1
DA:130,1
DA:131,1
DA:132,1
DA:133,1
DA:134,1
DA:135,1
DA:136,1
DA:137,1
DA:139,6
DA:140,7
BRF:0
BRH:0
LF:99
LH:55
end_of_record
SF:E:\Github\CytoScnPy\cytoscnpy\src\commands\stats.rs
FN:376,_RINvNtNtCsbhXKu17xbPQ_9cytoscnpy8commands5stats9run_statspEB6_
FN:128,_RINvNtNtCsbhXKu17xbPQ_9cytoscnpy8commands5stats12run_stats_v2QNtNtNtCslP1BYCnN0Ot_3std2io5stdio6StdoutEB6_
FN:268,_RINvNtNtCsbhXKu17xbPQ_9cytoscnpy8commands5stats21generate_stats_outputQNtNtNtCslP1BYCnN0Ot_3std2io5stdio6StdoutEB6_
FN:308,_RINvNtNtCsbhXKu17xbPQ_9cytoscnpy8commands5stats9run_filesQNtNtNtCslP1BYCnN0Ot_3std2io5stdio6StdoutEB6_
FN:173,_RNCINvNtNtCsbhXKu17xbPQ_9cytoscnpy8commands5stats12run_stats_v2QNtNtNtCslP1BYCnN0Ot_3std2io5stdio6StdoutE0B8_
FN:319,_RNCINvNtNtCsbhXKu17xbPQ_9cytoscnpy8commands5stats9run_filesQNtNtNtCslP1BYCnN0Ot_3std2io5stdio6StdoutE0B8_
FN:351,_RNCINvNtNtCsbhXKu17xbPQ_9cytoscnpy8commands5stats9run_filesQNtNtNtCslP1BYCnN0Ot_3std2io5stdio6StdoutEs0_0B8_
FN:352,_RNCINvNtNtCsbhXKu17xbPQ_9cytoscnpy8commands5stats9run_filesQNtNtNtCslP1BYCnN0Ot_3std2io5stdio6StdoutEs1_0B8_
FN:320,_RNCINvNtNtCsbhXKu17xbPQ_9cytoscnpy8commands5stats9run_filesQNtNtNtCslP1BYCnN0Ot_3std2io5stdio6StdoutEs_0B8_
FN:323,_RNCNCINvNtNtCsbhXKu17xbPQ_9cytoscnpy8commands5stats9run_filesQNtNtNtCslP1BYCnN0Ot_3std2io5stdio6StdoutEs_00Ba_
FN:238,_RNCNCNvNtNtCsbhXKu17xbPQ_9cytoscnpy8commands5stats19create_stats_report00B9_
FN:258,_RNCNCNvNtNtCsbhXKu17xbPQ_9cytoscnpy8commands5stats19create_stats_reports0_00B9_
FN:248,_RNCNCNvNtNtCsbhXKu17xbPQ_9cytoscnpy8commands5stats19create_stats_reports_00B9_
FN:456,_RNCNCNvNtNtCsbhXKu17xbPQ_9cytoscnpy8commands5stats21collect_project_statss0_00B9_
FN:235,_RNCNvNtNtCsbhXKu17xbPQ_9cytoscnpy8commands5stats19create_stats_report0B7_
FN:255,_RNCNvNtNtCsbhXKu17xbPQ_9cytoscnpy8commands5stats19create_stats_reports0_0B7_
FN:245,_RNCNvNtNtCsbhXKu17xbPQ_9cytoscnpy8commands5stats19create_stats_reports_0B7_
FN:447,_RNCNvNtNtCsbhXKu17xbPQ_9cytoscnpy8commands5stats21collect_project_stats0B7_
FN:453,_RNCNvNtNtCsbhXKu17xbPQ_9cytoscnpy8commands5stats21collect_project_statss0_0B7_
FN:470,_RNCNvNtNtCsbhXKu17xbPQ_9cytoscnpy8commands5stats21collect_project_statss1_0B7_
FN:471,_RNCNvNtNtCsbhXKu17xbPQ_9cytoscnpy8commands5stats21collect_project_statss2_0B7_
FN:475,_RNCNvNtNtCsbhXKu17xbPQ_9cytoscnpy8commands5stats21collect_project_statss4_0B7_
FN:452,_RNCNvNtNtCsbhXKu17xbPQ_9cytoscnpy8commands5stats21collect_project_statss_0B7_
FN:563,_RNCNvNtNtCsbhXKu17xbPQ_9cytoscnpy8commands5stats24generate_markdown_report0B7_
FN:584,_RNCNvNtNtCsbhXKu17xbPQ_9cytoscnpy8commands5stats24generate_markdown_reports0_0B7_
FN:585,_RNCNvNtNtCsbhXKu17xbPQ_9cytoscnpy8commands5stats24generate_markdown_reports1_0B7_
FN:607,_RNCNvNtNtCsbhXKu17xbPQ_9cytoscnpy8commands5stats24generate_markdown_reports2_0B7_
FN:608,_RNCNvNtNtCsbhXKu17xbPQ_9cytoscnpy8commands5stats24generate_markdown_reports3_0B7_
FN:630,_RNCNvNtNtCsbhXKu17xbPQ_9cytoscnpy8commands5stats24generate_markdown_reports4_0B7_
FN:631,_RNCNvNtNtCsbhXKu17xbPQ_9cytoscnpy8commands5stats24generate_markdown_reports5_0B7_
FN:564,_RNCNvNtNtCsbhXKu17xbPQ_9cytoscnpy8commands5stats24generate_markdown_reports_0B7_
FN:111,_RNvMNtNtCsbhXKu17xbPQ_9cytoscnpy8commands5statsNtB2_11ScanOptions14include_danger
FN:99,_RNvMNtNtCsbhXKu17xbPQ_9cytoscnpy8commands5statsNtB2_11ScanOptions14is_any_enabled
FN:117,_RNvMNtNtCsbhXKu17xbPQ_9cytoscnpy8commands5statsNtB2_11ScanOptions15include_quality
FN:105,_RNvMNtNtCsbhXKu17xbPQ_9cytoscnpy8commands5statsNtB2_11ScanOptions15include_secrets
FN:210,_RNvNtNtCsbhXKu17xbPQ_9cytoscnpy8commands5stats19create_stats_report
FN:425,_RNvNtNtCsbhXKu17xbPQ_9cytoscnpy8commands5stats21collect_project_stats
FN:179,_RNvNtNtCsbhXKu17xbPQ_9cytoscnpy8commands5stats22perform_stats_analysis
FN:508,_RNvNtNtCsbhXKu17xbPQ_9cytoscnpy8commands5stats24generate_markdown_report
FN:48,_RNvNtNtCsbhXKu17xbPQ_9cytoscnpy8commands5stats27count_functions_and_classes
FN:498,_RNvNtNtCsbhXKu17xbPQ_9cytoscnpy8commands5stats27generate_markdown_report_v2
FN:128,_RINvNtNtCsbhXKu17xbPQ_9cytoscnpy8commands5stats12run_stats_v2QINtNtCs1S013FBku8r_5alloc3vec3VechEECsk4WInR7jcT_18absolute_path_test
FN:268,_RINvNtNtCsbhXKu17xbPQ_9cytoscnpy8commands5stats21generate_stats_outputQINtNtCs1S013FBku8r_5alloc3vec3VechEECsk4WInR7jcT_18absolute_path_test
FN:308,_RINvNtNtCsbhXKu17xbPQ_9cytoscnpy8commands5stats9run_filesQINtNtCs1S013FBku8r_5alloc3vec3VechEECsk4WInR7jcT_18absolute_path_test
FN:173,_RNCINvNtNtCsbhXKu17xbPQ_9cytoscnpy8commands5stats12run_stats_v2QINtNtCs1S013FBku8r_5alloc3vec3VechEE0Csk4WInR7jcT_18absolute_path_test
FN:319,_RNCINvNtNtCsbhXKu17xbPQ_9cytoscnpy8commands5stats9run_filesQINtNtCs1S013FBku8r_5alloc3vec3VechEE0Csk4WInR7jcT_18absolute_path_test
FN:351,_RNCINvNtNtCsbhXKu17xbPQ_9cytoscnpy8commands5stats9run_filesQINtNtCs1S013FBku8r_5alloc3vec3VechEEs0_0Csk4WInR7jcT_18absolute_path_test
FN:352,_RNCINvNtNtCsbhXKu17xbPQ_9cytoscnpy8commands5stats9run_filesQINtNtCs1S013FBku8r_5alloc3vec3VechEEs1_0Csk4WInR7jcT_18absolute_path_test
FN:320,_RNCINvNtNtCsbhXKu17xbPQ_9cytoscnpy8commands5stats9run_filesQINtNtCs1S013FBku8r_5alloc3vec3VechEEs_0Csk4WInR7jcT_18absolute_path_test
FN:323,_RNCNCINvNtNtCsbhXKu17xbPQ_9cytoscnpy8commands5stats9run_filesQINtNtCs1S013FBku8r_5alloc3vec3VechEEs_00Csk4WInR7jcT_18absolute_path_test
FN:128,_RINvNtNtCsbhXKu17xbPQ_9cytoscnpy8commands5stats12run_stats_v2QINtNtCs1S013FBku8r_5alloc3vec3VechEECsg3hQ6IUqp3w_16cli_metrics_test
FN:268,_RINvNtNtCsbhXKu17xbPQ_9cytoscnpy8commands5stats21generate_stats_outputQINtNtCs1S013FBku8r_5alloc3vec3VechEECsg3hQ6IUqp3w_16cli_metrics_test
FN:308,_RINvNtNtCsbhXKu17xbPQ_9cytoscnpy8commands5stats9run_filesQINtNtCs1S013FBku8r_5alloc3vec3VechEECsg3hQ6IUqp3w_16cli_metrics_test
FN:376,_RINvNtNtCsbhXKu17xbPQ_9cytoscnpy8commands5stats9run_statsQINtNtCs1S013FBku8r_5alloc3vec3VechEECsg3hQ6IUqp3w_16cli_metrics_test
FN:173,_RNCINvNtNtCsbhXKu17xbPQ_9cytoscnpy8commands5stats12run_stats_v2QINtNtCs1S013FBku8r_5alloc3vec3VechEE0Csg3hQ6IUqp3w_16cli_metrics_test
FN:319,_RNCINvNtNtCsbhXKu17xbPQ_9cytoscnpy8commands5stats9run_filesQINtNtCs1S013FBku8r_5alloc3vec3VechEE0Csg3hQ6IUqp3w_16cli_metrics_test
FN:351,_RNCINvNtNtCsbhXKu17xbPQ_9cytoscnpy8commands5stats9run_filesQINtNtCs1S013FBku8r_5alloc3vec3VechEEs0_0Csg3hQ6IUqp3w_16cli_metrics_test
FN:352,_RNCINvNtNtCsbhXKu17xbPQ_9cytoscnpy8commands5stats9run_filesQINtNtCs1S013FBku8r_5alloc3vec3VechEEs1_0Csg3hQ6IUqp3w_16cli_metrics_test
FN:320,_RNCINvNtNtCsbhXKu17xbPQ_9cytoscnpy8commands5stats9run_filesQINtNtCs1S013FBku8r_5alloc3vec3VechEEs_0Csg3hQ6IUqp3w_16cli_metrics_test
FN:323,_RNCNCINvNtNtCsbhXKu17xbPQ_9cytoscnpy8commands5stats9run_filesQINtNtCs1S013FBku8r_5alloc3vec3VechEEs_00Csg3hQ6IUqp3w_16cli_metrics_test
FN:128,_RINvNtNtCs2Eyh5DnjbiX_9cytoscnpy8commands5stats12run_stats_v2QNtNtNtCslP1BYCnN0Ot_3std2io5stdio6StdoutEB6_
FN:268,_RINvNtNtCs2Eyh5DnjbiX_9cytoscnpy8commands5stats21generate_stats_outputQNtNtNtCslP1BYCnN0Ot_3std2io5stdio6StdoutEB6_
FN:308,_RINvNtNtCs2Eyh5DnjbiX_9cytoscnpy8commands5stats9run_filesQNtNtNtCslP1BYCnN0Ot_3std2io5stdio6StdoutEB6_
FN:173,_RNCINvNtNtCs2Eyh5DnjbiX_9cytoscnpy8commands5stats12run_stats_v2QNtNtNtCslP1BYCnN0Ot_3std2io5stdio6StdoutE0B8_
FN:319,_RNCINvNtNtCs2Eyh5DnjbiX_9cytoscnpy8commands5stats9run_filesQNtNtNtCslP1BYCnN0Ot_3std2io5stdio6StdoutE0B8_
FN:351,_RNCINvNtNtCs2Eyh5DnjbiX_9cytoscnpy8commands5stats9run_filesQNtNtNtCslP1BYCnN0Ot_3std2io5stdio6StdoutEs0_0B8_
FN:352,_RNCINvNtNtCs2Eyh5DnjbiX_9cytoscnpy8commands5stats9run_filesQNtNtNtCslP1BYCnN0Ot_3std2io5stdio6StdoutEs1_0B8_
FN:320,_RNCINvNtNtCs2Eyh5DnjbiX_9cytoscnpy8commands5stats9run_filesQNtNtNtCslP1BYCnN0Ot_3std2io5stdio6StdoutEs_0B8_
FN:323,_RNCNCINvNtNtCs2Eyh5DnjbiX_9cytoscnpy8commands5stats9run_filesQNtNtNtCslP1BYCnN0Ot_3std2io5stdio6StdoutEs_00Ba_
FN:238,_RNCNCNvNtNtCs2Eyh5DnjbiX_9cytoscnpy8commands5stats19create_stats_report00B9_
FN:258,_RNCNCNvNtNtCs2Eyh5DnjbiX_9cytoscnpy8commands5stats19create_stats_reports0_00B9_
FN:248,_RNCNCNvNtNtCs2Eyh5DnjbiX_9cytoscnpy8commands5stats19create_stats_reports_00B9_
FN:456,_RNCNCNvNtNtCs2Eyh5DnjbiX_9cytoscnpy8commands5stats21collect_project_statss0_00B9_
FN:235,_RNCNvNtNtCs2Eyh5DnjbiX_9cytoscnpy8commands5stats19create_stats_report0B7_
FN:255,_RNCNvNtNtCs2Eyh5DnjbiX_9cytoscnpy8commands5stats19create_stats_reports0_0B7_
FN:245,_RNCNvNtNtCs2Eyh5DnjbiX_9cytoscnpy8commands5stats19create_stats_reports_0B7_
FN:447,_RNCNvNtNtCs2Eyh5DnjbiX_9cytoscnpy8commands5stats21collect_project_stats0B7_
FN:453,_RNCNvNtNtCs2Eyh5DnjbiX_9cytoscnpy8commands5stats21collect_project_statss0_0B7_
FN:470,_RNCNvNtNtCs2Eyh5DnjbiX_9cytoscnpy8commands5stats21collect_project_statss1_0B7_
FN:471,_RNCNvNtNtCs2Eyh5DnjbiX_9cytoscnpy8commands5stats21collect_project_statss2_0B7_
FN:475,_RNCNvNtNtCs2Eyh5DnjbiX_9cytoscnpy8commands5stats21collect_project_statss4_0B7_
FN:452,_RNCNvNtNtCs2Eyh5DnjbiX_9cytoscnpy8commands5stats21collect_project_statss_0B7_
FN:563,_RNCNvNtNtCs2Eyh5DnjbiX_9cytoscnpy8commands5stats24generate_markdown_report0B7_
FN:584,_RNCNvNtNtCs2Eyh5DnjbiX_9cytoscnpy8commands5stats24generate_markdown_reports0_0B7_
FN:585,_RNCNvNtNtCs2Eyh5DnjbiX_9cytoscnpy8commands5stats24generate_markdown_reports1_0B7_
FN:607,_RNCNvNtNtCs2Eyh5DnjbiX_9cytoscnpy8commands5stats24generate_markdown_reports2_0B7_
FN:608,_RNCNvNtNtCs2Eyh5DnjbiX_9cytoscnpy8commands5stats24generate_markdown_reports3_0B7_
FN:630,_RNCNvNtNtCs2Eyh5DnjbiX_9cytoscnpy8commands5stats24generate_markdown_reports4_0B7_
FN:631,_RNCNvNtNtCs2Eyh5DnjbiX_9cytoscnpy8commands5stats24generate_markdown_reports5_0B7_
FN:564,_RNCNvNtNtCs2Eyh5DnjbiX_9cytoscnpy8commands5stats24generate_markdown_reports_0B7_
FN:376,_RINvNtNtCs2Eyh5DnjbiX_9cytoscnpy8commands5stats9run_statspEB6_
FN:111,_RNvMNtNtCs2Eyh5DnjbiX_9cytoscnpy8commands5statsNtB2_11ScanOptions14include_danger
FN:99,_RNvMNtNtCs2Eyh5DnjbiX_9cytoscnpy8commands5statsNtB2_11ScanOptions14is_any_enabled
FN:117,_RNvMNtNtCs2Eyh5DnjbiX_9cytoscnpy8commands5statsNtB2_11ScanOptions15include_quality
FN:105,_RNvMNtNtCs2Eyh5DnjbiX_9cytoscnpy8commands5statsNtB2_11ScanOptions15include_secrets
FN:210,_RNvNtNtCs2Eyh5DnjbiX_9cytoscnpy8commands5stats19create_stats_report
FN:425,_RNvNtNtCs2Eyh5DnjbiX_9cytoscnpy8commands5stats21collect_project_stats
FN:179,_RNvNtNtCs2Eyh5DnjbiX_9cytoscnpy8commands5stats22perform_stats_analysis
FN:508,_RNvNtNtCs2Eyh5DnjbiX_9cytoscnpy8commands5stats24generate_markdown_report
FN:48,_RNvNtNtCs2Eyh5DnjbiX_9cytoscnpy8commands5stats27count_functions_and_classes
FN:498,_RNvNtNtCs2Eyh5DnjbiX_9cytoscnpy8commands5stats27generate_markdown_report_v2
FN:128,_RINvNtNtCsbhXKu17xbPQ_9cytoscnpy8commands5stats12run_stats_v2QINtNtCs1S013FBku8r_5alloc3vec3VechEECs5uXW1tGmheJ_20entry_point_cli_test
FN:268,_RINvNtNtCsbhXKu17xbPQ_9cytoscnpy8commands5stats21generate_stats_outputQINtNtCs1S013FBku8r_5alloc3vec3VechEECs5uXW1tGmheJ_20entry_point_cli_test
FN:308,_RINvNtNtCsbhXKu17xbPQ_9cytoscnpy8commands5stats9run_filesQINtNtCs1S013FBku8r_5alloc3vec3VechEECs5uXW1tGmheJ_20entry_point_cli_test
FN:173,_RNCINvNtNtCsbhXKu17xbPQ_9cytoscnpy8commands5stats12run_stats_v2QINtNtCs1S013FBku8r_5alloc3vec3VechEE0Cs5uXW1tGmheJ_20entry_point_cli_test
FN:319,_RNCINvNtNtCsbhXKu17xbPQ_9cytoscnpy8commands5stats9run_filesQINtNtCs1S013FBku8r_5alloc3vec3VechEE0Cs5uXW1tGmheJ_20entry_point_cli_test
FN:351,_RNCINvNtNtCsbhXKu17xbPQ_9cytoscnpy8commands5stats9run_filesQINtNtCs1S013FBku8r_5alloc3vec3VechEEs0_0Cs5uXW1tGmheJ_20entry_point_cli_test
FN:352,_RNCINvNtNtCsbhXKu17xbPQ_9cytoscnpy8commands5stats9run_filesQINtNtCs1S013FBku8r_5alloc3vec3VechEEs1_0Cs5uXW1tGmheJ_20entry_point_cli_test
FN:320,_RNCINvNtNtCsbhXKu17xbPQ_9cytoscnpy8commands5stats9run_filesQINtNtCs1S013FBku8r_5alloc3vec3VechEEs_0Cs5uXW1tGmheJ_20entry_point_cli_test
FN:323,_RNCNCINvNtNtCsbhXKu17xbPQ_9cytoscnpy8commands5stats9run_filesQINtNtCs1S013FBku8r_5alloc3vec3VechEEs_00Cs5uXW1tGmheJ_20entry_point_cli_test
FN:128,_RINvNtNtCsbhXKu17xbPQ_9cytoscnpy8commands5stats12run_stats_v2QINtNtCs1S013FBku8r_5alloc3vec3VechEECsdWd4hUIhEqZ_14root_flag_test
FN:268,_RINvNtNtCsbhXKu17xbPQ_9cytoscnpy8commands5stats21generate_stats_outputQINtNtCs1S013FBku8r_5alloc3vec3VechEECsdWd4hUIhEqZ_14root_flag_test
FN:308,_RINvNtNtCsbhXKu17xbPQ_9cytoscnpy8commands5stats9run_filesQINtNtCs1S013FBku8r_5alloc3vec3VechEECsdWd4hUIhEqZ_14root_flag_test
FN:173,_RNCINvNtNtCsbhXKu17xbPQ_9cytoscnpy8commands5stats12run_stats_v2QINtNtCs1S013FBku8r_5alloc3vec3VechEE0CsdWd4hUIhEqZ_14root_flag_test
FN:319,_RNCINvNtNtCsbhXKu17xbPQ_9cytoscnpy8commands5stats9run_filesQINtNtCs1S013FBku8r_5alloc3vec3VechEE0CsdWd4hUIhEqZ_14root_flag_test
FN:351,_RNCINvNtNtCsbhXKu17xbPQ_9cytoscnpy8commands5stats9run_filesQINtNtCs1S013FBku8r_5alloc3vec3VechEEs0_0CsdWd4hUIhEqZ_14root_flag_test
FN:352,_RNCINvNtNtCsbhXKu17xbPQ_9cytoscnpy8commands5stats9run_filesQINtNtCs1S013FBku8r_5alloc3vec3VechEEs1_0CsdWd4hUIhEqZ_14root_flag_test
FN:320,_RNCINvNtNtCsbhXKu17xbPQ_9cytoscnpy8commands5stats9run_filesQINtNtCs1S013FBku8r_5alloc3vec3VechEEs_0CsdWd4hUIhEqZ_14root_flag_test
FN:323,_RNCNCINvNtNtCsbhXKu17xbPQ_9cytoscnpy8commands5stats9run_filesQINtNtCs1S013FBku8r_5alloc3vec3VechEEs_00CsdWd4hUIhEqZ_14root_flag_test
FNDA:0,_RINvNtNtCsbhXKu17xbPQ_9cytoscnpy8commands5stats9run_statspEB6_
FNDA:0,_RINvNtNtCsbhXKu17xbPQ_9cytoscnpy8commands5stats12run_stats_v2QNtNtNtCslP1BYCnN0Ot_3std2io5stdio6StdoutEB6_
FNDA:0,_RINvNtNtCsbhXKu17xbPQ_9cytoscnpy8commands5stats21generate_stats_outputQNtNtNtCslP1BYCnN0Ot_3std2io5stdio6StdoutEB6_
FNDA:0,_RINvNtNtCsbhXKu17xbPQ_9cytoscnpy8commands5stats9run_filesQNtNtNtCslP1BYCnN0Ot_3std2io5stdio6StdoutEB6_
FNDA:0,_RNCINvNtNtCsbhXKu17xbPQ_9cytoscnpy8commands5stats12run_stats_v2QNtNtNtCslP1BYCnN0Ot_3std2io5stdio6StdoutE0B8_
FNDA:0,_RNCINvNtNtCsbhXKu17xbPQ_9cytoscnpy8commands5stats9run_filesQNtNtNtCslP1BYCnN0Ot_3std2io5stdio6StdoutE0B8_
FNDA:0,_RNCINvNtNtCsbhXKu17xbPQ_9cytoscnpy8commands5stats9run_filesQNtNtNtCslP1BYCnN0Ot_3std2io5stdio6StdoutEs0_0B8_
FNDA:0,_RNCINvNtNtCsbhXKu17xbPQ_9cytoscnpy8commands5stats9run_filesQNtNtNtCslP1BYCnN0Ot_3std2io5stdio6StdoutEs1_0B8_
FNDA:0,_RNCINvNtNtCsbhXKu17xbPQ_9cytoscnpy8commands5stats9run_filesQNtNtNtCslP1BYCnN0Ot_3std2io5stdio6StdoutEs_0B8_
FNDA:0,_RNCNCINvNtNtCsbhXKu17xbPQ_9cytoscnpy8commands5stats9run_filesQNtNtNtCslP1BYCnN0Ot_3std2io5stdio6StdoutEs_00Ba_
FNDA:1,_RNCNCNvNtNtCsbhXKu17xbPQ_9cytoscnpy8commands5stats19create_stats_report00B9_
FNDA:10,_RNCNCNvNtNtCsbhXKu17xbPQ_9cytoscnpy8commands5stats19create_stats_reports0_00B9_
FNDA:1,_RNCNCNvNtNtCsbhXKu17xbPQ_9cytoscnpy8commands5stats19create_stats_reports_00B9_
FNDA:16,_RNCNCNvNtNtCsbhXKu17xbPQ_9cytoscnpy8commands5stats21collect_project_statss0_00B9_
FNDA:2,_RNCNvNtNtCsbhXKu17xbPQ_9cytoscnpy8commands5stats19create_stats_report0B7_
FNDA:2,_RNCNvNtNtCsbhXKu17xbPQ_9cytoscnpy8commands5stats19create_stats_reports0_0B7_
FNDA:2,_RNCNvNtNtCsbhXKu17xbPQ_9cytoscnpy8commands5stats19create_stats_reports_0B7_
FNDA:16,_RNCNvNtNtCsbhXKu17xbPQ_9cytoscnpy8commands5stats21collect_project_stats0B7_
FNDA:16,_RNCNvNtNtCsbhXKu17xbPQ_9cytoscnpy8commands5stats21collect_project_statss0_0B7_
FNDA:16,_RNCNvNtNtCsbhXKu17xbPQ_9cytoscnpy8commands5stats21collect_project_statss1_0B7_
FNDA:16,_RNCNvNtNtCsbhXKu17xbPQ_9cytoscnpy8commands5stats21collect_project_statss2_0B7_
FNDA:19,_RNCNvNtNtCsbhXKu17xbPQ_9cytoscnpy8commands5stats21collect_project_statss4_0B7_
FNDA:16,_RNCNvNtNtCsbhXKu17xbPQ_9cytoscnpy8commands5stats21collect_project_statss_0B7_
FNDA:1,_RNCNvNtNtCsbhXKu17xbPQ_9cytoscnpy8commands5stats24generate_markdown_report0B7_
FNDA:1,_RNCNvNtNtCsbhXKu17xbPQ_9cytoscnpy8commands5stats24generate_markdown_reports0_0B7_
FNDA:0,_RNCNvNtNtCsbhXKu17xbPQ_9cytoscnpy8commands5stats24generate_markdown_reports1_0B7_
FNDA:1,_RNCNvNtNtCsbhXKu17xbPQ_9cytoscnpy8commands5stats24generate_markdown_reports2_0B7_
FNDA:0,_RNCNvNtNtCsbhXKu17xbPQ_9cytoscnpy8commands5stats24generate_markdown_reports3_0B7_
FNDA:10,_RNCNvNtNtCsbhXKu17xbPQ_9cytoscnpy8commands5stats24generate_markdown_reports4_0B7_
FNDA:0,_RNCNvNtNtCsbhXKu17xbPQ_9cytoscnpy8commands5stats24generate_markdown_reports5_0B7_
FNDA:0,_RNCNvNtNtCsbhXKu17xbPQ_9cytoscnpy8commands5stats24generate_markdown_reports_0B7_
FNDA:35,_RNvMNtNtCsbhXKu17xbPQ_9cytoscnpy8commands5statsNtB2_11ScanOptions14include_danger
FNDA:15,_RNvMNtNtCsbhXKu17xbPQ_9cytoscnpy8commands5statsNtB2_11ScanOptions14is_any_enabled
FNDA:35,_RNvMNtNtCsbhXKu17xbPQ_9cytoscnpy8commands5statsNtB2_11ScanOptions15include_quality
FNDA:35,_RNvMNtNtCsbhXKu17xbPQ_9cytoscnpy8commands5statsNtB2_11ScanOptions15include_secrets
FNDA:15,_RNvNtNtCsbhXKu17xbPQ_9cytoscnpy8commands5stats19create_stats_report
FNDA:15,_RNvNtNtCsbhXKu17xbPQ_9cytoscnpy8commands5stats21collect_project_stats
FNDA:15,_RNvNtNtCsbhXKu17xbPQ_9cytoscnpy8commands5stats22perform_stats_analysis
FNDA:5,_RNvNtNtCsbhXKu17xbPQ_9cytoscnpy8commands5stats24generate_markdown_report
FNDA:16,_RNvNtNtCsbhXKu17xbPQ_9cytoscnpy8commands5stats27count_functions_and_classes
FNDA:5,_RNvNtNtCsbhXKu17xbPQ_9cytoscnpy8commands5stats27generate_markdown_report_v2
FNDA:0,_RINvNtNtCsbhXKu17xbPQ_9cytoscnpy8commands5stats12run_stats_v2QINtNtCs1S013FBku8r_5alloc3vec3VechEECsk4WInR7jcT_18absolute_path_test
FNDA:0,_RINvNtNtCsbhXKu17xbPQ_9cytoscnpy8commands5stats21generate_stats_outputQINtNtCs1S013FBku8r_5alloc3vec3VechEECsk4WInR7jcT_18absolute_path_test
FNDA:0,_RINvNtNtCsbhXKu17xbPQ_9cytoscnpy8commands5stats9run_filesQINtNtCs1S013FBku8r_5alloc3vec3VechEECsk4WInR7jcT_18absolute_path_test
FNDA:0,_RNCINvNtNtCsbhXKu17xbPQ_9cytoscnpy8commands5stats12run_stats_v2QINtNtCs1S013FBku8r_5alloc3vec3VechEE0Csk4WInR7jcT_18absolute_path_test
FNDA:0,_RNCINvNtNtCsbhXKu17xbPQ_9cytoscnpy8commands5stats9run_filesQINtNtCs1S013FBku8r_5alloc3vec3VechEE0Csk4WInR7jcT_18absolute_path_test
FNDA:0,_RNCINvNtNtCsbhXKu17xbPQ_9cytoscnpy8commands5stats9run_filesQINtNtCs1S013FBku8r_5alloc3vec3VechEEs0_0Csk4WInR7jcT_18absolute_path_test
FNDA:0,_RNCINvNtNtCsbhXKu17xbPQ_9cytoscnpy8commands5stats9run_filesQINtNtCs1S013FBku8r_5alloc3vec3VechEEs1_0Csk4WInR7jcT_18absolute_path_test
FNDA:0,_RNCINvNtNtCsbhXKu17xbPQ_9cytoscnpy8commands5stats9run_filesQINtNtCs1S013FBku8r_5alloc3vec3VechEEs_0Csk4WInR7jcT_18absolute_path_test
FNDA:0,_RNCNCINvNtNtCsbhXKu17xbPQ_9cytoscnpy8commands5stats9run_filesQINtNtCs1S013FBku8r_5alloc3vec3VechEEs_00Csk4WInR7jcT_18absolute_path_test
FNDA:13,_RINvNtNtCsbhXKu17xbPQ_9cytoscnpy8commands5stats12run_stats_v2QINtNtCs1S013FBku8r_5alloc3vec3VechEECsg3hQ6IUqp3w_16cli_metrics_test
FNDA:13,_RINvNtNtCsbhXKu17xbPQ_9cytoscnpy8commands5stats21generate_stats_outputQINtNtCs1S013FBku8r_5alloc3vec3VechEECsg3hQ6IUqp3w_16cli_metrics_test
FNDA:4,_RINvNtNtCsbhXKu17xbPQ_9cytoscnpy8commands5stats9run_filesQINtNtCs1S013FBku8r_5alloc3vec3VechEECsg3hQ6IUqp3w_16cli_metrics_test
FNDA:1,_RINvNtNtCsbhXKu17xbPQ_9cytoscnpy8commands5stats9run_statsQINtNtCs1S013FBku8r_5alloc3vec3VechEECsg3hQ6IUqp3w_16cli_metrics_test
FNDA:4,_RNCINvNtNtCsbhXKu17xbPQ_9cytoscnpy8commands5stats12run_stats_v2QINtNtCs1S013FBku8r_5alloc3vec3VechEE0Csg3hQ6IUqp3w_16cli_metrics_test
FNDA:4,_RNCINvNtNtCsbhXKu17xbPQ_9cytoscnpy8commands5stats9run_filesQINtNtCs1S013FBku8r_5alloc3vec3VechEE0Csg3hQ6IUqp3w_16cli_metrics_test
FNDA:1,_RNCINvNtNtCsbhXKu17xbPQ_9cytoscnpy8commands5stats9run_filesQINtNtCs1S013FBku8r_5alloc3vec3VechEEs0_0Csg3hQ6IUqp3w_16cli_metrics_test
FNDA:0,_RNCINvNtNtCsbhXKu17xbPQ_9cytoscnpy8commands5stats9run_filesQINtNtCs1S013FBku8r_5alloc3vec3VechEEs1_0Csg3hQ6IUqp3w_16cli_metrics_test
FNDA:4,_RNCINvNtNtCsbhXKu17xbPQ_9cytoscnpy8commands5stats9run_filesQINtNtCs1S013FBku8r_5alloc3vec3VechEEs_0Csg3hQ6IUqp3w_16cli_metrics_test
FNDA:4,_RNCNCINvNtNtCsbhXKu17xbPQ_9cytoscnpy8commands5stats9run_filesQINtNtCs1S013FBku8r_5alloc3vec3VechEEs_00Csg3hQ6IUqp3w_16cli_metrics_test
FNDA:0,_RINvNtNtCs2Eyh5DnjbiX_9cytoscnpy8commands5stats12run_stats_v2QNtNtNtCslP1BYCnN0Ot_3std2io5stdio6StdoutEB6_
FNDA:0,_RINvNtNtCs2Eyh5DnjbiX_9cytoscnpy8commands5stats21generate_stats_outputQNtNtNtCslP1BYCnN0Ot_3std2io5stdio6StdoutEB6_
FNDA:0,_RINvNtNtCs2Eyh5DnjbiX_9cytoscnpy8commands5stats9run_filesQNtNtNtCslP1BYCnN0Ot_3std2io5stdio6StdoutEB6_
FNDA:0,_RNCINvNtNtCs2Eyh5DnjbiX_9cytoscnpy8commands5stats12run_stats_v2QNtNtNtCslP1BYCnN0Ot_3std2io5stdio6StdoutE0B8_
FNDA:0,_RNCINvNtNtCs2Eyh5DnjbiX_9cytoscnpy8commands5stats9run_filesQNtNtNtCslP1BYCnN0Ot_3std2io5stdio6StdoutE0B8_
FNDA:0,_RNCINvNtNtCs2Eyh5DnjbiX_9cytoscnpy8commands5stats9run_filesQNtNtNtCslP1BYCnN0Ot_3std2io5stdio6StdoutEs0_0B8_
FNDA:0,_RNCINvNtNtCs2Eyh5DnjbiX_9cytoscnpy8commands5stats9run_filesQNtNtNtCslP1BYCnN0Ot_3std2io5stdio6StdoutEs1_0B8_
FNDA:0,_RNCINvNtNtCs2Eyh5DnjbiX_9cytoscnpy8commands5stats9run_filesQNtNtNtCslP1BYCnN0Ot_3std2io5stdio6StdoutEs_0B8_
FNDA:0,_RNCNCINvNtNtCs2Eyh5DnjbiX_9cytoscnpy8commands5stats9run_filesQNtNtNtCslP1BYCnN0Ot_3std2io5stdio6StdoutEs_00Ba_
FNDA:0,_RNCNCNvNtNtCs2Eyh5DnjbiX_9cytoscnpy8commands5stats19create_stats_report00B9_
FNDA:0,_RNCNCNvNtNtCs2Eyh5DnjbiX_9cytoscnpy8commands5stats19create_stats_reports0_00B9_
FNDA:0,_RNCNCNvNtNtCs2Eyh5DnjbiX_9cytoscnpy8commands5stats19create_stats_reports_00B9_
FNDA:0,_RNCNCNvNtNtCs2Eyh5DnjbiX_9cytoscnpy8commands5stats21collect_project_statss0_00B9_
FNDA:0,_RNCNvNtNtCs2Eyh5DnjbiX_9cytoscnpy8commands5stats19create_stats_report0B7_
FNDA:0,_RNCNvNtNtCs2Eyh5DnjbiX_9cytoscnpy8commands5stats19create_stats_reports0_0B7_
FNDA:0,_RNCNvNtNtCs2Eyh5DnjbiX_9cytoscnpy8commands5stats19create_stats_reports_0B7_
FNDA:0,_RNCNvNtNtCs2Eyh5DnjbiX_9cytoscnpy8commands5stats21collect_project_stats0B7_
FNDA:0,_RNCNvNtNtCs2Eyh5DnjbiX_9cytoscnpy8commands5stats21collect_project_statss0_0B7_
FNDA:0,_RNCNvNtNtCs2Eyh5DnjbiX_9cytoscnpy8commands5stats21collect_project_statss1_0B7_
FNDA:0,_RNCNvNtNtCs2Eyh5DnjbiX_9cytoscnpy8commands5stats21collect_project_statss2_0B7_
FNDA:0,_RNCNvNtNtCs2Eyh5DnjbiX_9cytoscnpy8commands5stats21collect_project_statss4_0B7_
FNDA:0,_RNCNvNtNtCs2Eyh5DnjbiX_9cytoscnpy8commands5stats21collect_project_statss_0B7_
FNDA:0,_RNCNvNtNtCs2Eyh5DnjbiX_9cytoscnpy8commands5stats24generate_markdown_report0B7_
FNDA:0,_RNCNvNtNtCs2Eyh5DnjbiX_9cytoscnpy8commands5stats24generate_markdown_reports0_0B7_
FNDA:0,_RNCNvNtNtCs2Eyh5DnjbiX_9cytoscnpy8commands5stats24generate_markdown_reports1_0B7_
FNDA:0,_RNCNvNtNtCs2Eyh5DnjbiX_9cytoscnpy8commands5stats24generate_markdown_reports2_0B7_
FNDA:0,_RNCNvNtNtCs2Eyh5DnjbiX_9cytoscnpy8commands5stats24generate_markdown_reports3_0B7_
FNDA:0,_RNCNvNtNtCs2Eyh5DnjbiX_9cytoscnpy8commands5stats24generate_markdown_reports4_0B7_
FNDA:0,_RNCNvNtNtCs2Eyh5DnjbiX_9cytoscnpy8commands5stats24generate_markdown_reports5_0B7_
FNDA:0,_RNCNvNtNtCs2Eyh5DnjbiX_9cytoscnpy8commands5stats24generate_markdown_reports_0B7_
FNDA:0,_RINvNtNtCs2Eyh5DnjbiX_9cytoscnpy8commands5stats9run_statspEB6_
FNDA:0,_RNvMNtNtCs2Eyh5DnjbiX_9cytoscnpy8commands5statsNtB2_11ScanOptions14include_danger
FNDA:0,_RNvMNtNtCs2Eyh5DnjbiX_9cytoscnpy8commands5statsNtB2_11ScanOptions14is_any_enabled
FNDA:0,_RNvMNtNtCs2Eyh5DnjbiX_9cytoscnpy8commands5statsNtB2_11ScanOptions15include_quality
FNDA:0,_RNvMNtNtCs2Eyh5DnjbiX_9cytoscnpy8commands5statsNtB2_11ScanOptions15include_secrets
FNDA:0,_RNvNtNtCs2Eyh5DnjbiX_9cytoscnpy8commands5stats19create_stats_report
FNDA:0,_RNvNtNtCs2Eyh5DnjbiX_9cytoscnpy8commands5stats21collect_project_stats
FNDA:0,_RNvNtNtCs2Eyh5DnjbiX_9cytoscnpy8commands5stats22perform_stats_analysis
FNDA:0,_RNvNtNtCs2Eyh5DnjbiX_9cytoscnpy8commands5stats24generate_markdown_report
FNDA:0,_RNvNtNtCs2Eyh5DnjbiX_9cytoscnpy8commands5stats27count_functions_and_classes
FNDA:0,_RNvNtNtCs2Eyh5DnjbiX_9cytoscnpy8commands5stats27generate_markdown_report_v2
FNDA:1,_RINvNtNtCsbhXKu17xbPQ_9cytoscnpy8commands5stats12run_stats_v2QINtNtCs1S013FBku8r_5alloc3vec3VechEECs5uXW1tGmheJ_20entry_point_cli_test
FNDA:1,_RINvNtNtCsbhXKu17xbPQ_9cytoscnpy8commands5stats21generate_stats_outputQINtNtCs1S013FBku8r_5alloc3vec3VechEECs5uXW1tGmheJ_20entry_point_cli_test
FNDA:1,_RINvNtNtCsbhXKu17xbPQ_9cytoscnpy8commands5stats9run_filesQINtNtCs1S013FBku8r_5alloc3vec3VechEECs5uXW1tGmheJ_20entry_point_cli_test
FNDA:0,_RNCINvNtNtCsbhXKu17xbPQ_9cytoscnpy8commands5stats12run_stats_v2QINtNtCs1S013FBku8r_5alloc3vec3VechEE0Cs5uXW1tGmheJ_20entry_point_cli_test
FNDA:1,_RNCINvNtNtCsbhXKu17xbPQ_9cytoscnpy8commands5stats9run_filesQINtNtCs1S013FBku8r_5alloc3vec3VechEE0Cs5uXW1tGmheJ_20entry_point_cli_test
FNDA:0,_RNCINvNtNtCsbhXKu17xbPQ_9cytoscnpy8commands5stats9run_filesQINtNtCs1S013FBku8r_5alloc3vec3VechEEs0_0Cs5uXW1tGmheJ_20entry_point_cli_test
FNDA:0,_RNCINvNtNtCsbhXKu17xbPQ_9cytoscnpy8commands5stats9run_filesQINtNtCs1S013FBku8r_5alloc3vec3VechEEs1_0Cs5uXW1tGmheJ_20entry_point_cli_test
FNDA:1,_RNCINvNtNtCsbhXKu17xbPQ_9cytoscnpy8commands5stats9run_filesQINtNtCs1S013FBku8r_5alloc3vec3VechEEs_0Cs5uXW1tGmheJ_20entry_point_cli_test
FNDA:1,_RNCNCINvNtNtCsbhXKu17xbPQ_9cytoscnpy8commands5stats9run_filesQINtNtCs1S013FBku8r_5alloc3vec3VechEEs_00Cs5uXW1tGmheJ_20entry_point_cli_test
FNDA:1,_RINvNtNtCsbhXKu17xbPQ_9cytoscnpy8commands5stats12run_stats_v2QINtNtCs1S013FBku8r_5alloc3vec3VechEECsdWd4hUIhEqZ_14root_flag_test
FNDA:1,_RINvNtNtCsbhXKu17xbPQ_9cytoscnpy8commands5stats21generate_stats_outputQINtNtCs1S013FBku8r_5alloc3vec3VechEECsdWd4hUIhEqZ_14root_flag_test
FNDA:0,_RINvNtNtCsbhXKu17xbPQ_9cytoscnpy8commands5stats9run_filesQINtNtCs1S013FBku8r_5alloc3vec3VechEECsdWd4hUIhEqZ_14root_flag_test
FNDA:0,_RNCINvNtNtCsbhXKu17xbPQ_9cytoscnpy8commands5stats12run_stats_v2QINtNtCs1S013FBku8r_5alloc3vec3VechEE0CsdWd4hUIhEqZ_14root_flag_test
FNDA:0,_RNCINvNtNtCsbhXKu17xbPQ_9cytoscnpy8commands5stats9run_filesQINtNtCs1S013FBku8r_5alloc3vec3VechEE0CsdWd4hUIhEqZ_14root_flag_test
FNDA:0,_RNCINvNtNtCsbhXKu17xbPQ_9cytoscnpy8commands5stats9run_filesQINtNtCs1S013FBku8r_5alloc3vec3VechEEs0_0CsdWd4hUIhEqZ_14root_flag_test
FNDA:0,_RNCINvNtNtCsbhXKu17xbPQ_9cytoscnpy8commands5stats9run_filesQINtNtCs1S013FBku8r_5alloc3vec3VechEEs1_0CsdWd4hUIhEqZ_14root_flag_test
FNDA:0,_RNCINvNtNtCsbhXKu17xbPQ_9cytoscnpy8commands5stats9run_filesQINtNtCs1S013FBku8r_5alloc3vec3VechEEs_0CsdWd4hUIhEqZ_14root_flag_test
FNDA:0,_RNCNCINvNtNtCsbhXKu17xbPQ_9cytoscnpy8commands5stats9run_filesQINtNtCs1S013FBku8r_5alloc3vec3VechEEs_00CsdWd4hUIhEqZ_14root_flag_test
FNF:41
FNH:36
DA:48,16
DA:50,16
DA:51,16
DA:52,16
DA:53,16
DA:54,37
DA:55,21
DA:56,15
DA:57,3
DA:58,3
DA:59,6
DA:60,3
DA:61,3
DA:62,3
DA:65,3
DA:68,16
DA:70,0
DA:72,16
DA:99,15
DA:100,15
DA:101,15
DA:105,35
DA:106,35
DA:107,35
DA:111,35
DA:112,35
DA:113,35
DA:117,35
DA:118,35
DA:119,35
DA:128,15
DA:129,15
DA:130,15
DA:131,15
DA:132,15
DA:133,15
DA:134,15
DA:135,15
DA:136,15
DA:137,15
DA:138,15
DA:139,15
DA:140,15
DA:141,3
DA:142,3
DA:143,3
DA:144,0
DA:146,12
DA:149,15
DA:151,15
DA:152,15
DA:153,15
DA:154,15
DA:155,15
DA:156,15
DA:157,15
DA:158,15
DA:159,15
DA:161,15
DA:162,15
DA:163,15
DA:164,15
DA:165,15
DA:166,15
DA:167,15
DA:168,0
DA:171,15
DA:172,15
DA:173,15
DA:174,15
DA:176,15
DA:177,15
DA:179,15
DA:180,15
DA:181,15
DA:182,15
DA:183,15
DA:184,15
DA:185,15
DA:186,15
DA:187,15
DA:188,15
DA:189,15
DA:190,15
DA:192,15
DA:193,4
DA:194,4
DA:195,4
DA:196,4
DA:197,4
DA:198,4
DA:199,4
DA:200,4
DA:201,4
DA:203,11
DA:206,15
DA:207,15
DA:208,15
DA:210,15
DA:211,15
DA:212,15
DA:213,15
DA:214,15
DA:215,15
DA:216,15
DA:217,15
DA:220,15
DA:221,15
DA:222,15
DA:223,15
DA:224,15
DA:225,15
DA:226,15
DA:227,15
DA:228,15
DA:229,15
DA:230,1
DA:232,14
DA:234,15
DA:235,2
DA:236,2
DA:237,2
DA:238,2
DA:239,2
DA:240,2
DA:242,13
DA:244,15
DA:245,2
DA:246,2
DA:247,2
DA:248,2
DA:249,2
DA:250,2
DA:252,13
DA:254,15
DA:255,2
DA:256,2
DA:257,2
DA:258,10
DA:259,2
DA:260,2
DA:262,13
DA:265,15
DA:268,15
DA:269,15
DA:270,15
DA:271,15
DA:272,15
DA:273,15
DA:274,15
DA:275,15
DA:276,15
DA:277,10
DA:278,10
DA:279,1
DA:280,1
DA:282,9
DA:285,5
DA:287,5
DA:288,2
DA:289,2
DA:290,2
DA:291,2
DA:292,2
DA:293,2
DA:294,0
DA:296,3
DA:299,15
DA:300,15
DA:308,5
DA:309,5
DA:310,5
DA:311,5
DA:312,5
DA:313,5
DA:314,5
DA:315,5
DA:317,5
DA:318,5
DA:319,5
DA:320,5
DA:321,5
DA:322,5
DA:323,5
DA:324,5
DA:325,5
DA:326,5
DA:327,5
DA:328,5
DA:329,5
DA:330,5
DA:331,5
DA:332,5
DA:333,5
DA:335,5
DA:336,4
DA:338,1
DA:339,1
DA:341,1
DA:342,1
DA:343,1
DA:344,1
DA:345,1
DA:348,2
DA:349,1
DA:350,1
DA:351,1
DA:352,1
DA:353,1
DA:354,1
DA:355,1
DA:356,1
DA:357,1
DA:358,1
DA:359,1
DA:363,1
DA:366,5
DA:367,5
DA:376,1
DA:377,1
DA:378,1
DA:379,1
DA:380,1
DA:381,1
DA:382,1
DA:383,1
DA:384,1
DA:385,1
DA:386,1
DA:387,1
DA:388,1
DA:389,1
DA:390,1
DA:391,1
DA:392,1
DA:393,1
DA:394,1
DA:395,1
DA:396,1
DA:397,1
DA:398,1
DA:399,1
DA:400,1
DA:401,1
DA:402,1
DA:404,1
DA:405,1
DA:406,1
DA:407,1
DA:409,1
DA:425,15
DA:426,15
DA:427,15
DA:428,15
DA:429,15
DA:430,15
DA:431,15
DA:432,15
DA:433,15
DA:434,30
DA:435,15
DA:436,15
DA:437,15
DA:438,15
DA:439,15
DA:440,15
DA:441,15
DA:442,15
DA:443,15
DA:444,15
DA:446,15
DA:447,16
DA:448,1
DA:450,15
DA:451,15
DA:452,16
DA:453,16
DA:454,16
DA:455,16
DA:456,16
DA:457,16
DA:458,16
DA:459,16
DA:460,16
DA:461,16
DA:462,16
DA:463,16
DA:464,16
DA:465,16
DA:466,15
DA:468,15
DA:469,15
DA:470,16
DA:471,16
DA:472,16
DA:473,16
DA:474,16
DA:475,19
DA:477,15
DA:478,15
DA:479,15
DA:480,15
DA:481,15
DA:482,15
DA:484,15
DA:485,15
DA:486,15
DA:487,15
DA:488,15
DA:489,15
DA:490,15
DA:491,15
DA:492,15
DA:493,15
DA:494,15
DA:495,15
DA:496,15
DA:498,5
DA:499,5
DA:500,5
DA:501,5
DA:502,5
DA:503,5
DA:504,5
DA:505,5
DA:508,5
DA:509,5
DA:510,5
DA:511,5
DA:512,5
DA:513,5
DA:514,5
DA:515,5
DA:516,5
DA:517,5
DA:518,5
DA:519,5
DA:520,5
DA:521,5
DA:522,5
DA:523,5
DA:524,5
DA:525,5
DA:526,5
DA:527,5
DA:528,5
DA:529,5
DA:530,5
DA:531,5
DA:532,5
DA:533,5
DA:534,5
DA:535,5
DA:536,5
DA:537,5
DA:538,5
DA:539,5
DA:540,5
DA:541,5
DA:542,5
DA:543,5
DA:544,5
DA:545,5
DA:546,5
DA:547,5
DA:548,5
DA:549,5
DA:550,5
DA:551,5
DA:552,5
DA:553,5
DA:554,5
DA:556,5
DA:557,1
DA:558,1
DA:559,1
DA:560,2
DA:561,1
DA:562,1
DA:563,1
DA:564,1
DA:565,1
DA:566,1
DA:567,1
DA:568,1
DA:570,4
DA:572,5
DA:573,2
DA:574,2
DA:575,2
DA:576,1
DA:577,1
DA:578,1
DA:579,1
DA:580,2
DA:581,1
DA:582,1
DA:583,1
DA:584,1
DA:585,1
DA:586,1
DA:587,1
DA:588,1
DA:589,1
DA:592,0
DA:593,3
DA:595,5
DA:596,2
DA:597,2
DA:598,2
DA:599,1
DA:600,1
DA:601,1
DA:602,1
DA:603,2
DA:604,1
DA:605,1
DA:606,1
DA:607,1
DA:608,1
DA:609,1
DA:610,1
DA:611,1
DA:612,1
DA:615,0
DA:616,3
DA:618,5
DA:619,2
DA:620,2
DA:621,2
DA:622,1
DA:623,1
DA:624,1
DA:625,1
DA:626,11
DA:627,10
DA:628,10
DA:629,10
DA:630,10
DA:631,10
DA:632,10
DA:633,10
DA:634,10
DA:635,10
DA:638,0
DA:639,3
DA:641,5
DA:642,5
BRF:0
BRH:0
LF:475
LH:463
end_of_record
SF:E:\Github\CytoScnPy\cytoscnpy\src\commands\utils.rs
FN:52,_RINvNtNtCsbhXKu17xbPQ_9cytoscnpy8commands5utils12write_outputQNtNtNtCslP1BYCnN0Ot_3std2io5stdio6StdoutEB6_
FN:35,_RINvNtNtCsbhXKu17xbPQ_9cytoscnpy8commands5utils14filter_by_rankNtNtB4_2cc8CcResultEB6_
FN:35,_RINvNtNtCsbhXKu17xbPQ_9cytoscnpy8commands5utils14filter_by_rankNtNtB4_2mi8MiResultEB6_
FN:42,_RNCINvNtNtCsbhXKu17xbPQ_9cytoscnpy8commands5utils14filter_by_rankNtNtB6_2cc8CcResultE0B8_
FN:42,_RNCINvNtNtCsbhXKu17xbPQ_9cytoscnpy8commands5utils14filter_by_rankNtNtB6_2mi8MiResultE0B8_
FN:44,_RNCNCINvNtNtCsbhXKu17xbPQ_9cytoscnpy8commands5utils14filter_by_rankNtNtB8_2cc8CcResultE00Ba_
FN:45,_RNCNCINvNtNtCsbhXKu17xbPQ_9cytoscnpy8commands5utils14filter_by_rankNtNtB8_2cc8CcResultE0s_0Ba_
FN:44,_RNCNCINvNtNtCsbhXKu17xbPQ_9cytoscnpy8commands5utils14filter_by_rankNtNtB8_2mi8MiResultE00Ba_
FN:45,_RNCNCINvNtNtCsbhXKu17xbPQ_9cytoscnpy8commands5utils14filter_by_rankNtNtB8_2mi8MiResultE0s_0Ba_
FN:22,_RNvNtNtCsbhXKu17xbPQ_9cytoscnpy8commands5utils14merge_excludes
FN:10,_RNvNtNtCsbhXKu17xbPQ_9cytoscnpy8commands5utils17find_python_files
FN:52,_RINvNtNtCsbhXKu17xbPQ_9cytoscnpy8commands5utils12write_outputQINtNtCs1S013FBku8r_5alloc3vec3VechEECsk4WInR7jcT_18absolute_path_test
FN:52,_RINvNtNtCsbhXKu17xbPQ_9cytoscnpy8commands5utils12write_outputQINtNtCs1S013FBku8r_5alloc3vec3VechEECs7iDxd3mzZu1_14cli_flags_test
FN:52,_RINvNtNtCsbhXKu17xbPQ_9cytoscnpy8commands5utils12write_outputQINtNtCs1S013FBku8r_5alloc3vec3VechEECs6VGBe2Euocw_13cli_json_test
FN:52,_RINvNtNtCsbhXKu17xbPQ_9cytoscnpy8commands5utils12write_outputQINtNtCs1S013FBku8r_5alloc3vec3VechEECsg3hQ6IUqp3w_16cli_metrics_test
FN:52,_RINvNtNtCsbhXKu17xbPQ_9cytoscnpy8commands5utils12write_outputQINtNtCs1S013FBku8r_5alloc3vec3VechEECs7GoSISXc5Xp_13commands_test
FN:22,_RNvNtNtCs2Eyh5DnjbiX_9cytoscnpy8commands5utils14merge_excludes
FN:10,_RNvNtNtCs2Eyh5DnjbiX_9cytoscnpy8commands5utils17find_python_files
FN:52,_RINvNtNtCs2Eyh5DnjbiX_9cytoscnpy8commands5utils12write_outputQNtNtNtCslP1BYCnN0Ot_3std2io5stdio6StdoutEB6_
FN:35,_RINvNtNtCs2Eyh5DnjbiX_9cytoscnpy8commands5utils14filter_by_rankNtNtB4_2cc8CcResultEB6_
FN:35,_RINvNtNtCs2Eyh5DnjbiX_9cytoscnpy8commands5utils14filter_by_rankNtNtB4_2mi8MiResultEB6_
FN:42,_RNCINvNtNtCs2Eyh5DnjbiX_9cytoscnpy8commands5utils14filter_by_rankNtNtB6_2cc8CcResultE0B8_
FN:42,_RNCINvNtNtCs2Eyh5DnjbiX_9cytoscnpy8commands5utils14filter_by_rankNtNtB6_2mi8MiResultE0B8_
FN:44,_RNCNCINvNtNtCs2Eyh5DnjbiX_9cytoscnpy8commands5utils14filter_by_rankNtNtB8_2cc8CcResultE00Ba_
FN:45,_RNCNCINvNtNtCs2Eyh5DnjbiX_9cytoscnpy8commands5utils14filter_by_rankNtNtB8_2cc8CcResultE0s_0Ba_
FN:44,_RNCNCINvNtNtCs2Eyh5DnjbiX_9cytoscnpy8commands5utils14filter_by_rankNtNtB8_2mi8MiResultE00Ba_
FN:45,_RNCNCINvNtNtCs2Eyh5DnjbiX_9cytoscnpy8commands5utils14filter_by_rankNtNtB8_2mi8MiResultE0s_0Ba_
FN:52,_RINvNtNtCsbhXKu17xbPQ_9cytoscnpy8commands5utils12write_outputQINtNtCs1S013FBku8r_5alloc3vec3VechEECs5uXW1tGmheJ_20entry_point_cli_test
FN:52,_RINvNtNtCsbhXKu17xbPQ_9cytoscnpy8commands5utils12write_outputQINtNtCs1S013FBku8r_5alloc3vec3VechEECs42cSN1H4Ayx_13cytoscnpy_mcp
FN:52,_RINvNtNtCsbhXKu17xbPQ_9cytoscnpy8commands5utils12write_outputQINtNtCs1S013FBku8r_5alloc3vec3VechEECsdWd4hUIhEqZ_14root_flag_test
FNDA:0,_RINvNtNtCsbhXKu17xbPQ_9cytoscnpy8commands5utils12write_outputQNtNtNtCslP1BYCnN0Ot_3std2io5stdio6StdoutEB6_
FNDA:8,_RINvNtNtCsbhXKu17xbPQ_9cytoscnpy8commands5utils14filter_by_rankNtNtB4_2cc8CcResultEB6_
FNDA:6,_RINvNtNtCsbhXKu17xbPQ_9cytoscnpy8commands5utils14filter_by_rankNtNtB4_2mi8MiResultEB6_
FNDA:12,_RNCINvNtNtCsbhXKu17xbPQ_9cytoscnpy8commands5utils14filter_by_rankNtNtB6_2cc8CcResultE0B8_
FNDA:6,_RNCINvNtNtCsbhXKu17xbPQ_9cytoscnpy8commands5utils14filter_by_rankNtNtB6_2mi8MiResultE0B8_
FNDA:2,_RNCNCINvNtNtCsbhXKu17xbPQ_9cytoscnpy8commands5utils14filter_by_rankNtNtB8_2cc8CcResultE00Ba_
FNDA:2,_RNCNCINvNtNtCsbhXKu17xbPQ_9cytoscnpy8commands5utils14filter_by_rankNtNtB8_2cc8CcResultE0s_0Ba_
FNDA:0,_RNCNCINvNtNtCsbhXKu17xbPQ_9cytoscnpy8commands5utils14filter_by_rankNtNtB8_2mi8MiResultE00Ba_
FNDA:0,_RNCNCINvNtNtCsbhXKu17xbPQ_9cytoscnpy8commands5utils14filter_by_rankNtNtB8_2mi8MiResultE0s_0Ba_
FNDA:25,_RNvNtNtCsbhXKu17xbPQ_9cytoscnpy8commands5utils14merge_excludes
FNDA:37,_RNvNtNtCsbhXKu17xbPQ_9cytoscnpy8commands5utils17find_python_files
FNDA:0,_RINvNtNtCsbhXKu17xbPQ_9cytoscnpy8commands5utils12write_outputQINtNtCs1S013FBku8r_5alloc3vec3VechEECsk4WInR7jcT_18absolute_path_test
FNDA:7,_RINvNtNtCsbhXKu17xbPQ_9cytoscnpy8commands5utils12write_outputQINtNtCs1S013FBku8r_5alloc3vec3VechEECs7iDxd3mzZu1_14cli_flags_test
FNDA:7,_RINvNtNtCsbhXKu17xbPQ_9cytoscnpy8commands5utils12write_outputQINtNtCs1S013FBku8r_5alloc3vec3VechEECs6VGBe2Euocw_13cli_json_test
FNDA:5,_RINvNtNtCsbhXKu17xbPQ_9cytoscnpy8commands5utils12write_outputQINtNtCs1S013FBku8r_5alloc3vec3VechEECsg3hQ6IUqp3w_16cli_metrics_test
FNDA:2,_RINvNtNtCsbhXKu17xbPQ_9cytoscnpy8commands5utils12write_outputQINtNtCs1S013FBku8r_5alloc3vec3VechEECs7GoSISXc5Xp_13commands_test
FNDA:0,_RNvNtNtCs2Eyh5DnjbiX_9cytoscnpy8commands5utils14merge_excludes
FNDA:0,_RNvNtNtCs2Eyh5DnjbiX_9cytoscnpy8commands5utils17find_python_files
FNDA:0,_RINvNtNtCs2Eyh5DnjbiX_9cytoscnpy8commands5utils12write_outputQNtNtNtCslP1BYCnN0Ot_3std2io5stdio6StdoutEB6_
FNDA:0,_RINvNtNtCs2Eyh5DnjbiX_9cytoscnpy8commands5utils14filter_by_rankNtNtB4_2cc8CcResultEB6_
FNDA:0,_RINvNtNtCs2Eyh5DnjbiX_9cytoscnpy8commands5utils14filter_by_rankNtNtB4_2mi8MiResultEB6_
FNDA:0,_RNCINvNtNtCs2Eyh5DnjbiX_9cytoscnpy8commands5utils14filter_by_rankNtNtB6_2cc8CcResultE0B8_
FNDA:0,_RNCINvNtNtCs2Eyh5DnjbiX_9cytoscnpy8commands5utils14filter_by_rankNtNtB6_2mi8MiResultE0B8_
FNDA:0,_RNCNCINvNtNtCs2Eyh5DnjbiX_9cytoscnpy8commands5utils14filter_by_rankNtNtB8_2cc8CcResultE00Ba_
FNDA:0,_RNCNCINvNtNtCs2Eyh5DnjbiX_9cytoscnpy8commands5utils14filter_by_rankNtNtB8_2cc8CcResultE0s_0Ba_
FNDA:0,_RNCNCINvNtNtCs2Eyh5DnjbiX_9cytoscnpy8commands5utils14filter_by_rankNtNtB8_2mi8MiResultE00Ba_
FNDA:0,_RNCNCINvNtNtCs2Eyh5DnjbiX_9cytoscnpy8commands5utils14filter_by_rankNtNtB8_2mi8MiResultE0s_0Ba_
FNDA:4,_RINvNtNtCsbhXKu17xbPQ_9cytoscnpy8commands5utils12write_outputQINtNtCs1S013FBku8r_5alloc3vec3VechEECs5uXW1tGmheJ_20entry_point_cli_test
FNDA:0,_RINvNtNtCsbhXKu17xbPQ_9cytoscnpy8commands5utils12write_outputQINtNtCs1S013FBku8r_5alloc3vec3VechEECs42cSN1H4Ayx_13cytoscnpy_mcp
FNDA:1,_RINvNtNtCsbhXKu17xbPQ_9cytoscnpy8commands5utils12write_outputQINtNtCs1S013FBku8r_5alloc3vec3VechEECsdWd4hUIhEqZ_14root_flag_test
FNF:7
FNH:7
DA:10,37
DA:11,37
DA:12,74
DA:13,37
DA:14,37
DA:15,37
DA:16,37
DA:17,37
DA:18,37
DA:22,25
DA:23,25
DA:24,25
DA:25,25
DA:26,25
DA:35,14
DA:36,14
DA:37,14
DA:38,14
DA:39,14
DA:40,14
DA:41,14
DA:42,18
DA:43,18
DA:44,18
DA:45,18
DA:46,18
DA:47,18
DA:48,14
DA:49,14
DA:52,26
DA:53,26
DA:54,26
DA:55,26
DA:56,26
DA:57,26
DA:58,0
DA:59,0
DA:61,26
DA:63,26
DA:64,26
BRF:0
BRH:0
LF:43
LH:41
end_of_record
SF:E:\Github\CytoScnPy\cytoscnpy\src\complexity.rs
FN:68,_RNvMNtCsbhXKu17xbPQ_9cytoscnpy10complexityNtB2_17ComplexityVisitor10visit_body
FN:74,_RNvMNtCsbhXKu17xbPQ_9cytoscnpy10complexityNtB2_17ComplexityVisitor10visit_stmt
FN:174,_RNvMs_NtCsbhXKu17xbPQ_9cytoscnpy10complexityNtB4_22BlockComplexityVisitor10visit_body
FN:293,_RNvMs_NtCsbhXKu17xbPQ_9cytoscnpy10complexityNtB4_22BlockComplexityVisitor10visit_expr
FN:180,_RNvMs_NtCsbhXKu17xbPQ_9cytoscnpy10complexityNtB4_22BlockComplexityVisitor10visit_stmt
FN:28,_RNvNtCsbhXKu17xbPQ_9cytoscnpy10complexity18analyze_complexity
FN:159,_RNvNtCsbhXKu17xbPQ_9cytoscnpy10complexity20calculate_complexity
FN:52,_RNvNtCsbhXKu17xbPQ_9cytoscnpy10complexity27calculate_module_complexity
FN:68,_RNvMNtCs2Eyh5DnjbiX_9cytoscnpy10complexityNtB2_17ComplexityVisitor10visit_body
FN:74,_RNvMNtCs2Eyh5DnjbiX_9cytoscnpy10complexityNtB2_17ComplexityVisitor10visit_stmt
FN:174,_RNvMs_NtCs2Eyh5DnjbiX_9cytoscnpy10complexityNtB4_22BlockComplexityVisitor10visit_body
FN:293,_RNvMs_NtCs2Eyh5DnjbiX_9cytoscnpy10complexityNtB4_22BlockComplexityVisitor10visit_expr
FN:180,_RNvMs_NtCs2Eyh5DnjbiX_9cytoscnpy10complexityNtB4_22BlockComplexityVisitor10visit_stmt
FN:28,_RNvNtCs2Eyh5DnjbiX_9cytoscnpy10complexity18analyze_complexity
FN:159,_RNvNtCs2Eyh5DnjbiX_9cytoscnpy10complexity20calculate_complexity
FN:52,_RNvNtCs2Eyh5DnjbiX_9cytoscnpy10complexity27calculate_module_complexity
FNDA:274,_RNvMNtCsbhXKu17xbPQ_9cytoscnpy10complexityNtB2_17ComplexityVisitor10visit_body
FNDA:298,_RNvMNtCsbhXKu17xbPQ_9cytoscnpy10complexityNtB2_17ComplexityVisitor10visit_stmt
FNDA:219,_RNvMs_NtCsbhXKu17xbPQ_9cytoscnpy10complexityNtB4_22BlockComplexityVisitor10visit_body
FNDA:388,_RNvMs_NtCsbhXKu17xbPQ_9cytoscnpy10complexityNtB4_22BlockComplexityVisitor10visit_expr
FNDA:648,_RNvMs_NtCsbhXKu17xbPQ_9cytoscnpy10complexityNtB4_22BlockComplexityVisitor10visit_stmt
FNDA:67,_RNvNtCsbhXKu17xbPQ_9cytoscnpy10complexity18analyze_complexity
FNDA:97,_RNvNtCsbhXKu17xbPQ_9cytoscnpy10complexity20calculate_complexity
FNDA:12,_RNvNtCsbhXKu17xbPQ_9cytoscnpy10complexity27calculate_module_complexity
FNDA:0,_RNvMNtCs2Eyh5DnjbiX_9cytoscnpy10complexityNtB2_17ComplexityVisitor10visit_body
FNDA:0,_RNvMNtCs2Eyh5DnjbiX_9cytoscnpy10complexityNtB2_17ComplexityVisitor10visit_stmt
FNDA:0,_RNvMs_NtCs2Eyh5DnjbiX_9cytoscnpy10complexityNtB4_22BlockComplexityVisitor10visit_body
FNDA:0,_RNvMs_NtCs2Eyh5DnjbiX_9cytoscnpy10complexityNtB4_22BlockComplexityVisitor10visit_expr
FNDA:0,_RNvMs_NtCs2Eyh5DnjbiX_9cytoscnpy10complexityNtB4_22BlockComplexityVisitor10visit_stmt
FNDA:0,_RNvNtCs2Eyh5DnjbiX_9cytoscnpy10complexity18analyze_complexity
FNDA:0,_RNvNtCs2Eyh5DnjbiX_9cytoscnpy10complexity20calculate_complexity
FNDA:0,_RNvNtCs2Eyh5DnjbiX_9cytoscnpy10complexity27calculate_module_complexity
FNF:8
FNH:8
DA:28,67
DA:29,67
DA:30,67
DA:31,67
DA:32,67
DA:33,67
DA:34,67
DA:35,67
DA:36,67
DA:37,67
DA:38,67
DA:39,67
DA:40,67
DA:41,67
DA:42,67
DA:43,67
DA:44,67
DA:45,67
DA:46,67
DA:47,67
DA:52,12
DA:53,12
DA:54,12
DA:55,12
DA:56,0
DA:57,0
DA:58,12
DA:68,274
DA:69,572
DA:70,298
DA:71,298
DA:72,274
DA:74,298
DA:75,298
DA:76,80
DA:77,80
DA:78,80
DA:79,80
DA:80,80
DA:81,73
DA:83,7
DA:86,80
DA:87,80
DA:88,80
DA:89,80
DA:90,80
DA:91,80
DA:92,80
DA:95,80
DA:97,5
DA:98,5
DA:99,5
DA:100,5
DA:101,5
DA:102,5
DA:103,5
DA:104,5
DA:105,5
DA:106,5
DA:107,5
DA:108,5
DA:109,5
DA:110,5
DA:111,5
DA:112,5
DA:113,5
DA:119,213
DA:120,49
DA:121,49
DA:122,74
DA:123,25
DA:124,25
DA:126,5
DA:127,5
DA:128,5
DA:129,5
DA:130,6
DA:131,6
DA:132,6
DA:133,6
DA:135,2
DA:136,2
DA:137,2
DA:138,4
DA:139,4
DA:140,9
DA:141,5
DA:142,5
DA:143,5
DA:144,4
DA:145,4
DA:147,3
DA:148,10
DA:149,7
DA:150,7
DA:152,144
DA:156,298
DA:159,97
DA:160,97
DA:161,97
DA:162,97
DA:163,97
DA:164,97
DA:165,97
DA:166,97
DA:174,219
DA:175,867
DA:176,648
DA:177,648
DA:178,219
DA:180,648
DA:181,648
DA:182,49
DA:183,49
DA:184,49
DA:185,49
DA:186,74
DA:188,25
DA:189,12
DA:190,12
DA:191,13
DA:192,25
DA:195,5
DA:196,5
DA:197,5
DA:198,5
DA:199,5
DA:200,5
DA:201,5
DA:202,6
DA:203,6
DA:204,6
DA:205,6
DA:206,6
DA:207,6
DA:208,4
DA:209,4
DA:210,9
DA:211,5
DA:212,5
DA:213,5
DA:214,4
DA:215,4
DA:216,5
DA:218,4
DA:219,4
DA:221,2
DA:222,4
DA:223,2
DA:224,2
DA:225,2
DA:226,2
DA:228,2
DA:230,9
DA:232,9
DA:233,4
DA:234,5
DA:235,9
DA:236,9
DA:237,1
DA:238,8
DA:240,3
DA:241,3
DA:242,10
DA:243,7
DA:244,7
DA:245,0
DA:246,7
DA:247,7
DA:251,34
DA:252,34
DA:253,34
DA:254,41
DA:255,41
DA:256,35
DA:257,35
DA:259,13
DA:260,27
DA:261,14
DA:262,14
DA:263,13
DA:265,2
DA:266,2
DA:267,2
DA:268,2
DA:269,0
DA:270,0
DA:271,0
DA:272,0
DA:273,0
DA:274,0
DA:276,0
DA:277,0
DA:278,0
DA:279,0
DA:281,3
DA:282,3
DA:283,3
DA:284,3
DA:285,3
DA:286,0
DA:287,3
DA:289,477
DA:291,648
DA:293,388
DA:294,388
DA:295,21
DA:300,21
DA:301,21
DA:302,21
DA:303,64
DA:304,43
DA:305,43
DA:307,2
DA:308,2
DA:309,2
DA:310,2
DA:311,2
DA:312,2
DA:313,3
DA:314,3
DA:315,6
DA:316,3
DA:317,3
DA:318,3
DA:319,6
DA:320,3
DA:321,3
DA:323,3
DA:325,2
DA:326,2
DA:327,4
DA:328,2
DA:329,2
DA:330,2
DA:331,3
DA:332,1
DA:333,1
DA:335,2
DA:337,2
DA:338,2
DA:339,4
DA:340,2
DA:341,2
DA:342,2
DA:343,3
DA:344,1
DA:345,1
DA:347,2
DA:348,2
DA:350,7
DA:351,7
DA:352,15
DA:353,8
DA:354,8
DA:355,8
DA:356,12
DA:357,4
DA:358,4
DA:360,7
DA:362,1
DA:363,1
DA:364,1
DA:365,1
DA:366,1
DA:367,1
DA:368,1
DA:369,1
DA:370,1
DA:371,1
DA:373,38
DA:374,38
DA:375,82
DA:376,44
DA:377,44
DA:378,39
DA:379,1
DA:380,1
DA:383,312
DA:385,388
BRF:0
BRH:0
LF:280
LH:266
end_of_record
SF:E:\Github\CytoScnPy\cytoscnpy\src\config.rs
FN:75,_RNvMNtCsbhXKu17xbPQ_9cytoscnpy6configNtB2_15CytoScnPyConfig20uses_deprecated_keys
FN:80,_RNvMNtCsbhXKu17xbPQ_9cytoscnpy6configNtB2_15CytoScnPyConfig24set_uses_deprecated_keys
FN:210,_RNvMs0_NtCsbhXKu17xbPQ_9cytoscnpy6configNtB5_6Config14load_from_path
FN:204,_RNvMs0_NtCsbhXKu17xbPQ_9cytoscnpy6configNtB5_6Config4load
FN:187,_RNvNtCsbhXKu17xbPQ_9cytoscnpy6config16default_severity
FN:139,_RNvNtCsbhXKu17xbPQ_9cytoscnpy6config17default_min_score
FN:123,_RNvNtCsbhXKu17xbPQ_9cytoscnpy6config18default_min_length
FN:131,_RNvNtCsbhXKu17xbPQ_9cytoscnpy6config21default_scan_comments
FN:127,_RNvNtCsbhXKu17xbPQ_9cytoscnpy6config23default_entropy_enabled
FN:135,_RNvNtCsbhXKu17xbPQ_9cytoscnpy6config23default_skip_docstrings
FN:119,_RNvNtCsbhXKu17xbPQ_9cytoscnpy6config25default_entropy_threshold
FN:144,_RNvXs_NtCsbhXKu17xbPQ_9cytoscnpy6configNtB4_13SecretsConfigNtNtCsgS7EKHCc5jD_4core7default7Default7default
FN:204,_RNvMs0_NtCs2Eyh5DnjbiX_9cytoscnpy6configNtB5_6Config4load
FN:390,_RNvNtNtCs2Eyh5DnjbiX_9cytoscnpy6config5testss_24test_load_from_file_path
FN:322,_RNvNtNtCs2Eyh5DnjbiX_9cytoscnpy6config5testss_29test_load_from_path_no_config
FN:280,_RNvNtNtCs2Eyh5DnjbiX_9cytoscnpy6config5testss_31test_deprecation_detection_toml
FN:368,_RNvNtNtCs2Eyh5DnjbiX_9cytoscnpy6config5testss_32test_load_from_path_traverses_up
FN:332,_RNvNtNtCs2Eyh5DnjbiX_9cytoscnpy6config5testss_34test_load_from_path_cytoscnpy_toml
FN:350,_RNvNtNtCs2Eyh5DnjbiX_9cytoscnpy6config5testss_34test_load_from_path_pyproject_toml
FN:298,_RNvNtNtCs2Eyh5DnjbiX_9cytoscnpy6config5testss_36test_deprecation_detection_pyproject
FN:75,_RNvMNtCs2Eyh5DnjbiX_9cytoscnpy6configNtB2_15CytoScnPyConfig20uses_deprecated_keys
FN:80,_RNvMNtCs2Eyh5DnjbiX_9cytoscnpy6configNtB2_15CytoScnPyConfig24set_uses_deprecated_keys
FN:210,_RNvMs0_NtCs2Eyh5DnjbiX_9cytoscnpy6configNtB5_6Config14load_from_path
FN:187,_RNvNtCs2Eyh5DnjbiX_9cytoscnpy6config16default_severity
FN:139,_RNvNtCs2Eyh5DnjbiX_9cytoscnpy6config17default_min_score
FN:123,_RNvNtCs2Eyh5DnjbiX_9cytoscnpy6config18default_min_length
FN:131,_RNvNtCs2Eyh5DnjbiX_9cytoscnpy6config21default_scan_comments
FN:127,_RNvNtCs2Eyh5DnjbiX_9cytoscnpy6config23default_entropy_enabled
FN:135,_RNvNtCs2Eyh5DnjbiX_9cytoscnpy6config23default_skip_docstrings
FN:119,_RNvNtCs2Eyh5DnjbiX_9cytoscnpy6config25default_entropy_threshold
FN:144,_RNvXs_NtCs2Eyh5DnjbiX_9cytoscnpy6configNtB4_13SecretsConfigNtNtCsgS7EKHCc5jD_4core7default7Default7default
FNDA:23,_RNvMNtCsbhXKu17xbPQ_9cytoscnpy6configNtB2_15CytoScnPyConfig20uses_deprecated_keys
FNDA:0,_RNvMNtCsbhXKu17xbPQ_9cytoscnpy6configNtB2_15CytoScnPyConfig24set_uses_deprecated_keys
FNDA:35,_RNvMs0_NtCsbhXKu17xbPQ_9cytoscnpy6configNtB5_6Config14load_from_path
FNDA:0,_RNvMs0_NtCsbhXKu17xbPQ_9cytoscnpy6configNtB5_6Config4load
FNDA:0,_RNvNtCsbhXKu17xbPQ_9cytoscnpy6config16default_severity
FNDA:364,_RNvNtCsbhXKu17xbPQ_9cytoscnpy6config17default_min_score
FNDA:364,_RNvNtCsbhXKu17xbPQ_9cytoscnpy6config18default_min_length
FNDA:364,_RNvNtCsbhXKu17xbPQ_9cytoscnpy6config21default_scan_comments
FNDA:364,_RNvNtCsbhXKu17xbPQ_9cytoscnpy6config23default_entropy_enabled
FNDA:364,_RNvNtCsbhXKu17xbPQ_9cytoscnpy6config23default_skip_docstrings
FNDA:364,_RNvNtCsbhXKu17xbPQ_9cytoscnpy6config25default_entropy_threshold
FNDA:364,_RNvXs_NtCsbhXKu17xbPQ_9cytoscnpy6configNtB4_13SecretsConfigNtNtCsgS7EKHCc5jD_4core7default7Default7default
FNDA:0,_RNvMs0_NtCs2Eyh5DnjbiX_9cytoscnpy6configNtB5_6Config4load
FNDA:1,_RNvNtNtCs2Eyh5DnjbiX_9cytoscnpy6config5testss_24test_load_from_file_path
FNDA:1,_RNvNtNtCs2Eyh5DnjbiX_9cytoscnpy6config5testss_29test_load_from_path_no_config
FNDA:1,_RNvNtNtCs2Eyh5DnjbiX_9cytoscnpy6config5testss_31test_deprecation_detection_toml
FNDA:1,_RNvNtNtCs2Eyh5DnjbiX_9cytoscnpy6config5testss_32test_load_from_path_traverses_up
FNDA:1,_RNvNtNtCs2Eyh5DnjbiX_9cytoscnpy6config5testss_34test_load_from_path_cytoscnpy_toml
FNDA:1,_RNvNtNtCs2Eyh5DnjbiX_9cytoscnpy6config5testss_34test_load_from_path_pyproject_toml
FNDA:1,_RNvNtNtCs2Eyh5DnjbiX_9cytoscnpy6config5testss_36test_deprecation_detection_pyproject
FNDA:2,_RNvMNtCs2Eyh5DnjbiX_9cytoscnpy6configNtB2_15CytoScnPyConfig20uses_deprecated_keys
FNDA:2,_RNvMNtCs2Eyh5DnjbiX_9cytoscnpy6configNtB2_15CytoScnPyConfig24set_uses_deprecated_keys
FNDA:5,_RNvMs0_NtCs2Eyh5DnjbiX_9cytoscnpy6configNtB5_6Config14load_from_path
FNDA:0,_RNvNtCs2Eyh5DnjbiX_9cytoscnpy6config16default_severity
FNDA:14,_RNvNtCs2Eyh5DnjbiX_9cytoscnpy6config17default_min_score
FNDA:14,_RNvNtCs2Eyh5DnjbiX_9cytoscnpy6config18default_min_length
FNDA:14,_RNvNtCs2Eyh5DnjbiX_9cytoscnpy6config21default_scan_comments
FNDA:14,_RNvNtCs2Eyh5DnjbiX_9cytoscnpy6config23default_entropy_enabled
FNDA:14,_RNvNtCs2Eyh5DnjbiX_9cytoscnpy6config23default_skip_docstrings
FNDA:14,_RNvNtCs2Eyh5DnjbiX_9cytoscnpy6config25default_entropy_threshold
FNDA:14,_RNvXs_NtCs2Eyh5DnjbiX_9cytoscnpy6configNtB4_13SecretsConfigNtNtCsgS7EKHCc5jD_4core7default7Default7default
FNF:19
FNH:17
DA:75,25
DA:76,25
DA:77,25
DA:80,2
DA:81,2
DA:82,2
DA:119,378
DA:120,378
DA:121,378
DA:123,378
DA:124,378
DA:125,378
DA:127,378
DA:128,378
DA:129,378
DA:131,378
DA:132,378
DA:133,378
DA:135,378
DA:136,378
DA:137,378
DA:139,378
DA:140,378
DA:141,378
DA:144,378
DA:145,378
DA:146,378
DA:147,378
DA:148,378
DA:149,378
DA:150,378
DA:151,378
DA:152,378
DA:153,378
DA:154,378
DA:155,378
DA:187,0
DA:188,0
DA:189,0
DA:204,0
DA:205,0
DA:206,0
DA:210,40
DA:211,40
DA:212,40
DA:213,17
DA:214,23
DA:218,190
DA:219,190
DA:220,10
DA:221,10
DA:222,10
DA:224,10
DA:225,10
DA:226,10
DA:227,10
DA:228,0
DA:229,0
DA:230,10
DA:231,0
DA:232,0
DA:233,10
DA:234,0
DA:235,0
DA:236,180
DA:239,180
DA:240,180
DA:241,18
DA:242,18
DA:243,4
DA:244,4
DA:245,4
DA:246,4
DA:248,4
DA:249,4
DA:250,4
DA:251,4
DA:252,4
DA:253,0
DA:254,0
DA:255,4
DA:256,0
DA:257,0
DA:258,0
DA:259,4
DA:260,14
DA:261,0
DA:262,162
DA:264,176
DA:265,26
DA:266,150
DA:269,26
DA:270,40
DA:280,1
DA:281,1
DA:282,1
DA:283,1
DA:284,1
DA:285,1
DA:286,1
DA:287,1
DA:288,1
DA:289,1
DA:290,1
DA:291,0
DA:292,0
DA:293,1
DA:294,1
DA:295,1
DA:298,1
DA:299,1
DA:300,1
DA:301,1
DA:302,1
DA:303,1
DA:304,1
DA:305,1
DA:306,1
DA:307,1
DA:308,1
DA:309,1
DA:310,1
DA:311,1
DA:312,1
DA:313,1
DA:314,0
DA:315,0
DA:316,0
DA:317,1
DA:318,1
DA:319,1
DA:322,1
DA:324,1
DA:325,1
DA:327,1
DA:328,1
DA:329,1
DA:332,1
DA:333,1
DA:334,1
DA:335,1
DA:336,1
DA:337,1
DA:338,1
DA:339,1
DA:340,1
DA:342,1
DA:344,1
DA:345,1
DA:346,1
DA:347,1
DA:350,1
DA:351,1
DA:352,1
DA:353,1
DA:354,1
DA:355,1
DA:356,1
DA:357,1
DA:358,1
DA:360,1
DA:362,1
DA:363,1
DA:364,1
DA:365,1
DA:368,1
DA:370,1
DA:371,1
DA:372,1
DA:375,1
DA:376,1
DA:377,1
DA:378,1
DA:379,1
DA:380,1
DA:382,1
DA:385,1
DA:386,1
DA:387,1
DA:390,1
DA:391,1
DA:392,1
DA:393,1
DA:394,1
DA:395,1
DA:396,1
DA:397,1
DA:399,1
DA:402,1
DA:403,1
DA:406,1
DA:407,1
DA:408,1
BRF:0
BRH:0
LF:193
LH:170
end_of_record
SF:E:\Github\CytoScnPy\cytoscnpy\src\constants.rs
FN:58,_RNvNtCsbhXKu17xbPQ_9cytoscnpy9constants13get_penalties
FN:127,_RNvNtCsbhXKu17xbPQ_9cytoscnpy9constants15get_auto_called
FN:235,_RNvNtCsbhXKu17xbPQ_9cytoscnpy9constants16get_pytest_hooks
FN:80,_RNvNtCsbhXKu17xbPQ_9cytoscnpy9constants16get_test_file_re
FN:110,_RNvNtCsbhXKu17xbPQ_9cytoscnpy9constants17get_test_decor_re
FN:48,_RNvNtCsbhXKu17xbPQ_9cytoscnpy9constants18get_suppression_re
FN:96,_RNvNtCsbhXKu17xbPQ_9cytoscnpy9constants18get_test_import_re
FN:169,_RNvNtCsbhXKu17xbPQ_9cytoscnpy9constants21get_framework_file_re
FN:143,_RNvNtCsbhXKu17xbPQ_9cytoscnpy9constants23get_test_method_pattern
FN:27,_RNvNtCsbhXKu17xbPQ_9cytoscnpy9constants24get_suppression_patterns
FN:365,_RNvNtCsbhXKu17xbPQ_9cytoscnpy9constants25get_taint_sensitive_rules
FN:180,_RNvNtCsbhXKu17xbPQ_9cytoscnpy9constants27get_default_exclude_folders
FN:150,_RNvNtCsbhXKu17xbPQ_9cytoscnpy9constants30get_unittest_lifecycle_methods
FN:60,_RNCNvNtCsbhXKu17xbPQ_9cytoscnpy9constants13get_penalties0B5_
FN:129,_RNCNvNtCsbhXKu17xbPQ_9cytoscnpy9constants15get_auto_called0B5_
FN:237,_RNCNvNtCsbhXKu17xbPQ_9cytoscnpy9constants16get_pytest_hooks0B5_
FN:83,_RNCNvNtCsbhXKu17xbPQ_9cytoscnpy9constants16get_test_file_re0B5_
FN:113,_RNCNvNtCsbhXKu17xbPQ_9cytoscnpy9constants17get_test_decor_re0B5_
FN:51,_RNCNvNtCsbhXKu17xbPQ_9cytoscnpy9constants18get_suppression_re0B5_
FN:99,_RNCNvNtCsbhXKu17xbPQ_9cytoscnpy9constants18get_test_import_re0B5_
FN:172,_RNCNvNtCsbhXKu17xbPQ_9cytoscnpy9constants21get_framework_file_re0B5_
FN:146,_RNCNvNtCsbhXKu17xbPQ_9cytoscnpy9constants23get_test_method_pattern0B5_
FN:29,_RNCNvNtCsbhXKu17xbPQ_9cytoscnpy9constants24get_suppression_patterns0B5_
FN:367,_RNCNvNtCsbhXKu17xbPQ_9cytoscnpy9constants25get_taint_sensitive_rules0B5_
FN:182,_RNCNvNtCsbhXKu17xbPQ_9cytoscnpy9constants27get_default_exclude_folders0B5_
FN:152,_RNCNvNtCsbhXKu17xbPQ_9cytoscnpy9constants30get_unittest_lifecycle_methods0B5_
FN:99,_RNCNvNtCs2Eyh5DnjbiX_9cytoscnpy9constants18get_test_import_re0B5_
FN:172,_RNCNvNtCs2Eyh5DnjbiX_9cytoscnpy9constants21get_framework_file_re0B5_
FN:29,_RNCNvNtCs2Eyh5DnjbiX_9cytoscnpy9constants24get_suppression_patterns0B5_
FN:152,_RNCNvNtCs2Eyh5DnjbiX_9cytoscnpy9constants30get_unittest_lifecycle_methods0B5_
FN:96,_RNvNtCs2Eyh5DnjbiX_9cytoscnpy9constants18get_test_import_re
FN:169,_RNvNtCs2Eyh5DnjbiX_9cytoscnpy9constants21get_framework_file_re
FN:27,_RNvNtCs2Eyh5DnjbiX_9cytoscnpy9constants24get_suppression_patterns
FN:150,_RNvNtCs2Eyh5DnjbiX_9cytoscnpy9constants30get_unittest_lifecycle_methods
FN:58,_RNvNtCs2Eyh5DnjbiX_9cytoscnpy9constants13get_penalties
FN:127,_RNvNtCs2Eyh5DnjbiX_9cytoscnpy9constants15get_auto_called
FN:235,_RNvNtCs2Eyh5DnjbiX_9cytoscnpy9constants16get_pytest_hooks
FN:80,_RNvNtCs2Eyh5DnjbiX_9cytoscnpy9constants16get_test_file_re
FN:110,_RNvNtCs2Eyh5DnjbiX_9cytoscnpy9constants17get_test_decor_re
FN:48,_RNvNtCs2Eyh5DnjbiX_9cytoscnpy9constants18get_suppression_re
FN:143,_RNvNtCs2Eyh5DnjbiX_9cytoscnpy9constants23get_test_method_pattern
FN:365,_RNvNtCs2Eyh5DnjbiX_9cytoscnpy9constants25get_taint_sensitive_rules
FN:180,_RNvNtCs2Eyh5DnjbiX_9cytoscnpy9constants27get_default_exclude_folders
FN:60,_RNCNvNtCs2Eyh5DnjbiX_9cytoscnpy9constants13get_penalties0B5_
FN:129,_RNCNvNtCs2Eyh5DnjbiX_9cytoscnpy9constants15get_auto_called0B5_
FN:237,_RNCNvNtCs2Eyh5DnjbiX_9cytoscnpy9constants16get_pytest_hooks0B5_
FN:83,_RNCNvNtCs2Eyh5DnjbiX_9cytoscnpy9constants16get_test_file_re0B5_
FN:113,_RNCNvNtCs2Eyh5DnjbiX_9cytoscnpy9constants17get_test_decor_re0B5_
FN:51,_RNCNvNtCs2Eyh5DnjbiX_9cytoscnpy9constants18get_suppression_re0B5_
FN:146,_RNCNvNtCs2Eyh5DnjbiX_9cytoscnpy9constants23get_test_method_pattern0B5_
FN:367,_RNCNvNtCs2Eyh5DnjbiX_9cytoscnpy9constants25get_taint_sensitive_rules0B5_
FN:182,_RNCNvNtCs2Eyh5DnjbiX_9cytoscnpy9constants27get_default_exclude_folders0B5_
FNDA:145,_RNvNtCsbhXKu17xbPQ_9cytoscnpy9constants13get_penalties
FNDA:756,_RNvNtCsbhXKu17xbPQ_9cytoscnpy9constants15get_auto_called
FNDA:277,_RNvNtCsbhXKu17xbPQ_9cytoscnpy9constants16get_pytest_hooks
FNDA:1249,_RNvNtCsbhXKu17xbPQ_9cytoscnpy9constants16get_test_file_re
FNDA:43,_RNvNtCsbhXKu17xbPQ_9cytoscnpy9constants17get_test_decor_re
FNDA:2260,_RNvNtCsbhXKu17xbPQ_9cytoscnpy9constants18get_suppression_re
FNDA:3,_RNvNtCsbhXKu17xbPQ_9cytoscnpy9constants18get_test_import_re
FNDA:28,_RNvNtCsbhXKu17xbPQ_9cytoscnpy9constants21get_framework_file_re
FNDA:274,_RNvNtCsbhXKu17xbPQ_9cytoscnpy9constants23get_test_method_pattern
FNDA:0,_RNvNtCsbhXKu17xbPQ_9cytoscnpy9constants24get_suppression_patterns
FNDA:96,_RNvNtCsbhXKu17xbPQ_9cytoscnpy9constants25get_taint_sensitive_rules
FNDA:187,_RNvNtCsbhXKu17xbPQ_9cytoscnpy9constants27get_default_exclude_folders
FNDA:1,_RNvNtCsbhXKu17xbPQ_9cytoscnpy9constants30get_unittest_lifecycle_methods
FNDA:13,_RNCNvNtCsbhXKu17xbPQ_9cytoscnpy9constants13get_penalties0B5_
FNDA:36,_RNCNvNtCsbhXKu17xbPQ_9cytoscnpy9constants15get_auto_called0B5_
FNDA:44,_RNCNvNtCsbhXKu17xbPQ_9cytoscnpy9constants16get_pytest_hooks0B5_
FNDA:48,_RNCNvNtCsbhXKu17xbPQ_9cytoscnpy9constants16get_test_file_re0B5_
FNDA:10,_RNCNvNtCsbhXKu17xbPQ_9cytoscnpy9constants17get_test_decor_re0B5_
FNDA:43,_RNCNvNtCsbhXKu17xbPQ_9cytoscnpy9constants18get_suppression_re0B5_
FNDA:1,_RNCNvNtCsbhXKu17xbPQ_9cytoscnpy9constants18get_test_import_re0B5_
FNDA:4,_RNCNvNtCsbhXKu17xbPQ_9cytoscnpy9constants21get_framework_file_re0B5_
FNDA:36,_RNCNvNtCsbhXKu17xbPQ_9cytoscnpy9constants23get_test_method_pattern0B5_
FNDA:0,_RNCNvNtCsbhXKu17xbPQ_9cytoscnpy9constants24get_suppression_patterns0B5_
FNDA:10,_RNCNvNtCsbhXKu17xbPQ_9cytoscnpy9constants25get_taint_sensitive_rules0B5_
FNDA:29,_RNCNvNtCsbhXKu17xbPQ_9cytoscnpy9constants27get_default_exclude_folders0B5_
FNDA:1,_RNCNvNtCsbhXKu17xbPQ_9cytoscnpy9constants30get_unittest_lifecycle_methods0B5_
FNDA:0,_RNCNvNtCs2Eyh5DnjbiX_9cytoscnpy9constants18get_test_import_re0B5_
FNDA:0,_RNCNvNtCs2Eyh5DnjbiX_9cytoscnpy9constants21get_framework_file_re0B5_
FNDA:0,_RNCNvNtCs2Eyh5DnjbiX_9cytoscnpy9constants24get_suppression_patterns0B5_
FNDA:0,_RNCNvNtCs2Eyh5DnjbiX_9cytoscnpy9constants30get_unittest_lifecycle_methods0B5_
FNDA:0,_RNvNtCs2Eyh5DnjbiX_9cytoscnpy9constants18get_test_import_re
FNDA:0,_RNvNtCs2Eyh5DnjbiX_9cytoscnpy9constants21get_framework_file_re
FNDA:0,_RNvNtCs2Eyh5DnjbiX_9cytoscnpy9constants24get_suppression_patterns
FNDA:0,_RNvNtCs2Eyh5DnjbiX_9cytoscnpy9constants30get_unittest_lifecycle_methods
FNDA:0,_RNvNtCs2Eyh5DnjbiX_9cytoscnpy9constants13get_penalties
FNDA:0,_RNvNtCs2Eyh5DnjbiX_9cytoscnpy9constants15get_auto_called
FNDA:0,_RNvNtCs2Eyh5DnjbiX_9cytoscnpy9constants16get_pytest_hooks
FNDA:0,_RNvNtCs2Eyh5DnjbiX_9cytoscnpy9constants16get_test_file_re
FNDA:0,_RNvNtCs2Eyh5DnjbiX_9cytoscnpy9constants17get_test_decor_re
FNDA:37,_RNvNtCs2Eyh5DnjbiX_9cytoscnpy9constants18get_suppression_re
FNDA:0,_RNvNtCs2Eyh5DnjbiX_9cytoscnpy9constants23get_test_method_pattern
FNDA:0,_RNvNtCs2Eyh5DnjbiX_9cytoscnpy9constants25get_taint_sensitive_rules
FNDA:3,_RNvNtCs2Eyh5DnjbiX_9cytoscnpy9constants27get_default_exclude_folders
FNDA:0,_RNCNvNtCs2Eyh5DnjbiX_9cytoscnpy9constants13get_penalties0B5_
FNDA:0,_RNCNvNtCs2Eyh5DnjbiX_9cytoscnpy9constants15get_auto_called0B5_
FNDA:0,_RNCNvNtCs2Eyh5DnjbiX_9cytoscnpy9constants16get_pytest_hooks0B5_
FNDA:0,_RNCNvNtCs2Eyh5DnjbiX_9cytoscnpy9constants16get_test_file_re0B5_
FNDA:0,_RNCNvNtCs2Eyh5DnjbiX_9cytoscnpy9constants17get_test_decor_re0B5_
FNDA:1,_RNCNvNtCs2Eyh5DnjbiX_9cytoscnpy9constants18get_suppression_re0B5_
FNDA:0,_RNCNvNtCs2Eyh5DnjbiX_9cytoscnpy9constants23get_test_method_pattern0B5_
FNDA:0,_RNCNvNtCs2Eyh5DnjbiX_9cytoscnpy9constants25get_taint_sensitive_rules0B5_
FNDA:1,_RNCNvNtCs2Eyh5DnjbiX_9cytoscnpy9constants27get_default_exclude_folders0B5_
FNF:26
FNH:24
DA:27,0
DA:29,0
DA:30,0
DA:31,0
DA:32,0
DA:33,0
DA:35,0
DA:36,0
DA:48,2297
DA:51,2297
DA:52,44
DA:53,44
DA:54,44
DA:55,2297
DA:58,145
DA:60,145
DA:61,13
DA:62,13
DA:63,13
DA:64,13
DA:65,13
DA:66,13
DA:67,13
DA:68,13
DA:69,13
DA:70,13
DA:71,13
DA:72,13
DA:73,145
DA:80,1249
DA:83,1249
DA:84,48
DA:85,48
DA:87,48
DA:88,48
DA:89,1249
DA:96,3
DA:99,3
DA:100,1
DA:101,1
DA:102,1
DA:103,3
DA:110,43
DA:113,43
DA:114,10
DA:115,10
DA:116,10
DA:117,10
DA:118,10
DA:119,10
DA:120,10
DA:122,10
DA:123,10
DA:124,43
DA:127,756
DA:129,756
DA:130,36
DA:131,36
DA:132,36
DA:133,36
DA:134,36
DA:135,36
DA:136,756
DA:143,274
DA:146,274
DA:147,274
DA:150,1
DA:152,1
DA:153,1
DA:154,1
DA:155,1
DA:156,1
DA:157,1
DA:158,1
DA:159,1
DA:160,1
DA:161,1
DA:162,1
DA:169,28
DA:172,28
DA:173,4
DA:174,4
DA:175,4
DA:176,28
DA:180,190
DA:182,190
DA:183,30
DA:185,30
DA:186,30
DA:187,30
DA:188,30
DA:189,30
DA:190,30
DA:191,30
DA:192,30
DA:193,30
DA:194,30
DA:195,30
DA:196,30
DA:197,30
DA:198,30
DA:199,30
DA:201,30
DA:202,30
DA:203,30
DA:205,30
DA:206,30
DA:207,30
DA:209,30
DA:211,30
DA:212,30
DA:214,30
DA:215,30
DA:216,30
DA:218,30
DA:219,30
DA:220,30
DA:221,30
DA:222,30
DA:223,30
DA:225,30
DA:226,30
DA:227,30
DA:228,30
DA:229,30
DA:230,30
DA:231,190
DA:235,277
DA:237,277
DA:238,44
DA:239,44
DA:240,44
DA:241,44
DA:242,44
DA:243,44
DA:244,44
DA:245,44
DA:246,44
DA:247,44
DA:248,44
DA:249,44
DA:250,44
DA:251,44
DA:252,44
DA:253,44
DA:254,44
DA:255,44
DA:256,44
DA:257,44
DA:258,44
DA:259,44
DA:260,44
DA:261,44
DA:262,44
DA:263,44
DA:264,44
DA:265,44
DA:266,44
DA:267,44
DA:268,44
DA:269,44
DA:270,44
DA:271,44
DA:272,44
DA:273,44
DA:274,44
DA:275,44
DA:276,44
DA:277,44
DA:278,44
DA:279,44
DA:280,44
DA:281,44
DA:282,44
DA:283,44
DA:284,44
DA:285,44
DA:286,44
DA:287,44
DA:288,44
DA:289,44
DA:290,44
DA:291,44
DA:292,44
DA:293,44
DA:294,44
DA:295,44
DA:296,44
DA:297,44
DA:298,44
DA:299,44
DA:300,44
DA:301,44
DA:302,44
DA:303,44
DA:304,44
DA:305,44
DA:306,44
DA:307,44
DA:308,44
DA:309,44
DA:310,44
DA:311,44
DA:312,44
DA:313,44
DA:314,44
DA:315,44
DA:316,44
DA:317,44
DA:318,44
DA:319,44
DA:320,44
DA:321,44
DA:322,44
DA:323,44
DA:324,44
DA:325,44
DA:326,44
DA:327,44
DA:328,44
DA:329,44
DA:330,44
DA:331,44
DA:332,44
DA:333,44
DA:334,44
DA:335,44
DA:336,44
DA:337,44
DA:338,44
DA:339,44
DA:340,44
DA:341,44
DA:342,44
DA:343,44
DA:344,44
DA:345,44
DA:346,44
DA:347,44
DA:348,44
DA:349,44
DA:350,44
DA:351,44
DA:352,44
DA:353,44
DA:354,44
DA:355,44
DA:356,44
DA:357,44
DA:358,44
DA:359,44
DA:360,44
DA:361,44
DA:362,277
DA:365,96
DA:367,96
DA:368,10
DA:369,10
DA:370,10
DA:371,10
DA:372,10
DA:374,10
DA:375,96
BRF:0
BRH:0
LF:276
LH:267
end_of_record
SF:E:\Github\CytoScnPy\cytoscnpy\src\cst\comments.rs
FN:82,_RNCNvNtNtCsbhXKu17xbPQ_9cytoscnpy3cst8comments24find_associated_comments0B7_
FN:53,_RNCNvNtNtCsbhXKu17xbPQ_9cytoscnpy3cst8comments26extract_comments_recursive0B7_
FN:55,_RNCNvNtNtCsbhXKu17xbPQ_9cytoscnpy3cst8comments26extract_comments_recursives_0B7_
FN:26,_RNvMNtNtCsbhXKu17xbPQ_9cytoscnpy3cst8commentsNtB2_7Comment18is_attached_before
FN:39,_RNvNtNtCsbhXKu17xbPQ_9cytoscnpy3cst8comments16extract_comments
FN:77,_RNvNtNtCsbhXKu17xbPQ_9cytoscnpy3cst8comments24find_associated_comments
FN:45,_RNvNtNtCsbhXKu17xbPQ_9cytoscnpy3cst8comments26extract_comments_recursive
FN:82,_RNCNvNtNtCs2Eyh5DnjbiX_9cytoscnpy3cst8comments24find_associated_comments0B7_
FN:53,_RNCNvNtNtCs2Eyh5DnjbiX_9cytoscnpy3cst8comments26extract_comments_recursive0B7_
FN:55,_RNCNvNtNtCs2Eyh5DnjbiX_9cytoscnpy3cst8comments26extract_comments_recursives_0B7_
FN:97,_RNvNtNtNtCs2Eyh5DnjbiX_9cytoscnpy3cst8comments5testss_21test_extract_comments
FN:120,_RNvNtNtNtCs2Eyh5DnjbiX_9cytoscnpy3cst8comments5testss_24test_associated_comments
FN:26,_RNvMNtNtCs2Eyh5DnjbiX_9cytoscnpy3cst8commentsNtB2_7Comment18is_attached_before
FN:39,_RNvNtNtCs2Eyh5DnjbiX_9cytoscnpy3cst8comments16extract_comments
FN:77,_RNvNtNtCs2Eyh5DnjbiX_9cytoscnpy3cst8comments24find_associated_comments
FN:45,_RNvNtNtCs2Eyh5DnjbiX_9cytoscnpy3cst8comments26extract_comments_recursive
FNDA:0,_RNCNvNtNtCsbhXKu17xbPQ_9cytoscnpy3cst8comments24find_associated_comments0B7_
FNDA:0,_RNCNvNtNtCsbhXKu17xbPQ_9cytoscnpy3cst8comments26extract_comments_recursive0B7_
FNDA:0,_RNCNvNtNtCsbhXKu17xbPQ_9cytoscnpy3cst8comments26extract_comments_recursives_0B7_
FNDA:0,_RNvMNtNtCsbhXKu17xbPQ_9cytoscnpy3cst8commentsNtB2_7Comment18is_attached_before
FNDA:9,_RNvNtNtCsbhXKu17xbPQ_9cytoscnpy3cst8comments16extract_comments
FNDA:4,_RNvNtNtCsbhXKu17xbPQ_9cytoscnpy3cst8comments24find_associated_comments
FNDA:139,_RNvNtNtCsbhXKu17xbPQ_9cytoscnpy3cst8comments26extract_comments_recursive
FNDA:3,_RNCNvNtNtCs2Eyh5DnjbiX_9cytoscnpy3cst8comments24find_associated_comments0B7_
FNDA:6,_RNCNvNtNtCs2Eyh5DnjbiX_9cytoscnpy3cst8comments26extract_comments_recursive0B7_
FNDA:13,_RNCNvNtNtCs2Eyh5DnjbiX_9cytoscnpy3cst8comments26extract_comments_recursives_0B7_
FNDA:1,_RNvNtNtNtCs2Eyh5DnjbiX_9cytoscnpy3cst8comments5testss_21test_extract_comments
FNDA:1,_RNvNtNtNtCs2Eyh5DnjbiX_9cytoscnpy3cst8comments5testss_24test_associated_comments
FNDA:5,_RNvMNtNtCs2Eyh5DnjbiX_9cytoscnpy3cst8commentsNtB2_7Comment18is_attached_before
FNDA:7,_RNvNtNtCs2Eyh5DnjbiX_9cytoscnpy3cst8comments16extract_comments
FNDA:3,_RNvNtNtCs2Eyh5DnjbiX_9cytoscnpy3cst8comments24find_associated_comments
FNDA:118,_RNvNtNtCs2Eyh5DnjbiX_9cytoscnpy3cst8comments26extract_comments_recursive
FNF:9
FNH:9
DA:26,5
DA:27,5
DA:28,3
DA:29,2
DA:32,2
DA:33,2
DA:34,5
DA:39,16
DA:40,16
DA:41,16
DA:42,16
DA:43,16
DA:45,257
DA:46,257
DA:47,9
DA:48,9
DA:51,9
DA:52,9
DA:53,9
DA:54,9
DA:55,13
DA:57,9
DA:58,9
DA:59,9
DA:60,9
DA:61,9
DA:62,9
DA:63,9
DA:64,248
DA:66,498
DA:67,241
DA:68,241
DA:69,257
DA:77,7
DA:78,7
DA:80,7
DA:81,7
DA:82,7
DA:84,3
DA:86,2
DA:87,3
DA:88,7
DA:89,7
DA:97,1
DA:98,1
DA:99,1
DA:100,1
DA:101,1
DA:102,1
DA:103,1
DA:104,1
DA:105,1
DA:106,1
DA:108,1
DA:109,1
DA:110,1
DA:112,1
DA:113,1
DA:115,1
DA:116,1
DA:117,1
DA:120,1
DA:121,1
DA:122,1
DA:123,1
DA:124,1
DA:125,1
DA:126,1
DA:127,1
DA:128,1
DA:129,1
DA:130,1
DA:131,1
DA:134,1
DA:135,1
DA:137,1
DA:138,1
DA:139,1
DA:140,1
BRF:0
BRH:0
LF:82
LH:82
end_of_record
SF:E:\Github\CytoScnPy\cytoscnpy\src\cst\mapper.rs
FN:117,_RNCNvMNtNtCsbhXKu17xbPQ_9cytoscnpy3cst6mapperNtB4_12AstCstMapper24has_interleaved_comments0B8_
FN:99,_RNvMNtNtCsbhXKu17xbPQ_9cytoscnpy3cst6mapperNtB2_12AstCstMapper13slice_for_def
FN:160,_RNvMNtNtCsbhXKu17xbPQ_9cytoscnpy3cst6mapperNtB2_12AstCstMapper14get_decorators
FN:106,_RNvMNtNtCsbhXKu17xbPQ_9cytoscnpy3cst6mapperNtB2_12AstCstMapper16comments_for_def
FN:122,_RNvMNtNtCsbhXKu17xbPQ_9cytoscnpy3cst6mapperNtB2_12AstCstMapper16is_deeply_nested
FN:41,_RNvMNtNtCsbhXKu17xbPQ_9cytoscnpy3cst6mapperNtB2_12AstCstMapper18find_covering_node
FN:49,_RNvMNtNtCsbhXKu17xbPQ_9cytoscnpy3cst6mapperNtB2_12AstCstMapper21expand_for_decorators
FN:77,_RNvMNtNtCsbhXKu17xbPQ_9cytoscnpy3cst6mapperNtB2_12AstCstMapper21precise_range_for_def
FN:131,_RNvMNtNtCsbhXKu17xbPQ_9cytoscnpy3cst6mapperNtB2_12AstCstMapper23calculate_nesting_depth
FN:113,_RNvMNtNtCsbhXKu17xbPQ_9cytoscnpy3cst6mapperNtB2_12AstCstMapper24has_interleaved_comments
FN:135,_RNvMNtNtCsbhXKu17xbPQ_9cytoscnpy3cst6mapperNtB2_12AstCstMapper25calculate_depth_recursive
FN:66,_RNvMNtNtCsbhXKu17xbPQ_9cytoscnpy3cst6mapperNtB2_12AstCstMapper26find_decorated_definitions
FN:23,_RNvMNtNtCsbhXKu17xbPQ_9cytoscnpy3cst6mapperNtB2_12AstCstMapper3new
FN:29,_RNvMNtNtCsbhXKu17xbPQ_9cytoscnpy3cst6mapperNtB2_12AstCstMapper4tree
FN:35,_RNvMNtNtCsbhXKu17xbPQ_9cytoscnpy3cst6mapperNtB2_12AstCstMapper6source
FN:99,_RNvMNtNtCs2Eyh5DnjbiX_9cytoscnpy3cst6mapperNtB2_12AstCstMapper13slice_for_def
FN:160,_RNvMNtNtCs2Eyh5DnjbiX_9cytoscnpy3cst6mapperNtB2_12AstCstMapper14get_decorators
FN:29,_RNvMNtNtCs2Eyh5DnjbiX_9cytoscnpy3cst6mapperNtB2_12AstCstMapper4tree
FN:35,_RNvMNtNtCs2Eyh5DnjbiX_9cytoscnpy3cst6mapperNtB2_12AstCstMapper6source
FN:183,_RNvNtNtNtCs2Eyh5DnjbiX_9cytoscnpy3cst6mapper5testss_26test_expand_for_decorators
FN:224,_RNvNtNtNtCs2Eyh5DnjbiX_9cytoscnpy3cst6mapper5testss_35test_interleaved_comments_detection
FN:204,_RNvNtNtNtCs2Eyh5DnjbiX_9cytoscnpy3cst6mapper5testss_46test_precise_range_includes_preceding_comments
FN:239,_RNvNtNtNtCs2Eyh5DnjbiX_9cytoscnpy3cst6mapper5testss_48test_no_interleaved_comments_for_simple_function
FN:106,_RNvMNtNtCs2Eyh5DnjbiX_9cytoscnpy3cst6mapperNtB2_12AstCstMapper16comments_for_def
FN:122,_RNvMNtNtCs2Eyh5DnjbiX_9cytoscnpy3cst6mapperNtB2_12AstCstMapper16is_deeply_nested
FN:41,_RNvMNtNtCs2Eyh5DnjbiX_9cytoscnpy3cst6mapperNtB2_12AstCstMapper18find_covering_node
FN:49,_RNvMNtNtCs2Eyh5DnjbiX_9cytoscnpy3cst6mapperNtB2_12AstCstMapper21expand_for_decorators
FN:77,_RNvMNtNtCs2Eyh5DnjbiX_9cytoscnpy3cst6mapperNtB2_12AstCstMapper21precise_range_for_def
FN:131,_RNvMNtNtCs2Eyh5DnjbiX_9cytoscnpy3cst6mapperNtB2_12AstCstMapper23calculate_nesting_depth
FN:113,_RNvMNtNtCs2Eyh5DnjbiX_9cytoscnpy3cst6mapperNtB2_12AstCstMapper24has_interleaved_comments
FN:135,_RNvMNtNtCs2Eyh5DnjbiX_9cytoscnpy3cst6mapperNtB2_12AstCstMapper25calculate_depth_recursive
FN:66,_RNvMNtNtCs2Eyh5DnjbiX_9cytoscnpy3cst6mapperNtB2_12AstCstMapper26find_decorated_definitions
FN:23,_RNvMNtNtCs2Eyh5DnjbiX_9cytoscnpy3cst6mapperNtB2_12AstCstMapper3new
FN:117,_RNCNvMNtNtCs2Eyh5DnjbiX_9cytoscnpy3cst6mapperNtB4_12AstCstMapper24has_interleaved_comments0B8_
FNDA:0,_RNCNvMNtNtCsbhXKu17xbPQ_9cytoscnpy3cst6mapperNtB4_12AstCstMapper24has_interleaved_comments0B8_
FNDA:0,_RNvMNtNtCsbhXKu17xbPQ_9cytoscnpy3cst6mapperNtB2_12AstCstMapper13slice_for_def
FNDA:0,_RNvMNtNtCsbhXKu17xbPQ_9cytoscnpy3cst6mapperNtB2_12AstCstMapper14get_decorators
FNDA:4,_RNvMNtNtCsbhXKu17xbPQ_9cytoscnpy3cst6mapperNtB2_12AstCstMapper16comments_for_def
FNDA:4,_RNvMNtNtCsbhXKu17xbPQ_9cytoscnpy3cst6mapperNtB2_12AstCstMapper16is_deeply_nested
FNDA:9,_RNvMNtNtCsbhXKu17xbPQ_9cytoscnpy3cst6mapperNtB2_12AstCstMapper18find_covering_node
FNDA:5,_RNvMNtNtCsbhXKu17xbPQ_9cytoscnpy3cst6mapperNtB2_12AstCstMapper21expand_for_decorators
FNDA:5,_RNvMNtNtCsbhXKu17xbPQ_9cytoscnpy3cst6mapperNtB2_12AstCstMapper21precise_range_for_def
FNDA:4,_RNvMNtNtCsbhXKu17xbPQ_9cytoscnpy3cst6mapperNtB2_12AstCstMapper23calculate_nesting_depth
FNDA:4,_RNvMNtNtCsbhXKu17xbPQ_9cytoscnpy3cst6mapperNtB2_12AstCstMapper24has_interleaved_comments
FNDA:8,_RNvMNtNtCsbhXKu17xbPQ_9cytoscnpy3cst6mapperNtB2_12AstCstMapper25calculate_depth_recursive
FNDA:5,_RNvMNtNtCsbhXKu17xbPQ_9cytoscnpy3cst6mapperNtB2_12AstCstMapper26find_decorated_definitions
FNDA:5,_RNvMNtNtCsbhXKu17xbPQ_9cytoscnpy3cst6mapperNtB2_12AstCstMapper3new
FNDA:0,_RNvMNtNtCsbhXKu17xbPQ_9cytoscnpy3cst6mapperNtB2_12AstCstMapper4tree
FNDA:0,_RNvMNtNtCsbhXKu17xbPQ_9cytoscnpy3cst6mapperNtB2_12AstCstMapper6source
FNDA:0,_RNvMNtNtCs2Eyh5DnjbiX_9cytoscnpy3cst6mapperNtB2_12AstCstMapper13slice_for_def
FNDA:0,_RNvMNtNtCs2Eyh5DnjbiX_9cytoscnpy3cst6mapperNtB2_12AstCstMapper14get_decorators
FNDA:0,_RNvMNtNtCs2Eyh5DnjbiX_9cytoscnpy3cst6mapperNtB2_12AstCstMapper4tree
FNDA:0,_RNvMNtNtCs2Eyh5DnjbiX_9cytoscnpy3cst6mapperNtB2_12AstCstMapper6source
FNDA:1,_RNvNtNtNtCs2Eyh5DnjbiX_9cytoscnpy3cst6mapper5testss_26test_expand_for_decorators
FNDA:1,_RNvNtNtNtCs2Eyh5DnjbiX_9cytoscnpy3cst6mapper5testss_35test_interleaved_comments_detection
FNDA:1,_RNvNtNtNtCs2Eyh5DnjbiX_9cytoscnpy3cst6mapper5testss_46test_precise_range_includes_preceding_comments
FNDA:1,_RNvNtNtNtCs2Eyh5DnjbiX_9cytoscnpy3cst6mapper5testss_48test_no_interleaved_comments_for_simple_function
FNDA:2,_RNvMNtNtCs2Eyh5DnjbiX_9cytoscnpy3cst6mapperNtB2_12AstCstMapper16comments_for_def
FNDA:0,_RNvMNtNtCs2Eyh5DnjbiX_9cytoscnpy3cst6mapperNtB2_12AstCstMapper16is_deeply_nested
FNDA:4,_RNvMNtNtCs2Eyh5DnjbiX_9cytoscnpy3cst6mapperNtB2_12AstCstMapper18find_covering_node
FNDA:4,_RNvMNtNtCs2Eyh5DnjbiX_9cytoscnpy3cst6mapperNtB2_12AstCstMapper21expand_for_decorators
FNDA:3,_RNvMNtNtCs2Eyh5DnjbiX_9cytoscnpy3cst6mapperNtB2_12AstCstMapper21precise_range_for_def
FNDA:0,_RNvMNtNtCs2Eyh5DnjbiX_9cytoscnpy3cst6mapperNtB2_12AstCstMapper23calculate_nesting_depth
FNDA:2,_RNvMNtNtCs2Eyh5DnjbiX_9cytoscnpy3cst6mapperNtB2_12AstCstMapper24has_interleaved_comments
FNDA:0,_RNvMNtNtCs2Eyh5DnjbiX_9cytoscnpy3cst6mapperNtB2_12AstCstMapper25calculate_depth_recursive
FNDA:2,_RNvMNtNtCs2Eyh5DnjbiX_9cytoscnpy3cst6mapperNtB2_12AstCstMapper26find_decorated_definitions
FNDA:4,_RNvMNtNtCs2Eyh5DnjbiX_9cytoscnpy3cst6mapperNtB2_12AstCstMapper3new
FNDA:1,_RNCNvMNtNtCs2Eyh5DnjbiX_9cytoscnpy3cst6mapperNtB4_12AstCstMapper24has_interleaved_comments0B8_
FNF:19
FNH:15
DA:23,9
DA:24,9
DA:25,9
DA:29,0
DA:30,0
DA:31,0
DA:35,0
DA:36,0
DA:37,0
DA:41,13
DA:42,13
DA:43,13
DA:49,9
DA:51,9
DA:53,9
DA:55,7
DA:56,2
DA:57,2
DA:58,0
DA:60,2
DA:61,0
DA:62,7
DA:63,9
DA:66,7
DA:67,7
DA:68,7
DA:77,8
DA:78,8
DA:79,8
DA:82,8
DA:83,8
DA:85,8
DA:86,2
DA:87,1
DA:88,1
DA:90,0
DA:91,1
DA:94,8
DA:95,8
DA:99,0
DA:100,0
DA:101,0
DA:102,0
DA:106,6
DA:107,6
DA:108,6
DA:109,6
DA:113,6
DA:114,6
DA:115,6
DA:116,6
DA:117,6
DA:118,6
DA:122,4
DA:123,4
DA:124,4
DA:125,4
DA:126,0
DA:127,0
DA:128,4
DA:131,4
DA:132,4
DA:133,4
DA:135,8
DA:136,8
DA:137,4
DA:138,4
DA:140,4
DA:141,4
DA:142,4
DA:143,4
DA:146,8
DA:147,4
DA:148,4
DA:149,4
DA:150,0
DA:151,4
DA:152,0
DA:155,4
DA:156,8
DA:160,0
DA:161,0
DA:162,0
DA:163,0
DA:164,0
DA:167,0
DA:168,0
DA:169,0
DA:170,0
DA:171,0
DA:173,0
DA:174,0
DA:183,1
DA:184,1
DA:185,1
DA:186,1
DA:187,1
DA:188,1
DA:189,1
DA:190,1
DA:191,1
DA:194,1
DA:195,1
DA:197,1
DA:200,1
DA:201,1
DA:204,1
DA:205,1
DA:206,1
DA:207,1
DA:208,1
DA:209,1
DA:210,1
DA:211,1
DA:212,1
DA:214,1
DA:215,1
DA:217,1
DA:220,1
DA:221,1
DA:224,1
DA:225,1
DA:226,1
DA:227,1
DA:228,1
DA:229,1
DA:230,1
DA:231,1
DA:232,1
DA:234,1
DA:235,1
DA:236,1
DA:239,1
DA:240,1
DA:241,1
DA:242,1
DA:243,1
DA:244,1
DA:245,1
DA:247,1
DA:248,1
DA:249,1
BRF:0
BRH:0
LF:143
LH:114
end_of_record
SF:E:\Github\CytoScnPy\cytoscnpy\src\cst\parser.rs
FN:183,_RNCNvMs3_NtNtCsbhXKu17xbPQ_9cytoscnpy3cst6parserNtB7_9CstParser3new0Bb_
FN:49,_RNCNvMs_NtNtCsbhXKu17xbPQ_9cytoscnpy3cst6parserNtB6_7CstNode12from_ts_node0Ba_
FN:139,_RNvMs0_NtNtCsbhXKu17xbPQ_9cytoscnpy3cst6parserNtB5_7CstTree12find_classes
FN:133,_RNvMs0_NtNtCsbhXKu17xbPQ_9cytoscnpy3cst6parserNtB5_7CstTree14find_functions
FN:127,_RNvMs0_NtNtCsbhXKu17xbPQ_9cytoscnpy3cst6parserNtB5_7CstTree5slice
FN:177,_RNvMs3_NtNtCsbhXKu17xbPQ_9cytoscnpy3cst6parserNtB5_9CstParser3new
FN:192,_RNvMs3_NtNtCsbhXKu17xbPQ_9cytoscnpy3cst6parserNtB5_9CstParser5parse
FN:99,_RNvMs_NtNtCsbhXKu17xbPQ_9cytoscnpy3cst6parserNtB4_7CstNode12find_by_kind
FN:46,_RNvMs_NtNtCsbhXKu17xbPQ_9cytoscnpy3cst6parserNtB4_7CstNode12from_ts_node
FN:66,_RNvMs_NtNtCsbhXKu17xbPQ_9cytoscnpy3cst6parserNtB4_7CstNode13contains_byte
FN:105,_RNvMs_NtNtCsbhXKu17xbPQ_9cytoscnpy3cst6parserNtB4_7CstNode22find_by_kind_recursive
FN:78,_RNvMs_NtNtCsbhXKu17xbPQ_9cytoscnpy3cst6parserNtB4_7CstNode22find_smallest_covering
FN:72,_RNvMs_NtNtCsbhXKu17xbPQ_9cytoscnpy3cst6parserNtB4_7CstNode8overlaps
FN:17,_RNvXNtNtCsbhXKu17xbPQ_9cytoscnpy3cst6parserNtB2_5PointINtNtCsgS7EKHCc5jD_4core7convert4FromNtCsh4P0XbMvOOJ_11tree_sitter5PointE4from
FN:156,_RNvXs1_NtNtCsbhXKu17xbPQ_9cytoscnpy3cst6parserNtB5_8CstErrorNtNtCsgS7EKHCc5jD_4core3fmt7Display3fmt
FN:139,_RNvMs0_NtNtCs2Eyh5DnjbiX_9cytoscnpy3cst6parserNtB5_7CstTree12find_classes
FN:127,_RNvMs0_NtNtCs2Eyh5DnjbiX_9cytoscnpy3cst6parserNtB5_7CstTree5slice
FN:66,_RNvMs_NtNtCs2Eyh5DnjbiX_9cytoscnpy3cst6parserNtB4_7CstNode13contains_byte
FN:156,_RNvXs1_NtNtCs2Eyh5DnjbiX_9cytoscnpy3cst6parserNtB5_8CstErrorNtNtCsgS7EKHCc5jD_4core3fmt7Display3fmt
FN:133,_RNvMs0_NtNtCs2Eyh5DnjbiX_9cytoscnpy3cst6parserNtB5_7CstTree14find_functions
FN:177,_RNvMs3_NtNtCs2Eyh5DnjbiX_9cytoscnpy3cst6parserNtB5_9CstParser3new
FN:192,_RNvMs3_NtNtCs2Eyh5DnjbiX_9cytoscnpy3cst6parserNtB5_9CstParser5parse
FN:99,_RNvMs_NtNtCs2Eyh5DnjbiX_9cytoscnpy3cst6parserNtB4_7CstNode12find_by_kind
FN:46,_RNvMs_NtNtCs2Eyh5DnjbiX_9cytoscnpy3cst6parserNtB4_7CstNode12from_ts_node
FN:105,_RNvMs_NtNtCs2Eyh5DnjbiX_9cytoscnpy3cst6parserNtB4_7CstNode22find_by_kind_recursive
FN:78,_RNvMs_NtNtCs2Eyh5DnjbiX_9cytoscnpy3cst6parserNtB4_7CstNode22find_smallest_covering
FN:72,_RNvMs_NtNtCs2Eyh5DnjbiX_9cytoscnpy3cst6parserNtB4_7CstNode8overlaps
FN:17,_RNvXNtNtCs2Eyh5DnjbiX_9cytoscnpy3cst6parserNtB2_5PointINtNtCsgS7EKHCc5jD_4core7convert4FromNtCsh4P0XbMvOOJ_11tree_sitter5PointE4from
FN:183,_RNCNvMs3_NtNtCs2Eyh5DnjbiX_9cytoscnpy3cst6parserNtB7_9CstParser3new0Bb_
FN:49,_RNCNvMs_NtNtCs2Eyh5DnjbiX_9cytoscnpy3cst6parserNtB6_7CstNode12from_ts_node0Ba_
FN:226,_RNvNtNtNtCs2Eyh5DnjbiX_9cytoscnpy3cst6parser5testss_25test_byte_ranges_accurate
FN:212,_RNvNtNtNtCs2Eyh5DnjbiX_9cytoscnpy3cst6parser5testss_26test_parse_simple_function
FN:236,_RNvNtNtNtCs2Eyh5DnjbiX_9cytoscnpy3cst6parser5testss_27test_find_smallest_covering
FNDA:0,_RNCNvMs3_NtNtCsbhXKu17xbPQ_9cytoscnpy3cst6parserNtB7_9CstParser3new0Bb_
FNDA:70,_RNCNvMs_NtNtCsbhXKu17xbPQ_9cytoscnpy3cst6parserNtB6_7CstNode12from_ts_node0Ba_
FNDA:0,_RNvMs0_NtNtCsbhXKu17xbPQ_9cytoscnpy3cst6parserNtB5_7CstTree12find_classes
FNDA:0,_RNvMs0_NtNtCsbhXKu17xbPQ_9cytoscnpy3cst6parserNtB5_7CstTree14find_functions
FNDA:0,_RNvMs0_NtNtCsbhXKu17xbPQ_9cytoscnpy3cst6parserNtB5_7CstTree5slice
FNDA:5,_RNvMs3_NtNtCsbhXKu17xbPQ_9cytoscnpy3cst6parserNtB5_9CstParser3new
FNDA:5,_RNvMs3_NtNtCsbhXKu17xbPQ_9cytoscnpy3cst6parserNtB5_9CstParser5parse
FNDA:5,_RNvMs_NtNtCsbhXKu17xbPQ_9cytoscnpy3cst6parserNtB4_7CstNode12find_by_kind
FNDA:75,_RNvMs_NtNtCsbhXKu17xbPQ_9cytoscnpy3cst6parserNtB4_7CstNode12from_ts_node
FNDA:0,_RNvMs_NtNtCsbhXKu17xbPQ_9cytoscnpy3cst6parserNtB4_7CstNode13contains_byte
FNDA:75,_RNvMs_NtNtCsbhXKu17xbPQ_9cytoscnpy3cst6parserNtB4_7CstNode22find_by_kind_recursive
FNDA:18,_RNvMs_NtNtCsbhXKu17xbPQ_9cytoscnpy3cst6parserNtB4_7CstNode22find_smallest_covering
FNDA:18,_RNvMs_NtNtCsbhXKu17xbPQ_9cytoscnpy3cst6parserNtB4_7CstNode8overlaps
FNDA:150,_RNvXNtNtCsbhXKu17xbPQ_9cytoscnpy3cst6parserNtB2_5PointINtNtCsgS7EKHCc5jD_4core7convert4FromNtCsh4P0XbMvOOJ_11tree_sitter5PointE4from
FNDA:0,_RNvXs1_NtNtCsbhXKu17xbPQ_9cytoscnpy3cst6parserNtB5_8CstErrorNtNtCsgS7EKHCc5jD_4core3fmt7Display3fmt
FNDA:0,_RNvMs0_NtNtCs2Eyh5DnjbiX_9cytoscnpy3cst6parserNtB5_7CstTree12find_classes
FNDA:0,_RNvMs0_NtNtCs2Eyh5DnjbiX_9cytoscnpy3cst6parserNtB5_7CstTree5slice
FNDA:0,_RNvMs_NtNtCs2Eyh5DnjbiX_9cytoscnpy3cst6parserNtB4_7CstNode13contains_byte
FNDA:0,_RNvXs1_NtNtCs2Eyh5DnjbiX_9cytoscnpy3cst6parserNtB5_8CstErrorNtNtCsgS7EKHCc5jD_4core3fmt7Display3fmt
FNDA:1,_RNvMs0_NtNtCs2Eyh5DnjbiX_9cytoscnpy3cst6parserNtB5_7CstTree14find_functions
FNDA:9,_RNvMs3_NtNtCs2Eyh5DnjbiX_9cytoscnpy3cst6parserNtB5_9CstParser3new
FNDA:9,_RNvMs3_NtNtCs2Eyh5DnjbiX_9cytoscnpy3cst6parserNtB5_9CstParser5parse
FNDA:3,_RNvMs_NtNtCs2Eyh5DnjbiX_9cytoscnpy3cst6parserNtB4_7CstNode12find_by_kind
FNDA:140,_RNvMs_NtNtCs2Eyh5DnjbiX_9cytoscnpy3cst6parserNtB4_7CstNode12from_ts_node
FNDA:45,_RNvMs_NtNtCs2Eyh5DnjbiX_9cytoscnpy3cst6parserNtB4_7CstNode22find_by_kind_recursive
FNDA:13,_RNvMs_NtNtCs2Eyh5DnjbiX_9cytoscnpy3cst6parserNtB4_7CstNode22find_smallest_covering
FNDA:13,_RNvMs_NtNtCs2Eyh5DnjbiX_9cytoscnpy3cst6parserNtB4_7CstNode8overlaps
FNDA:280,_RNvXNtNtCs2Eyh5DnjbiX_9cytoscnpy3cst6parserNtB2_5PointINtNtCsgS7EKHCc5jD_4core7convert4FromNtCsh4P0XbMvOOJ_11tree_sitter5PointE4from
FNDA:0,_RNCNvMs3_NtNtCs2Eyh5DnjbiX_9cytoscnpy3cst6parserNtB7_9CstParser3new0Bb_
FNDA:131,_RNCNvMs_NtNtCs2Eyh5DnjbiX_9cytoscnpy3cst6parserNtB6_7CstNode12from_ts_node0Ba_
FNDA:1,_RNvNtNtNtCs2Eyh5DnjbiX_9cytoscnpy3cst6parser5testss_25test_byte_ranges_accurate
FNDA:1,_RNvNtNtNtCs2Eyh5DnjbiX_9cytoscnpy3cst6parser5testss_26test_parse_simple_function
FNDA:1,_RNvNtNtNtCs2Eyh5DnjbiX_9cytoscnpy3cst6parser5testss_27test_find_smallest_covering
FNF:18
FNH:13
DA:17,430
DA:18,430
DA:19,430
DA:20,430
DA:21,430
DA:22,430
DA:46,215
DA:48,215
DA:49,215
DA:50,215
DA:51,215
DA:53,215
DA:54,215
DA:55,215
DA:56,215
DA:57,215
DA:58,215
DA:59,215
DA:60,215
DA:61,215
DA:62,215
DA:66,0
DA:67,0
DA:68,0
DA:72,31
DA:73,31
DA:74,31
DA:78,31
DA:79,31
DA:80,0
DA:81,31
DA:84,99
DA:85,85
DA:86,17
DA:87,17
DA:88,0
DA:89,0
DA:90,68
DA:94,14
DA:95,31
DA:99,8
DA:100,8
DA:101,8
DA:102,8
DA:103,8
DA:105,120
DA:106,120
DA:107,3
DA:108,117
DA:109,232
DA:110,112
DA:111,112
DA:112,120
DA:127,0
DA:128,0
DA:129,0
DA:133,1
DA:134,1
DA:135,1
DA:139,0
DA:140,0
DA:141,0
DA:156,0
DA:157,0
DA:158,0
DA:159,0
DA:160,0
DA:162,0
DA:177,14
DA:178,14
DA:181,14
DA:182,14
DA:183,14
DA:185,14
DA:186,14
DA:192,14
DA:193,14
DA:194,14
DA:195,14
DA:196,14
DA:198,14
DA:200,14
DA:201,14
DA:202,14
DA:203,14
DA:204,14
DA:212,1
DA:213,1
DA:214,1
DA:215,1
DA:216,1
DA:217,1
DA:219,1
DA:220,1
DA:221,1
DA:222,1
DA:223,1
DA:226,1
DA:227,1
DA:228,1
DA:229,1
DA:231,1
DA:232,1
DA:233,1
DA:236,1
DA:237,1
DA:238,1
DA:239,1
DA:240,1
DA:241,1
DA:242,1
DA:245,1
DA:246,1
DA:247,1
BRF:0
BRH:0
LF:116
LH:97
end_of_record
SF:E:\Github\CytoScnPy\cytoscnpy\src\entry_point.rs
FN:151,_RNvNtCsbhXKu17xbPQ_9cytoscnpy11entry_point13get_call_name
FN:35,_RNvNtCsbhXKu17xbPQ_9cytoscnpy11entry_point13is_main_guard
FN:349,_RNvNtCsbhXKu17xbPQ_9cytoscnpy11entry_point13run_with_args
FN:67,_RNvNtCsbhXKu17xbPQ_9cytoscnpy11entry_point14is_main_string
FN:57,_RNvNtCsbhXKu17xbPQ_9cytoscnpy11entry_point14is_name_dunder
FN:212,_RNvNtCsbhXKu17xbPQ_9cytoscnpy11entry_point14merge_excludes
FN:220,_RNvNtCsbhXKu17xbPQ_9cytoscnpy11entry_point18validate_path_args
FN:197,_RNvNtCsbhXKu17xbPQ_9cytoscnpy11entry_point19prepare_output_path
FN:320,_RNvNtCsbhXKu17xbPQ_9cytoscnpy11entry_point19setup_configuration
FN:78,_RNvNtCsbhXKu17xbPQ_9cytoscnpy11entry_point22collect_function_calls
FN:121,_RNvNtCsbhXKu17xbPQ_9cytoscnpy11entry_point23collect_calls_from_expr
FN:229,_RNvNtCsbhXKu17xbPQ_9cytoscnpy11entry_point24collect_all_target_paths
FN:11,_RNvNtCsbhXKu17xbPQ_9cytoscnpy11entry_point24detect_entry_point_calls
FN:264,_RNvNtCsbhXKu17xbPQ_9cytoscnpy11entry_point24resolve_analysis_context
FN:170,_RNvNtCsbhXKu17xbPQ_9cytoscnpy11entry_point24resolve_subcommand_paths
FN:1261,_RNvNtCsbhXKu17xbPQ_9cytoscnpy11entry_point28run_clone_detection_for_json
FN:619,_RINvNtCsbhXKu17xbPQ_9cytoscnpy11entry_point10handle_halNtNtNtCslP1BYCnN0Ot_3std2io5stdio6StdoutEB4_
FN:536,_RINvNtCsbhXKu17xbPQ_9cytoscnpy11entry_point10handle_rawNtNtNtCslP1BYCnN0Ot_3std2io5stdio6StdoutEB4_
FN:750,_RINvNtCsbhXKu17xbPQ_9cytoscnpy11entry_point12handle_filesNtNtNtCslP1BYCnN0Ot_3std2io5stdio6StdoutEB4_
FN:695,_RINvNtCsbhXKu17xbPQ_9cytoscnpy11entry_point12handle_statsNtNtNtCslP1BYCnN0Ot_3std2io5stdio6StdoutEB4_
FN:769,_RINvNtCsbhXKu17xbPQ_9cytoscnpy11entry_point15handle_analysisNtNtNtCslP1BYCnN0Ot_3std2io5stdio6StdoutEB4_
FN:361,_RINvNtCsbhXKu17xbPQ_9cytoscnpy11entry_point16run_with_args_toNtNtNtCslP1BYCnN0Ot_3std2io5stdio6StdoutEB4_
FN:578,_RINvNtCsbhXKu17xbPQ_9cytoscnpy11entry_point9handle_ccNtNtNtCslP1BYCnN0Ot_3std2io5stdio6StdoutEB4_
FN:657,_RINvNtCsbhXKu17xbPQ_9cytoscnpy11entry_point9handle_miNtNtNtCslP1BYCnN0Ot_3std2io5stdio6StdoutEB4_
FN:958,_RNCINvNtCsbhXKu17xbPQ_9cytoscnpy11entry_point15handle_analysisNtNtNtCslP1BYCnN0Ot_3std2io5stdio6StdoutE0B6_
FN:1191,_RNCINvNtCsbhXKu17xbPQ_9cytoscnpy11entry_point15handle_analysisNtNtNtCslP1BYCnN0Ot_3std2io5stdio6StdoutEs0_0B6_
FN:1192,_RNCINvNtCsbhXKu17xbPQ_9cytoscnpy11entry_point15handle_analysisNtNtNtCslP1BYCnN0Ot_3std2io5stdio6StdoutEs1_0B6_
FN:1143,_RNCINvNtCsbhXKu17xbPQ_9cytoscnpy11entry_point15handle_analysisNtNtNtCslP1BYCnN0Ot_3std2io5stdio6StdoutEs_0B6_
FN:1197,_RNCNCINvNtCsbhXKu17xbPQ_9cytoscnpy11entry_point15handle_analysisNtNtNtCslP1BYCnN0Ot_3std2io5stdio6StdoutEs1_00B8_
FN:1146,_RNCNCINvNtCsbhXKu17xbPQ_9cytoscnpy11entry_point15handle_analysisNtNtNtCslP1BYCnN0Ot_3std2io5stdio6StdoutEs_00B8_
FN:1298,_RNCNCNvNtCsbhXKu17xbPQ_9cytoscnpy11entry_point28run_clone_detection_for_jsons0_00B7_
FN:274,_RNCNvNtCsbhXKu17xbPQ_9cytoscnpy11entry_point24resolve_analysis_context0B5_
FN:285,_RNCNvNtCsbhXKu17xbPQ_9cytoscnpy11entry_point24resolve_analysis_contexts0_0B5_
FN:282,_RNCNvNtCsbhXKu17xbPQ_9cytoscnpy11entry_point24resolve_analysis_contexts_0B5_
FN:1272,_RNCNvNtCsbhXKu17xbPQ_9cytoscnpy11entry_point28run_clone_detection_for_json0B5_
FN:1298,_RNCNvNtCsbhXKu17xbPQ_9cytoscnpy11entry_point28run_clone_detection_for_jsons0_0B5_
FN:1294,_RNCNvNtCsbhXKu17xbPQ_9cytoscnpy11entry_point28run_clone_detection_for_jsons_0B5_
FN:619,_RINvNtCsbhXKu17xbPQ_9cytoscnpy11entry_point10handle_halINtNtCs1S013FBku8r_5alloc3vec3VechEECsk4WInR7jcT_18absolute_path_test
FN:536,_RINvNtCsbhXKu17xbPQ_9cytoscnpy11entry_point10handle_rawINtNtCs1S013FBku8r_5alloc3vec3VechEECsk4WInR7jcT_18absolute_path_test
FN:750,_RINvNtCsbhXKu17xbPQ_9cytoscnpy11entry_point12handle_filesINtNtCs1S013FBku8r_5alloc3vec3VechEECsk4WInR7jcT_18absolute_path_test
FN:695,_RINvNtCsbhXKu17xbPQ_9cytoscnpy11entry_point12handle_statsINtNtCs1S013FBku8r_5alloc3vec3VechEECsk4WInR7jcT_18absolute_path_test
FN:769,_RINvNtCsbhXKu17xbPQ_9cytoscnpy11entry_point15handle_analysisINtNtCs1S013FBku8r_5alloc3vec3VechEECsk4WInR7jcT_18absolute_path_test
FN:361,_RINvNtCsbhXKu17xbPQ_9cytoscnpy11entry_point16run_with_args_toINtNtCs1S013FBku8r_5alloc3vec3VechEECsk4WInR7jcT_18absolute_path_test
FN:578,_RINvNtCsbhXKu17xbPQ_9cytoscnpy11entry_point9handle_ccINtNtCs1S013FBku8r_5alloc3vec3VechEECsk4WInR7jcT_18absolute_path_test
FN:657,_RINvNtCsbhXKu17xbPQ_9cytoscnpy11entry_point9handle_miINtNtCs1S013FBku8r_5alloc3vec3VechEECsk4WInR7jcT_18absolute_path_test
FN:958,_RNCINvNtCsbhXKu17xbPQ_9cytoscnpy11entry_point15handle_analysisINtNtCs1S013FBku8r_5alloc3vec3VechEE0Csk4WInR7jcT_18absolute_path_test
FN:1191,_RNCINvNtCsbhXKu17xbPQ_9cytoscnpy11entry_point15handle_analysisINtNtCs1S013FBku8r_5alloc3vec3VechEEs0_0Csk4WInR7jcT_18absolute_path_test
FN:1192,_RNCINvNtCsbhXKu17xbPQ_9cytoscnpy11entry_point15handle_analysisINtNtCs1S013FBku8r_5alloc3vec3VechEEs1_0Csk4WInR7jcT_18absolute_path_test
FN:1143,_RNCINvNtCsbhXKu17xbPQ_9cytoscnpy11entry_point15handle_analysisINtNtCs1S013FBku8r_5alloc3vec3VechEEs_0Csk4WInR7jcT_18absolute_path_test
FN:1197,_RNCNCINvNtCsbhXKu17xbPQ_9cytoscnpy11entry_point15handle_analysisINtNtCs1S013FBku8r_5alloc3vec3VechEEs1_00Csk4WInR7jcT_18absolute_path_test
FN:1146,_RNCNCINvNtCsbhXKu17xbPQ_9cytoscnpy11entry_point15handle_analysisINtNtCs1S013FBku8r_5alloc3vec3VechEEs_00Csk4WInR7jcT_18absolute_path_test
FN:151,_RNvNtCs2Eyh5DnjbiX_9cytoscnpy11entry_point13get_call_name
FN:35,_RNvNtCs2Eyh5DnjbiX_9cytoscnpy11entry_point13is_main_guard
FN:349,_RNvNtCs2Eyh5DnjbiX_9cytoscnpy11entry_point13run_with_args
FN:67,_RNvNtCs2Eyh5DnjbiX_9cytoscnpy11entry_point14is_main_string
FN:57,_RNvNtCs2Eyh5DnjbiX_9cytoscnpy11entry_point14is_name_dunder
FN:212,_RNvNtCs2Eyh5DnjbiX_9cytoscnpy11entry_point14merge_excludes
FN:220,_RNvNtCs2Eyh5DnjbiX_9cytoscnpy11entry_point18validate_path_args
FN:197,_RNvNtCs2Eyh5DnjbiX_9cytoscnpy11entry_point19prepare_output_path
FN:320,_RNvNtCs2Eyh5DnjbiX_9cytoscnpy11entry_point19setup_configuration
FN:78,_RNvNtCs2Eyh5DnjbiX_9cytoscnpy11entry_point22collect_function_calls
FN:121,_RNvNtCs2Eyh5DnjbiX_9cytoscnpy11entry_point23collect_calls_from_expr
FN:229,_RNvNtCs2Eyh5DnjbiX_9cytoscnpy11entry_point24collect_all_target_paths
FN:11,_RNvNtCs2Eyh5DnjbiX_9cytoscnpy11entry_point24detect_entry_point_calls
FN:264,_RNvNtCs2Eyh5DnjbiX_9cytoscnpy11entry_point24resolve_analysis_context
FN:170,_RNvNtCs2Eyh5DnjbiX_9cytoscnpy11entry_point24resolve_subcommand_paths
FN:1261,_RNvNtCs2Eyh5DnjbiX_9cytoscnpy11entry_point28run_clone_detection_for_json
FN:619,_RINvNtCs2Eyh5DnjbiX_9cytoscnpy11entry_point10handle_halNtNtNtCslP1BYCnN0Ot_3std2io5stdio6StdoutEB4_
FN:536,_RINvNtCs2Eyh5DnjbiX_9cytoscnpy11entry_point10handle_rawNtNtNtCslP1BYCnN0Ot_3std2io5stdio6StdoutEB4_
FN:750,_RINvNtCs2Eyh5DnjbiX_9cytoscnpy11entry_point12handle_filesNtNtNtCslP1BYCnN0Ot_3std2io5stdio6StdoutEB4_
FN:695,_RINvNtCs2Eyh5DnjbiX_9cytoscnpy11entry_point12handle_statsNtNtNtCslP1BYCnN0Ot_3std2io5stdio6StdoutEB4_
FN:769,_RINvNtCs2Eyh5DnjbiX_9cytoscnpy11entry_point15handle_analysisNtNtNtCslP1BYCnN0Ot_3std2io5stdio6StdoutEB4_
FN:361,_RINvNtCs2Eyh5DnjbiX_9cytoscnpy11entry_point16run_with_args_toNtNtNtCslP1BYCnN0Ot_3std2io5stdio6StdoutEB4_
FN:578,_RINvNtCs2Eyh5DnjbiX_9cytoscnpy11entry_point9handle_ccNtNtNtCslP1BYCnN0Ot_3std2io5stdio6StdoutEB4_
FN:657,_RINvNtCs2Eyh5DnjbiX_9cytoscnpy11entry_point9handle_miNtNtNtCslP1BYCnN0Ot_3std2io5stdio6StdoutEB4_
FN:958,_RNCINvNtCs2Eyh5DnjbiX_9cytoscnpy11entry_point15handle_analysisNtNtNtCslP1BYCnN0Ot_3std2io5stdio6StdoutE0B6_
FN:1191,_RNCINvNtCs2Eyh5DnjbiX_9cytoscnpy11entry_point15handle_analysisNtNtNtCslP1BYCnN0Ot_3std2io5stdio6StdoutEs0_0B6_
FN:1192,_RNCINvNtCs2Eyh5DnjbiX_9cytoscnpy11entry_point15handle_analysisNtNtNtCslP1BYCnN0Ot_3std2io5stdio6StdoutEs1_0B6_
FN:1143,_RNCINvNtCs2Eyh5DnjbiX_9cytoscnpy11entry_point15handle_analysisNtNtNtCslP1BYCnN0Ot_3std2io5stdio6StdoutEs_0B6_
FN:1197,_RNCNCINvNtCs2Eyh5DnjbiX_9cytoscnpy11entry_point15handle_analysisNtNtNtCslP1BYCnN0Ot_3std2io5stdio6StdoutEs1_00B8_
FN:1146,_RNCNCINvNtCs2Eyh5DnjbiX_9cytoscnpy11entry_point15handle_analysisNtNtNtCslP1BYCnN0Ot_3std2io5stdio6StdoutEs_00B8_
FN:1298,_RNCNCNvNtCs2Eyh5DnjbiX_9cytoscnpy11entry_point28run_clone_detection_for_jsons0_00B7_
FN:274,_RNCNvNtCs2Eyh5DnjbiX_9cytoscnpy11entry_point24resolve_analysis_context0B5_
FN:285,_RNCNvNtCs2Eyh5DnjbiX_9cytoscnpy11entry_point24resolve_analysis_contexts0_0B5_
FN:282,_RNCNvNtCs2Eyh5DnjbiX_9cytoscnpy11entry_point24resolve_analysis_contexts_0B5_
FN:1272,_RNCNvNtCs2Eyh5DnjbiX_9cytoscnpy11entry_point28run_clone_detection_for_json0B5_
FN:1298,_RNCNvNtCs2Eyh5DnjbiX_9cytoscnpy11entry_point28run_clone_detection_for_jsons0_0B5_
FN:1294,_RNCNvNtCs2Eyh5DnjbiX_9cytoscnpy11entry_point28run_clone_detection_for_jsons_0B5_
FN:619,_RINvNtCsbhXKu17xbPQ_9cytoscnpy11entry_point10handle_halINtNtCs1S013FBku8r_5alloc3vec3VechEECs5uXW1tGmheJ_20entry_point_cli_test
FN:536,_RINvNtCsbhXKu17xbPQ_9cytoscnpy11entry_point10handle_rawINtNtCs1S013FBku8r_5alloc3vec3VechEECs5uXW1tGmheJ_20entry_point_cli_test
FN:750,_RINvNtCsbhXKu17xbPQ_9cytoscnpy11entry_point12handle_filesINtNtCs1S013FBku8r_5alloc3vec3VechEECs5uXW1tGmheJ_20entry_point_cli_test
FN:695,_RINvNtCsbhXKu17xbPQ_9cytoscnpy11entry_point12handle_statsINtNtCs1S013FBku8r_5alloc3vec3VechEECs5uXW1tGmheJ_20entry_point_cli_test
FN:769,_RINvNtCsbhXKu17xbPQ_9cytoscnpy11entry_point15handle_analysisINtNtCs1S013FBku8r_5alloc3vec3VechEECs5uXW1tGmheJ_20entry_point_cli_test
FN:361,_RINvNtCsbhXKu17xbPQ_9cytoscnpy11entry_point16run_with_args_toINtNtCs1S013FBku8r_5alloc3vec3VechEECs5uXW1tGmheJ_20entry_point_cli_test
FN:578,_RINvNtCsbhXKu17xbPQ_9cytoscnpy11entry_point9handle_ccINtNtCs1S013FBku8r_5alloc3vec3VechEECs5uXW1tGmheJ_20entry_point_cli_test
FN:657,_RINvNtCsbhXKu17xbPQ_9cytoscnpy11entry_point9handle_miINtNtCs1S013FBku8r_5alloc3vec3VechEECs5uXW1tGmheJ_20entry_point_cli_test
FN:958,_RNCINvNtCsbhXKu17xbPQ_9cytoscnpy11entry_point15handle_analysisINtNtCs1S013FBku8r_5alloc3vec3VechEE0Cs5uXW1tGmheJ_20entry_point_cli_test
FN:1191,_RNCINvNtCsbhXKu17xbPQ_9cytoscnpy11entry_point15handle_analysisINtNtCs1S013FBku8r_5alloc3vec3VechEEs0_0Cs5uXW1tGmheJ_20entry_point_cli_test
FN:1192,_RNCINvNtCsbhXKu17xbPQ_9cytoscnpy11entry_point15handle_analysisINtNtCs1S013FBku8r_5alloc3vec3VechEEs1_0Cs5uXW1tGmheJ_20entry_point_cli_test
FN:1143,_RNCINvNtCsbhXKu17xbPQ_9cytoscnpy11entry_point15handle_analysisINtNtCs1S013FBku8r_5alloc3vec3VechEEs_0Cs5uXW1tGmheJ_20entry_point_cli_test
FN:1197,_RNCNCINvNtCsbhXKu17xbPQ_9cytoscnpy11entry_point15handle_analysisINtNtCs1S013FBku8r_5alloc3vec3VechEEs1_00Cs5uXW1tGmheJ_20entry_point_cli_test
FN:1146,_RNCNCINvNtCsbhXKu17xbPQ_9cytoscnpy11entry_point15handle_analysisINtNtCs1S013FBku8r_5alloc3vec3VechEEs_00Cs5uXW1tGmheJ_20entry_point_cli_test
FN:619,_RINvNtCsbhXKu17xbPQ_9cytoscnpy11entry_point10handle_halINtNtCs1S013FBku8r_5alloc3vec3VechEECsdWd4hUIhEqZ_14root_flag_test
FN:536,_RINvNtCsbhXKu17xbPQ_9cytoscnpy11entry_point10handle_rawINtNtCs1S013FBku8r_5alloc3vec3VechEECsdWd4hUIhEqZ_14root_flag_test
FN:750,_RINvNtCsbhXKu17xbPQ_9cytoscnpy11entry_point12handle_filesINtNtCs1S013FBku8r_5alloc3vec3VechEECsdWd4hUIhEqZ_14root_flag_test
FN:695,_RINvNtCsbhXKu17xbPQ_9cytoscnpy11entry_point12handle_statsINtNtCs1S013FBku8r_5alloc3vec3VechEECsdWd4hUIhEqZ_14root_flag_test
FN:769,_RINvNtCsbhXKu17xbPQ_9cytoscnpy11entry_point15handle_analysisINtNtCs1S013FBku8r_5alloc3vec3VechEECsdWd4hUIhEqZ_14root_flag_test
FN:361,_RINvNtCsbhXKu17xbPQ_9cytoscnpy11entry_point16run_with_args_toINtNtCs1S013FBku8r_5alloc3vec3VechEECsdWd4hUIhEqZ_14root_flag_test
FN:578,_RINvNtCsbhXKu17xbPQ_9cytoscnpy11entry_point9handle_ccINtNtCs1S013FBku8r_5alloc3vec3VechEECsdWd4hUIhEqZ_14root_flag_test
FN:657,_RINvNtCsbhXKu17xbPQ_9cytoscnpy11entry_point9handle_miINtNtCs1S013FBku8r_5alloc3vec3VechEECsdWd4hUIhEqZ_14root_flag_test
FN:958,_RNCINvNtCsbhXKu17xbPQ_9cytoscnpy11entry_point15handle_analysisINtNtCs1S013FBku8r_5alloc3vec3VechEE0CsdWd4hUIhEqZ_14root_flag_test
FN:1191,_RNCINvNtCsbhXKu17xbPQ_9cytoscnpy11entry_point15handle_analysisINtNtCs1S013FBku8r_5alloc3vec3VechEEs0_0CsdWd4hUIhEqZ_14root_flag_test
FN:1192,_RNCINvNtCsbhXKu17xbPQ_9cytoscnpy11entry_point15handle_analysisINtNtCs1S013FBku8r_5alloc3vec3VechEEs1_0CsdWd4hUIhEqZ_14root_flag_test
FN:1143,_RNCINvNtCsbhXKu17xbPQ_9cytoscnpy11entry_point15handle_analysisINtNtCs1S013FBku8r_5alloc3vec3VechEEs_0CsdWd4hUIhEqZ_14root_flag_test
FN:1197,_RNCNCINvNtCsbhXKu17xbPQ_9cytoscnpy11entry_point15handle_analysisINtNtCs1S013FBku8r_5alloc3vec3VechEEs1_00CsdWd4hUIhEqZ_14root_flag_test
FN:1146,_RNCNCINvNtCsbhXKu17xbPQ_9cytoscnpy11entry_point15handle_analysisINtNtCs1S013FBku8r_5alloc3vec3VechEEs_00CsdWd4hUIhEqZ_14root_flag_test
FNDA:4,_RNvNtCsbhXKu17xbPQ_9cytoscnpy11entry_point13get_call_name
FNDA:360,_RNvNtCsbhXKu17xbPQ_9cytoscnpy11entry_point13is_main_guard
FNDA:2,_RNvNtCsbhXKu17xbPQ_9cytoscnpy11entry_point13run_with_args
FNDA:3,_RNvNtCsbhXKu17xbPQ_9cytoscnpy11entry_point14is_main_string
FNDA:4,_RNvNtCsbhXKu17xbPQ_9cytoscnpy11entry_point14is_name_dunder
FNDA:8,_RNvNtCsbhXKu17xbPQ_9cytoscnpy11entry_point14merge_excludes
FNDA:31,_RNvNtCsbhXKu17xbPQ_9cytoscnpy11entry_point18validate_path_args
FNDA:7,_RNvNtCsbhXKu17xbPQ_9cytoscnpy11entry_point19prepare_output_path
FNDA:23,_RNvNtCsbhXKu17xbPQ_9cytoscnpy11entry_point19setup_configuration
FNDA:4,_RNvNtCsbhXKu17xbPQ_9cytoscnpy11entry_point22collect_function_calls
FNDA:4,_RNvNtCsbhXKu17xbPQ_9cytoscnpy11entry_point23collect_calls_from_expr
FNDA:23,_RNvNtCsbhXKu17xbPQ_9cytoscnpy11entry_point24collect_all_target_paths
FNDA:174,_RNvNtCsbhXKu17xbPQ_9cytoscnpy11entry_point24detect_entry_point_calls
FNDA:23,_RNvNtCsbhXKu17xbPQ_9cytoscnpy11entry_point24resolve_analysis_context
FNDA:8,_RNvNtCsbhXKu17xbPQ_9cytoscnpy11entry_point24resolve_subcommand_paths
FNDA:0,_RNvNtCsbhXKu17xbPQ_9cytoscnpy11entry_point28run_clone_detection_for_json
FNDA:0,_RINvNtCsbhXKu17xbPQ_9cytoscnpy11entry_point10handle_halNtNtNtCslP1BYCnN0Ot_3std2io5stdio6StdoutEB4_
FNDA:0,_RINvNtCsbhXKu17xbPQ_9cytoscnpy11entry_point10handle_rawNtNtNtCslP1BYCnN0Ot_3std2io5stdio6StdoutEB4_
FNDA:0,_RINvNtCsbhXKu17xbPQ_9cytoscnpy11entry_point12handle_filesNtNtNtCslP1BYCnN0Ot_3std2io5stdio6StdoutEB4_
FNDA:0,_RINvNtCsbhXKu17xbPQ_9cytoscnpy11entry_point12handle_statsNtNtNtCslP1BYCnN0Ot_3std2io5stdio6StdoutEB4_
FNDA:0,_RINvNtCsbhXKu17xbPQ_9cytoscnpy11entry_point15handle_analysisNtNtNtCslP1BYCnN0Ot_3std2io5stdio6StdoutEB4_
FNDA:2,_RINvNtCsbhXKu17xbPQ_9cytoscnpy11entry_point16run_with_args_toNtNtNtCslP1BYCnN0Ot_3std2io5stdio6StdoutEB4_
FNDA:0,_RINvNtCsbhXKu17xbPQ_9cytoscnpy11entry_point9handle_ccNtNtNtCslP1BYCnN0Ot_3std2io5stdio6StdoutEB4_
FNDA:0,_RINvNtCsbhXKu17xbPQ_9cytoscnpy11entry_point9handle_miNtNtNtCslP1BYCnN0Ot_3std2io5stdio6StdoutEB4_
FNDA:0,_RNCINvNtCsbhXKu17xbPQ_9cytoscnpy11entry_point15handle_analysisNtNtNtCslP1BYCnN0Ot_3std2io5stdio6StdoutE0B6_
FNDA:0,_RNCINvNtCsbhXKu17xbPQ_9cytoscnpy11entry_point15handle_analysisNtNtNtCslP1BYCnN0Ot_3std2io5stdio6StdoutEs0_0B6_
FNDA:0,_RNCINvNtCsbhXKu17xbPQ_9cytoscnpy11entry_point15handle_analysisNtNtNtCslP1BYCnN0Ot_3std2io5stdio6StdoutEs1_0B6_
FNDA:0,_RNCINvNtCsbhXKu17xbPQ_9cytoscnpy11entry_point15handle_analysisNtNtNtCslP1BYCnN0Ot_3std2io5stdio6StdoutEs_0B6_
FNDA:0,_RNCNCINvNtCsbhXKu17xbPQ_9cytoscnpy11entry_point15handle_analysisNtNtNtCslP1BYCnN0Ot_3std2io5stdio6StdoutEs1_00B8_
FNDA:0,_RNCNCINvNtCsbhXKu17xbPQ_9cytoscnpy11entry_point15handle_analysisNtNtNtCslP1BYCnN0Ot_3std2io5stdio6StdoutEs_00B8_
FNDA:0,_RNCNCNvNtCsbhXKu17xbPQ_9cytoscnpy11entry_point28run_clone_detection_for_jsons0_00B7_
FNDA:21,_RNCNvNtCsbhXKu17xbPQ_9cytoscnpy11entry_point24resolve_analysis_context0B5_
FNDA:20,_RNCNvNtCsbhXKu17xbPQ_9cytoscnpy11entry_point24resolve_analysis_contexts0_0B5_
FNDA:0,_RNCNvNtCsbhXKu17xbPQ_9cytoscnpy11entry_point24resolve_analysis_contexts_0B5_
FNDA:0,_RNCNvNtCsbhXKu17xbPQ_9cytoscnpy11entry_point28run_clone_detection_for_json0B5_
FNDA:0,_RNCNvNtCsbhXKu17xbPQ_9cytoscnpy11entry_point28run_clone_detection_for_jsons0_0B5_
FNDA:0,_RNCNvNtCsbhXKu17xbPQ_9cytoscnpy11entry_point28run_clone_detection_for_jsons_0B5_
FNDA:0,_RINvNtCsbhXKu17xbPQ_9cytoscnpy11entry_point10handle_halINtNtCs1S013FBku8r_5alloc3vec3VechEECsk4WInR7jcT_18absolute_path_test
FNDA:0,_RINvNtCsbhXKu17xbPQ_9cytoscnpy11entry_point10handle_rawINtNtCs1S013FBku8r_5alloc3vec3VechEECsk4WInR7jcT_18absolute_path_test
FNDA:0,_RINvNtCsbhXKu17xbPQ_9cytoscnpy11entry_point12handle_filesINtNtCs1S013FBku8r_5alloc3vec3VechEECsk4WInR7jcT_18absolute_path_test
FNDA:0,_RINvNtCsbhXKu17xbPQ_9cytoscnpy11entry_point12handle_statsINtNtCs1S013FBku8r_5alloc3vec3VechEECsk4WInR7jcT_18absolute_path_test
FNDA:2,_RINvNtCsbhXKu17xbPQ_9cytoscnpy11entry_point15handle_analysisINtNtCs1S013FBku8r_5alloc3vec3VechEECsk4WInR7jcT_18absolute_path_test
FNDA:2,_RINvNtCsbhXKu17xbPQ_9cytoscnpy11entry_point16run_with_args_toINtNtCs1S013FBku8r_5alloc3vec3VechEECsk4WInR7jcT_18absolute_path_test
FNDA:0,_RINvNtCsbhXKu17xbPQ_9cytoscnpy11entry_point9handle_ccINtNtCs1S013FBku8r_5alloc3vec3VechEECsk4WInR7jcT_18absolute_path_test
FNDA:0,_RINvNtCsbhXKu17xbPQ_9cytoscnpy11entry_point9handle_miINtNtCs1S013FBku8r_5alloc3vec3VechEECsk4WInR7jcT_18absolute_path_test
FNDA:0,_RNCINvNtCsbhXKu17xbPQ_9cytoscnpy11entry_point15handle_analysisINtNtCs1S013FBku8r_5alloc3vec3VechEE0Csk4WInR7jcT_18absolute_path_test
FNDA:0,_RNCINvNtCsbhXKu17xbPQ_9cytoscnpy11entry_point15handle_analysisINtNtCs1S013FBku8r_5alloc3vec3VechEEs0_0Csk4WInR7jcT_18absolute_path_test
FNDA:0,_RNCINvNtCsbhXKu17xbPQ_9cytoscnpy11entry_point15handle_analysisINtNtCs1S013FBku8r_5alloc3vec3VechEEs1_0Csk4WInR7jcT_18absolute_path_test
FNDA:2,_RNCINvNtCsbhXKu17xbPQ_9cytoscnpy11entry_point15handle_analysisINtNtCs1S013FBku8r_5alloc3vec3VechEEs_0Csk4WInR7jcT_18absolute_path_test
FNDA:0,_RNCNCINvNtCsbhXKu17xbPQ_9cytoscnpy11entry_point15handle_analysisINtNtCs1S013FBku8r_5alloc3vec3VechEEs1_00Csk4WInR7jcT_18absolute_path_test
FNDA:0,_RNCNCINvNtCsbhXKu17xbPQ_9cytoscnpy11entry_point15handle_analysisINtNtCs1S013FBku8r_5alloc3vec3VechEEs_00Csk4WInR7jcT_18absolute_path_test
FNDA:0,_RNvNtCs2Eyh5DnjbiX_9cytoscnpy11entry_point13get_call_name
FNDA:0,_RNvNtCs2Eyh5DnjbiX_9cytoscnpy11entry_point13is_main_guard
FNDA:0,_RNvNtCs2Eyh5DnjbiX_9cytoscnpy11entry_point13run_with_args
FNDA:0,_RNvNtCs2Eyh5DnjbiX_9cytoscnpy11entry_point14is_main_string
FNDA:0,_RNvNtCs2Eyh5DnjbiX_9cytoscnpy11entry_point14is_name_dunder
FNDA:0,_RNvNtCs2Eyh5DnjbiX_9cytoscnpy11entry_point14merge_excludes
FNDA:0,_RNvNtCs2Eyh5DnjbiX_9cytoscnpy11entry_point18validate_path_args
FNDA:0,_RNvNtCs2Eyh5DnjbiX_9cytoscnpy11entry_point19prepare_output_path
FNDA:0,_RNvNtCs2Eyh5DnjbiX_9cytoscnpy11entry_point19setup_configuration
FNDA:0,_RNvNtCs2Eyh5DnjbiX_9cytoscnpy11entry_point22collect_function_calls
FNDA:0,_RNvNtCs2Eyh5DnjbiX_9cytoscnpy11entry_point23collect_calls_from_expr
FNDA:0,_RNvNtCs2Eyh5DnjbiX_9cytoscnpy11entry_point24collect_all_target_paths
FNDA:0,_RNvNtCs2Eyh5DnjbiX_9cytoscnpy11entry_point24detect_entry_point_calls
FNDA:0,_RNvNtCs2Eyh5DnjbiX_9cytoscnpy11entry_point24resolve_analysis_context
FNDA:0,_RNvNtCs2Eyh5DnjbiX_9cytoscnpy11entry_point24resolve_subcommand_paths
FNDA:0,_RNvNtCs2Eyh5DnjbiX_9cytoscnpy11entry_point28run_clone_detection_for_json
FNDA:0,_RINvNtCs2Eyh5DnjbiX_9cytoscnpy11entry_point10handle_halNtNtNtCslP1BYCnN0Ot_3std2io5stdio6StdoutEB4_
FNDA:0,_RINvNtCs2Eyh5DnjbiX_9cytoscnpy11entry_point10handle_rawNtNtNtCslP1BYCnN0Ot_3std2io5stdio6StdoutEB4_
FNDA:0,_RINvNtCs2Eyh5DnjbiX_9cytoscnpy11entry_point12handle_filesNtNtNtCslP1BYCnN0Ot_3std2io5stdio6StdoutEB4_
FNDA:0,_RINvNtCs2Eyh5DnjbiX_9cytoscnpy11entry_point12handle_statsNtNtNtCslP1BYCnN0Ot_3std2io5stdio6StdoutEB4_
FNDA:0,_RINvNtCs2Eyh5DnjbiX_9cytoscnpy11entry_point15handle_analysisNtNtNtCslP1BYCnN0Ot_3std2io5stdio6StdoutEB4_
FNDA:0,_RINvNtCs2Eyh5DnjbiX_9cytoscnpy11entry_point16run_with_args_toNtNtNtCslP1BYCnN0Ot_3std2io5stdio6StdoutEB4_
FNDA:0,_RINvNtCs2Eyh5DnjbiX_9cytoscnpy11entry_point9handle_ccNtNtNtCslP1BYCnN0Ot_3std2io5stdio6StdoutEB4_
FNDA:0,_RINvNtCs2Eyh5DnjbiX_9cytoscnpy11entry_point9handle_miNtNtNtCslP1BYCnN0Ot_3std2io5stdio6StdoutEB4_
FNDA:0,_RNCINvNtCs2Eyh5DnjbiX_9cytoscnpy11entry_point15handle_analysisNtNtNtCslP1BYCnN0Ot_3std2io5stdio6StdoutE0B6_
FNDA:0,_RNCINvNtCs2Eyh5DnjbiX_9cytoscnpy11entry_point15handle_analysisNtNtNtCslP1BYCnN0Ot_3std2io5stdio6StdoutEs0_0B6_
FNDA:0,_RNCINvNtCs2Eyh5DnjbiX_9cytoscnpy11entry_point15handle_analysisNtNtNtCslP1BYCnN0Ot_3std2io5stdio6StdoutEs1_0B6_
FNDA:0,_RNCINvNtCs2Eyh5DnjbiX_9cytoscnpy11entry_point15handle_analysisNtNtNtCslP1BYCnN0Ot_3std2io5stdio6StdoutEs_0B6_
FNDA:0,_RNCNCINvNtCs2Eyh5DnjbiX_9cytoscnpy11entry_point15handle_analysisNtNtNtCslP1BYCnN0Ot_3std2io5stdio6StdoutEs1_00B8_
FNDA:0,_RNCNCINvNtCs2Eyh5DnjbiX_9cytoscnpy11entry_point15handle_analysisNtNtNtCslP1BYCnN0Ot_3std2io5stdio6StdoutEs_00B8_
FNDA:0,_RNCNCNvNtCs2Eyh5DnjbiX_9cytoscnpy11entry_point28run_clone_detection_for_jsons0_00B7_
FNDA:0,_RNCNvNtCs2Eyh5DnjbiX_9cytoscnpy11entry_point24resolve_analysis_context0B5_
FNDA:0,_RNCNvNtCs2Eyh5DnjbiX_9cytoscnpy11entry_point24resolve_analysis_contexts0_0B5_
FNDA:0,_RNCNvNtCs2Eyh5DnjbiX_9cytoscnpy11entry_point24resolve_analysis_contexts_0B5_
FNDA:0,_RNCNvNtCs2Eyh5DnjbiX_9cytoscnpy11entry_point28run_clone_detection_for_json0B5_
FNDA:0,_RNCNvNtCs2Eyh5DnjbiX_9cytoscnpy11entry_point28run_clone_detection_for_jsons0_0B5_
FNDA:0,_RNCNvNtCs2Eyh5DnjbiX_9cytoscnpy11entry_point28run_clone_detection_for_jsons_0B5_
FNDA:1,_RINvNtCsbhXKu17xbPQ_9cytoscnpy11entry_point10handle_halINtNtCs1S013FBku8r_5alloc3vec3VechEECs5uXW1tGmheJ_20entry_point_cli_test
FNDA:1,_RINvNtCsbhXKu17xbPQ_9cytoscnpy11entry_point10handle_rawINtNtCs1S013FBku8r_5alloc3vec3VechEECs5uXW1tGmheJ_20entry_point_cli_test
FNDA:1,_RINvNtCsbhXKu17xbPQ_9cytoscnpy11entry_point12handle_filesINtNtCs1S013FBku8r_5alloc3vec3VechEECs5uXW1tGmheJ_20entry_point_cli_test
FNDA:1,_RINvNtCsbhXKu17xbPQ_9cytoscnpy11entry_point12handle_statsINtNtCs1S013FBku8r_5alloc3vec3VechEECs5uXW1tGmheJ_20entry_point_cli_test
FNDA:10,_RINvNtCsbhXKu17xbPQ_9cytoscnpy11entry_point15handle_analysisINtNtCs1S013FBku8r_5alloc3vec3VechEECs5uXW1tGmheJ_20entry_point_cli_test
FNDA:16,_RINvNtCsbhXKu17xbPQ_9cytoscnpy11entry_point16run_with_args_toINtNtCs1S013FBku8r_5alloc3vec3VechEECs5uXW1tGmheJ_20entry_point_cli_test
FNDA:1,_RINvNtCsbhXKu17xbPQ_9cytoscnpy11entry_point9handle_ccINtNtCs1S013FBku8r_5alloc3vec3VechEECs5uXW1tGmheJ_20entry_point_cli_test
FNDA:1,_RINvNtCsbhXKu17xbPQ_9cytoscnpy11entry_point9handle_miINtNtCs1S013FBku8r_5alloc3vec3VechEECs5uXW1tGmheJ_20entry_point_cli_test
FNDA:0,_RNCINvNtCsbhXKu17xbPQ_9cytoscnpy11entry_point15handle_analysisINtNtCs1S013FBku8r_5alloc3vec3VechEE0Cs5uXW1tGmheJ_20entry_point_cli_test
FNDA:0,_RNCINvNtCsbhXKu17xbPQ_9cytoscnpy11entry_point15handle_analysisINtNtCs1S013FBku8r_5alloc3vec3VechEEs0_0Cs5uXW1tGmheJ_20entry_point_cli_test
FNDA:0,_RNCINvNtCsbhXKu17xbPQ_9cytoscnpy11entry_point15handle_analysisINtNtCs1S013FBku8r_5alloc3vec3VechEEs1_0Cs5uXW1tGmheJ_20entry_point_cli_test
FNDA:9,_RNCINvNtCsbhXKu17xbPQ_9cytoscnpy11entry_point15handle_analysisINtNtCs1S013FBku8r_5alloc3vec3VechEEs_0Cs5uXW1tGmheJ_20entry_point_cli_test
FNDA:0,_RNCNCINvNtCsbhXKu17xbPQ_9cytoscnpy11entry_point15handle_analysisINtNtCs1S013FBku8r_5alloc3vec3VechEEs1_00Cs5uXW1tGmheJ_20entry_point_cli_test
FNDA:0,_RNCNCINvNtCsbhXKu17xbPQ_9cytoscnpy11entry_point15handle_analysisINtNtCs1S013FBku8r_5alloc3vec3VechEEs_00Cs5uXW1tGmheJ_20entry_point_cli_test
FNDA:0,_RINvNtCsbhXKu17xbPQ_9cytoscnpy11entry_point10handle_halINtNtCs1S013FBku8r_5alloc3vec3VechEECsdWd4hUIhEqZ_14root_flag_test
FNDA:0,_RINvNtCsbhXKu17xbPQ_9cytoscnpy11entry_point10handle_rawINtNtCs1S013FBku8r_5alloc3vec3VechEECsdWd4hUIhEqZ_14root_flag_test
FNDA:0,_RINvNtCsbhXKu17xbPQ_9cytoscnpy11entry_point12handle_filesINtNtCs1S013FBku8r_5alloc3vec3VechEECsdWd4hUIhEqZ_14root_flag_test
FNDA:1,_RINvNtCsbhXKu17xbPQ_9cytoscnpy11entry_point12handle_statsINtNtCs1S013FBku8r_5alloc3vec3VechEECsdWd4hUIhEqZ_14root_flag_test
FNDA:3,_RINvNtCsbhXKu17xbPQ_9cytoscnpy11entry_point15handle_analysisINtNtCs1S013FBku8r_5alloc3vec3VechEECsdWd4hUIhEqZ_14root_flag_test
FNDA:12,_RINvNtCsbhXKu17xbPQ_9cytoscnpy11entry_point16run_with_args_toINtNtCs1S013FBku8r_5alloc3vec3VechEECsdWd4hUIhEqZ_14root_flag_test
FNDA:1,_RINvNtCsbhXKu17xbPQ_9cytoscnpy11entry_point9handle_ccINtNtCs1S013FBku8r_5alloc3vec3VechEECsdWd4hUIhEqZ_14root_flag_test
FNDA:0,_RINvNtCsbhXKu17xbPQ_9cytoscnpy11entry_point9handle_miINtNtCs1S013FBku8r_5alloc3vec3VechEECsdWd4hUIhEqZ_14root_flag_test
FNDA:0,_RNCINvNtCsbhXKu17xbPQ_9cytoscnpy11entry_point15handle_analysisINtNtCs1S013FBku8r_5alloc3vec3VechEE0CsdWd4hUIhEqZ_14root_flag_test
FNDA:0,_RNCINvNtCsbhXKu17xbPQ_9cytoscnpy11entry_point15handle_analysisINtNtCs1S013FBku8r_5alloc3vec3VechEEs0_0CsdWd4hUIhEqZ_14root_flag_test
FNDA:0,_RNCINvNtCsbhXKu17xbPQ_9cytoscnpy11entry_point15handle_analysisINtNtCs1S013FBku8r_5alloc3vec3VechEEs1_0CsdWd4hUIhEqZ_14root_flag_test
FNDA:3,_RNCINvNtCsbhXKu17xbPQ_9cytoscnpy11entry_point15handle_analysisINtNtCs1S013FBku8r_5alloc3vec3VechEEs_0CsdWd4hUIhEqZ_14root_flag_test
FNDA:0,_RNCNCINvNtCsbhXKu17xbPQ_9cytoscnpy11entry_point15handle_analysisINtNtCs1S013FBku8r_5alloc3vec3VechEEs1_00CsdWd4hUIhEqZ_14root_flag_test
FNDA:0,_RNCNCINvNtCsbhXKu17xbPQ_9cytoscnpy11entry_point15handle_analysisINtNtCs1S013FBku8r_5alloc3vec3VechEEs_00CsdWd4hUIhEqZ_14root_flag_test
FNF:37
FNH:26
DA:11,174
DA:12,174
DA:15,534
DA:17,360
DA:19,3
DA:21,7
DA:22,4
DA:23,4
DA:24,4
DA:25,0
DA:26,357
DA:29,174
DA:30,174
DA:35,360
DA:36,360
DA:38,6
DA:41,3
DA:42,3
DA:43,3
DA:46,3
DA:47,1
DA:48,0
DA:49,3
DA:50,354
DA:51,357
DA:52,360
DA:57,4
DA:58,4
DA:59,3
DA:60,1
DA:61,1
DA:62,4
DA:67,3
DA:68,3
DA:69,3
DA:70,0
DA:71,0
DA:72,3
DA:78,4
DA:79,4
DA:81,4
DA:82,4
DA:83,4
DA:85,0
DA:86,0
DA:87,0
DA:89,0
DA:90,0
DA:91,0
DA:92,0
DA:93,0
DA:94,0
DA:95,0
DA:96,0
DA:100,0
DA:102,0
DA:104,0
DA:105,0
DA:106,0
DA:109,0
DA:110,0
DA:111,0
DA:112,0
DA:114,0
DA:116,4
DA:121,4
DA:122,4
DA:124,4
DA:126,4
DA:127,4
DA:128,4
DA:130,4
DA:131,0
DA:132,0
DA:136,0
DA:137,0
DA:138,0
DA:140,0
DA:141,0
DA:142,0
DA:143,0
DA:144,0
DA:146,4
DA:151,4
DA:152,4
DA:154,3
DA:156,1
DA:158,1
DA:160,0
DA:162,4
DA:170,8
DA:171,8
DA:172,8
DA:173,8
DA:175,8
DA:176,2
DA:177,6
DA:178,0
DA:180,6
DA:183,16
DA:184,8
DA:185,0
DA:186,0
DA:187,0
DA:189,0
DA:190,8
DA:192,8
DA:193,8
DA:197,7
DA:198,7
DA:199,7
DA:200,7
DA:201,7
DA:202,0
DA:203,0
DA:204,0
DA:205,0
DA:207,7
DA:209,7
DA:212,8
DA:213,8
DA:214,8
DA:215,8
DA:216,8
DA:220,31
DA:221,31
DA:222,0
DA:223,0
DA:224,31
DA:225,31
DA:226,31
DA:229,23
DA:230,23
DA:231,23
DA:232,8
DA:233,1
DA:234,2
DA:235,1
DA:236,1
DA:237,5
DA:238,1
DA:239,4
DA:240,4
DA:241,4
DA:243,1
DA:244,1
DA:245,0
DA:246,1
DA:247,1
DA:248,1
DA:250,2
DA:251,2
DA:252,1
DA:253,1
DA:254,1
DA:255,1
DA:257,0
DA:259,15
DA:260,23
DA:261,23
DA:264,23
DA:265,23
DA:266,23
DA:267,23
DA:268,23
DA:270,2
DA:271,21
DA:273,21
DA:274,21
DA:276,20
DA:277,4
DA:279,16
DA:280,16
DA:281,16
DA:282,16
DA:285,20
DA:286,20
DA:287,0
DA:288,0
DA:289,0
DA:290,0
DA:294,20
DA:295,1
DA:297,21
DA:300,8
DA:301,8
DA:303,0
DA:306,13
DA:309,21
DA:310,23
DA:320,23
DA:321,23
DA:322,23
DA:323,23
DA:324,23
DA:326,23
DA:327,23
DA:329,23
DA:330,23
DA:332,23
DA:333,23
DA:335,23
DA:336,23
DA:337,23
DA:338,23
DA:339,23
DA:340,23
DA:341,23
DA:349,2
DA:350,2
DA:351,2
DA:361,32
DA:362,32
DA:363,32
DA:364,32
DA:365,23
DA:366,9
DA:367,9
DA:370,4
DA:371,4
DA:372,4
DA:375,5
DA:376,5
DA:383,23
DA:384,0
DA:385,23
DA:387,23
DA:388,23
DA:390,23
DA:391,23
DA:392,23
DA:393,23
DA:394,23
DA:397,23
DA:399,0
DA:400,0
DA:401,0
DA:402,0
DA:403,0
DA:405,23
DA:407,23
DA:408,1
DA:409,1
DA:410,1
DA:411,0
DA:412,1
DA:413,1
DA:414,1
DA:415,22
DA:417,23
DA:418,8
DA:419,1
DA:420,1
DA:421,1
DA:422,1
DA:423,1
DA:424,1
DA:425,1
DA:428,2
DA:429,2
DA:430,2
DA:431,2
DA:432,2
DA:433,2
DA:434,2
DA:435,2
DA:436,2
DA:437,2
DA:438,2
DA:439,2
DA:440,2
DA:441,2
DA:442,2
DA:443,2
DA:444,2
DA:445,2
DA:446,2
DA:447,2
DA:448,2
DA:449,2
DA:450,2
DA:451,2
DA:452,2
DA:454,1
DA:455,1
DA:456,1
DA:457,1
DA:458,1
DA:459,1
DA:460,1
DA:463,1
DA:464,1
DA:465,1
DA:466,1
DA:467,1
DA:468,1
DA:469,1
DA:470,1
DA:471,1
DA:472,1
DA:473,1
DA:474,1
DA:475,1
DA:476,1
DA:477,1
DA:478,1
DA:479,1
DA:480,1
DA:481,1
DA:484,0
DA:485,0
DA:486,0
DA:489,2
DA:490,2
DA:491,2
DA:492,2
DA:493,2
DA:494,2
DA:495,2
DA:496,2
DA:497,2
DA:498,2
DA:500,2
DA:502,2
DA:503,2
DA:504,2
DA:506,2
DA:508,2
DA:509,2
DA:510,2
DA:511,2
DA:512,2
DA:513,2
DA:514,2
DA:515,2
DA:516,2
DA:517,2
DA:519,1
DA:520,1
DA:524,15
DA:525,15
DA:526,15
DA:527,15
DA:528,15
DA:529,15
DA:530,15
DA:531,15
DA:534,32
DA:536,1
DA:537,1
DA:538,1
DA:539,1
DA:540,1
DA:541,1
DA:542,1
DA:543,1
DA:544,1
DA:545,0
DA:546,1
DA:547,1
DA:548,1
DA:549,0
DA:551,1
DA:552,1
DA:553,1
DA:554,1
DA:555,1
DA:556,1
DA:557,1
DA:558,1
DA:559,1
DA:560,1
DA:561,1
DA:562,0
DA:563,1
DA:564,1
DA:578,2
DA:579,2
DA:580,2
DA:581,2
DA:582,2
DA:583,2
DA:584,2
DA:585,2
DA:586,2
DA:587,2
DA:588,0
DA:589,2
DA:590,2
DA:591,2
DA:592,0
DA:594,2
DA:595,2
DA:596,2
DA:597,2
DA:598,2
DA:599,2
DA:600,2
DA:601,2
DA:602,2
DA:603,2
DA:604,2
DA:605,2
DA:606,2
DA:607,2
DA:608,2
DA:609,2
DA:610,2
DA:611,2
DA:612,2
DA:613,2
DA:614,2
DA:615,0
DA:616,2
DA:617,2
DA:619,1
DA:620,1
DA:621,1
DA:622,1
DA:623,1
DA:624,1
DA:625,1
DA:626,1
DA:627,1
DA:628,0
DA:629,1
DA:630,1
DA:631,1
DA:632,0
DA:634,1
DA:635,1
DA:636,1
DA:637,1
DA:638,1
DA:639,1
DA:640,1
DA:641,1
DA:642,1
DA:643,1
DA:644,1
DA:645,0
DA:646,1
DA:647,1
DA:657,1
DA:658,1
DA:659,1
DA:660,1
DA:661,1
DA:662,1
DA:663,1
DA:664,1
DA:665,1
DA:666,1
DA:667,0
DA:668,1
DA:669,1
DA:670,1
DA:671,0
DA:673,1
DA:674,1
DA:675,1
DA:676,1
DA:677,1
DA:678,1
DA:679,1
DA:680,1
DA:681,1
DA:682,1
DA:683,1
DA:684,1
DA:685,1
DA:686,1
DA:687,1
DA:688,1
DA:689,1
DA:690,1
DA:691,0
DA:692,1
DA:693,1
DA:695,2
DA:696,2
DA:697,2
DA:698,2
DA:699,2
DA:700,2
DA:701,2
DA:702,2
DA:703,2
DA:704,2
DA:705,2
DA:706,2
DA:707,2
DA:708,2
DA:709,2
DA:710,0
DA:711,2
DA:713,2
DA:714,2
DA:715,0
DA:717,2
DA:718,2
DA:720,2
DA:721,2
DA:722,1
DA:723,1
DA:724,0
DA:727,1
DA:729,2
DA:730,2
DA:731,2
DA:732,2
DA:733,2
DA:734,2
DA:735,2
DA:736,2
DA:737,2
DA:738,0
DA:741,2
DA:742,0
DA:743,0
DA:744,0
DA:745,0
DA:746,2
DA:747,2
DA:748,2
DA:750,1
DA:751,1
DA:752,1
DA:753,1
DA:754,1
DA:755,1
DA:756,1
DA:757,0
DA:758,1
DA:759,1
DA:760,1
DA:761,0
DA:763,1
DA:764,1
DA:765,1
DA:766,1
DA:769,15
DA:770,15
DA:771,15
DA:772,15
DA:773,15
DA:774,15
DA:775,15
DA:776,15
DA:777,15
DA:779,29
DA:780,15
DA:781,1
DA:782,0
DA:783,1
DA:784,1
DA:785,14
DA:788,14
DA:789,14
DA:790,14
DA:791,14
DA:792,14
DA:793,14
DA:794,14
DA:802,14
DA:806,14
DA:807,11
DA:808,11
DA:809,11
DA:810,11
DA:811,11
DA:812,11
DA:816,14
DA:819,14
DA:821,14
DA:822,5
DA:823,9
DA:826,14
DA:827,1
DA:828,1
DA:829,1
DA:830,1
DA:831,1
DA:832,1
DA:833,1
DA:834,1
DA:835,1
DA:836,1
DA:837,0
DA:838,1
DA:839,1
DA:840,13
DA:842,14
DA:843,14
DA:844,14
DA:845,14
DA:846,14
DA:847,14
DA:848,14
DA:849,14
DA:850,14
DA:851,14
DA:852,14
DA:854,14
DA:855,14
DA:858,14
DA:859,0
DA:860,14
DA:863,14
DA:866,14
DA:867,9
DA:868,5
DA:869,5
DA:871,0
DA:875,14
DA:876,5
DA:877,9
DA:879,14
DA:881,14
DA:885,14
DA:886,0
DA:887,0
DA:888,0
DA:889,0
DA:890,0
DA:891,0
DA:892,14
DA:894,14
DA:895,5
DA:896,9
DA:899,14
DA:900,1
DA:901,1
DA:902,1
DA:903,1
DA:905,1
DA:906,1
DA:907,1
DA:910,1
DA:911,1
DA:912,1
DA:913,1
DA:915,1
DA:916,1
DA:917,1
DA:918,1
DA:919,1
DA:920,1
DA:923,1
DA:924,1
DA:925,1
DA:926,0
DA:927,0
DA:928,0
DA:929,0
DA:930,1
DA:931,0
DA:932,0
DA:933,0
DA:934,0
DA:935,1
DA:936,0
DA:937,0
DA:938,0
DA:939,0
DA:940,1
DA:941,0
DA:942,0
DA:943,0
DA:944,0
DA:945,1
DA:946,0
DA:947,0
DA:948,0
DA:949,0
DA:950,1
DA:951,0
DA:952,0
DA:953,0
DA:954,0
DA:956,1
DA:957,0
DA:958,0
DA:959,0
DA:960,0
DA:961,0
DA:962,0
DA:963,1
DA:964,1
DA:965,13
DA:968,14
DA:970,9
DA:972,0
DA:973,0
DA:974,0
DA:975,0
DA:976,0
DA:987,0
DA:988,0
DA:989,0
DA:990,0
DA:991,0
DA:993,9
DA:998,5
DA:1002,5
DA:1003,5
DA:1004,0
DA:1006,5
DA:1008,0
DA:1011,5
DA:1014,5
DA:1015,0
DA:1016,0
DA:1017,0
DA:1018,0
DA:1019,0
DA:1021,0
DA:1022,0
DA:1023,0
DA:1024,0
DA:1025,0
DA:1027,0
DA:1030,0
DA:1031,0
DA:1032,0
DA:1033,0
DA:1034,0
DA:1035,0
DA:1036,0
DA:1037,0
DA:1038,0
DA:1039,0
DA:1040,0
DA:1041,0
DA:1043,0
DA:1045,0
DA:1048,0
DA:1049,0
DA:1052,0
DA:1053,0
DA:1054,5
DA:1059,5
DA:1060,5
DA:1061,5
DA:1062,5
DA:1063,5
DA:1064,5
DA:1065,5
DA:1066,5
DA:1071,5
DA:1072,0
DA:1073,0
DA:1074,0
DA:1075,5
DA:1076,5
DA:1077,5
DA:1078,5
DA:1079,0
DA:1080,0
DA:1082,5
DA:1083,5
DA:1084,5
DA:1085,5
DA:1086,5
DA:1087,0
DA:1088,0
DA:1092,14
DA:1093,0
DA:1094,0
DA:1095,0
DA:1096,0
DA:1097,0
DA:1098,0
DA:1099,0
DA:1100,0
DA:1102,0
DA:1103,0
DA:1104,0
DA:1106,14
DA:1110,14
DA:1111,1
DA:1112,0
DA:1113,0
DA:1114,0
DA:1115,0
DA:1116,0
DA:1118,0
DA:1121,0
DA:1122,0
DA:1123,0
DA:1124,0
DA:1125,1
DA:1126,1
DA:1127,1
DA:1128,1
DA:1129,1
DA:1130,1
DA:1131,1
DA:1132,1
DA:1133,1
DA:1134,1
DA:1135,1
DA:1136,1
DA:1137,13
DA:1140,14
DA:1141,14
DA:1142,14
DA:1143,14
DA:1144,14
DA:1145,14
DA:1146,14
DA:1147,14
DA:1148,14
DA:1150,14
DA:1153,14
DA:1154,13
DA:1155,13
DA:1156,13
DA:1157,13
DA:1158,13
DA:1159,13
DA:1162,13
DA:1163,13
DA:1166,13
DA:1168,13
DA:1169,0
DA:1170,0
DA:1171,0
DA:1172,0
DA:1173,0
DA:1175,0
DA:1176,13
DA:1177,0
DA:1178,0
DA:1179,0
DA:1180,0
DA:1181,13
DA:1182,1
DA:1185,14
DA:1186,14
DA:1188,0
DA:1189,0
DA:1190,0
DA:1191,0
DA:1192,0
DA:1194,0
DA:1195,0
DA:1196,0
DA:1197,0
DA:1198,0
DA:1199,0
DA:1201,0
DA:1202,0
DA:1203,0
DA:1204,0
DA:1205,0
DA:1206,0
DA:1207,0
DA:1208,0
DA:1209,0
DA:1210,0
DA:1211,0
DA:1212,0
DA:1213,0
DA:1214,0
DA:1215,0
DA:1217,0
DA:1218,0
DA:1219,0
DA:1220,0
DA:1221,0
DA:1222,14
DA:1225,14
DA:1226,14
DA:1227,0
DA:1228,0
DA:1229,0
DA:1230,0
DA:1231,0
DA:1232,0
DA:1233,0
DA:1234,0
DA:1235,0
DA:1236,0
DA:1237,0
DA:1238,0
DA:1239,0
DA:1240,0
DA:1241,0
DA:1242,0
DA:1243,14
DA:1246,14
DA:1247,1
DA:1248,1
DA:1249,1
DA:1250,1
DA:1251,1
DA:1252,1
DA:1253,1
DA:1254,13
DA:1256,14
DA:1257,15
DA:1261,0
DA:1262,0
DA:1263,0
DA:1264,0
DA:1265,0
DA:1266,0
DA:1270,0
DA:1271,0
DA:1272,0
DA:1273,0
DA:1274,0
DA:1275,0
DA:1276,0
DA:1278,0
DA:1280,0
DA:1281,0
DA:1284,0
DA:1285,0
DA:1286,0
DA:1289,0
DA:1291,0
DA:1292,0
DA:1293,0
DA:1294,0
DA:1295,0
DA:1296,0
DA:1297,0
DA:1298,0
DA:1299,0
DA:1303,0
DA:1304,0
BRF:0
BRH:0
LF:946
LH:631
end_of_record
SF:E:\Github\CytoScnPy\cytoscnpy\src\fix\rewriter.rs
FN:47,_RINvMNtNtCsbhXKu17xbPQ_9cytoscnpy3fix8rewriterNtB3_4Edit16with_descriptionppEB7_
FN:69,_RINvMNtNtCsbhXKu17xbPQ_9cytoscnpy3fix8rewriterNtB3_4Edit6insertpEB7_
FN:282,_RINvMs2_NtNtCsbhXKu17xbPQ_9cytoscnpy3fix8rewriterNtB6_11EditBuilder6insertpEBa_
FN:262,_RINvMs2_NtNtCsbhXKu17xbPQ_9cytoscnpy3fix8rewriterNtB6_11EditBuilder7replacepEBa_
FN:36,_RINvMNtNtCsbhXKu17xbPQ_9cytoscnpy3fix8rewriterNtB3_4Edit3newReEB7_
FN:147,_RINvMs1_NtNtCsbhXKu17xbPQ_9cytoscnpy3fix8rewriterNtB6_17ByteRangeRewriter3newNtNtCs1S013FBku8r_5alloc6string6StringEBa_
FN:160,_RINvMs1_NtNtCsbhXKu17xbPQ_9cytoscnpy3fix8rewriterNtB6_17ByteRangeRewriter9add_editsINtNtCs1S013FBku8r_5alloc3vec3VecNtB6_4EditEEBa_
FN:221,_RNCNvMs1_NtNtCsbhXKu17xbPQ_9cytoscnpy3fix8rewriterNtB7_17ByteRangeRewriter5apply0Bb_
FN:63,_RNvMNtNtCsbhXKu17xbPQ_9cytoscnpy3fix8rewriterNtB2_4Edit6delete
FN:81,_RNvMNtNtCsbhXKu17xbPQ_9cytoscnpy3fix8rewriterNtB2_4Edit8overlaps
FN:75,_RNvMNtNtCsbhXKu17xbPQ_9cytoscnpy3fix8rewriterNtB2_4Edit9range_len
FN:166,_RNvMs1_NtNtCsbhXKu17xbPQ_9cytoscnpy3fix8rewriterNtB5_17ByteRangeRewriter10edit_count
FN:236,_RNvMs1_NtNtCsbhXKu17xbPQ_9cytoscnpy3fix8rewriterNtB5_17ByteRangeRewriter14apply_verified
FN:214,_RNvMs1_NtNtCsbhXKu17xbPQ_9cytoscnpy3fix8rewriterNtB5_17ByteRangeRewriter5apply
FN:155,_RNvMs1_NtNtCsbhXKu17xbPQ_9cytoscnpy3fix8rewriterNtB5_17ByteRangeRewriter8add_edit
FN:180,_RNvMs1_NtNtCsbhXKu17xbPQ_9cytoscnpy3fix8rewriterNtB5_17ByteRangeRewriter8validate
FN:172,_RNvMs1_NtNtCsbhXKu17xbPQ_9cytoscnpy3fix8rewriterNtB5_17ByteRangeRewriter9has_edits
FN:256,_RNvMs2_NtNtCsbhXKu17xbPQ_9cytoscnpy3fix8rewriterNtB5_11EditBuilder3new
FN:289,_RNvMs2_NtNtCsbhXKu17xbPQ_9cytoscnpy3fix8rewriterNtB5_11EditBuilder5build
FN:275,_RNvMs2_NtNtCsbhXKu17xbPQ_9cytoscnpy3fix8rewriterNtB5_11EditBuilder6delete
FN:110,_RNvXs_NtNtCsbhXKu17xbPQ_9cytoscnpy3fix8rewriterNtB4_12RewriteErrorNtNtCsgS7EKHCc5jD_4core3fmt7Display3fmt
FN:341,_RNvNtNtNtCs2Eyh5DnjbiX_9cytoscnpy3fix8rewriter5testss_13test_deletion
FN:351,_RNvNtNtNtCs2Eyh5DnjbiX_9cytoscnpy3fix8rewriter5testss_14test_insertion
FN:467,_RNvNtNtNtCs2Eyh5DnjbiX_9cytoscnpy3fix8rewriter5testss_16test_empty_edits
FN:361,_RNvNtNtNtCs2Eyh5DnjbiX_9cytoscnpy3fix8rewriter5testss_17test_edit_builder
FN:299,_RNvNtNtNtCs2Eyh5DnjbiX_9cytoscnpy3fix8rewriter5testss_23test_simple_replacement
FN:331,_RNvNtNtNtCs2Eyh5DnjbiX_9cytoscnpy3fix8rewriter5testss_24test_out_of_bounds_error
FN:454,_RNvNtNtNtCs2Eyh5DnjbiX_9cytoscnpy3fix8rewriter5testss_25test_preserves_formatting
FN:400,_RNvNtNtNtCs2Eyh5DnjbiX_9cytoscnpy3fix8rewriter5testss_27test_python_import_deletion
FN:320,_RNvNtNtNtCs2Eyh5DnjbiX_9cytoscnpy3fix8rewriter5testss_28test_overlapping_edits_error
FN:372,_RNvNtNtNtCs2Eyh5DnjbiX_9cytoscnpy3fix8rewriter5testss_29test_python_function_deletion
FN:419,_RNvNtNtNtCs2Eyh5DnjbiX_9cytoscnpy3fix8rewriter5testss_33test_multiple_deletions_same_file
FN:475,_RNvNtNtNtCs2Eyh5DnjbiX_9cytoscnpy3fix8rewriter5testss_35test_adjacent_non_overlapping_edits
FN:309,_RNvNtNtNtCs2Eyh5DnjbiX_9cytoscnpy3fix8rewriter5testss_35test_multiple_non_overlapping_edits
FN:47,_RINvMNtNtCs2Eyh5DnjbiX_9cytoscnpy3fix8rewriterNtB3_4Edit16with_descriptionppEB7_
FN:75,_RNvMNtNtCs2Eyh5DnjbiX_9cytoscnpy3fix8rewriterNtB2_4Edit9range_len
FN:166,_RNvMs1_NtNtCs2Eyh5DnjbiX_9cytoscnpy3fix8rewriterNtB5_17ByteRangeRewriter10edit_count
FN:236,_RNvMs1_NtNtCs2Eyh5DnjbiX_9cytoscnpy3fix8rewriterNtB5_17ByteRangeRewriter14apply_verified
FN:172,_RNvMs1_NtNtCs2Eyh5DnjbiX_9cytoscnpy3fix8rewriterNtB5_17ByteRangeRewriter9has_edits
FN:110,_RNvXs_NtNtCs2Eyh5DnjbiX_9cytoscnpy3fix8rewriterNtB4_12RewriteErrorNtNtCsgS7EKHCc5jD_4core3fmt7Display3fmt
FN:63,_RNvMNtNtCs2Eyh5DnjbiX_9cytoscnpy3fix8rewriterNtB2_4Edit6delete
FN:81,_RNvMNtNtCs2Eyh5DnjbiX_9cytoscnpy3fix8rewriterNtB2_4Edit8overlaps
FN:214,_RNvMs1_NtNtCs2Eyh5DnjbiX_9cytoscnpy3fix8rewriterNtB5_17ByteRangeRewriter5apply
FN:155,_RNvMs1_NtNtCs2Eyh5DnjbiX_9cytoscnpy3fix8rewriterNtB5_17ByteRangeRewriter8add_edit
FN:180,_RNvMs1_NtNtCs2Eyh5DnjbiX_9cytoscnpy3fix8rewriterNtB5_17ByteRangeRewriter8validate
FN:256,_RNvMs2_NtNtCs2Eyh5DnjbiX_9cytoscnpy3fix8rewriterNtB5_11EditBuilder3new
FN:289,_RNvMs2_NtNtCs2Eyh5DnjbiX_9cytoscnpy3fix8rewriterNtB5_11EditBuilder5build
FN:275,_RNvMs2_NtNtCs2Eyh5DnjbiX_9cytoscnpy3fix8rewriterNtB5_11EditBuilder6delete
FN:36,_RINvMNtNtCs2Eyh5DnjbiX_9cytoscnpy3fix8rewriterNtB3_4Edit3newReEB7_
FN:69,_RINvMNtNtCs2Eyh5DnjbiX_9cytoscnpy3fix8rewriterNtB3_4Edit6insertReEB7_
FN:147,_RINvMs1_NtNtCs2Eyh5DnjbiX_9cytoscnpy3fix8rewriterNtB6_17ByteRangeRewriter3newNtNtCs1S013FBku8r_5alloc6string6StringEBa_
FN:147,_RINvMs1_NtNtCs2Eyh5DnjbiX_9cytoscnpy3fix8rewriterNtB6_17ByteRangeRewriter3newReEBa_
FN:160,_RINvMs1_NtNtCs2Eyh5DnjbiX_9cytoscnpy3fix8rewriterNtB6_17ByteRangeRewriter9add_editsINtNtCs1S013FBku8r_5alloc3vec3VecNtB6_4EditEEBa_
FN:282,_RINvMs2_NtNtCs2Eyh5DnjbiX_9cytoscnpy3fix8rewriterNtB6_11EditBuilder6insertReEBa_
FN:262,_RINvMs2_NtNtCs2Eyh5DnjbiX_9cytoscnpy3fix8rewriterNtB6_11EditBuilder7replaceReEBa_
FN:221,_RNCNvMs1_NtNtCs2Eyh5DnjbiX_9cytoscnpy3fix8rewriterNtB7_17ByteRangeRewriter5apply0Bb_
FN:47,_RINvMNtNtCsbhXKu17xbPQ_9cytoscnpy3fix8rewriterNtB3_4Edit16with_descriptionReB1a_ECs6rjCl8e2JmP_8fix_test
FN:69,_RINvMNtNtCsbhXKu17xbPQ_9cytoscnpy3fix8rewriterNtB3_4Edit6insertReECs6rjCl8e2JmP_8fix_test
FN:147,_RINvMs1_NtNtCsbhXKu17xbPQ_9cytoscnpy3fix8rewriterNtB6_17ByteRangeRewriter3newReECs6rjCl8e2JmP_8fix_test
FN:282,_RINvMs2_NtNtCsbhXKu17xbPQ_9cytoscnpy3fix8rewriterNtB6_11EditBuilder6insertReECs6rjCl8e2JmP_8fix_test
FN:262,_RINvMs2_NtNtCsbhXKu17xbPQ_9cytoscnpy3fix8rewriterNtB6_11EditBuilder7replaceReECs6rjCl8e2JmP_8fix_test
FNDA:0,_RINvMNtNtCsbhXKu17xbPQ_9cytoscnpy3fix8rewriterNtB3_4Edit16with_descriptionppEB7_
FNDA:0,_RINvMNtNtCsbhXKu17xbPQ_9cytoscnpy3fix8rewriterNtB3_4Edit6insertpEB7_
FNDA:0,_RINvMs2_NtNtCsbhXKu17xbPQ_9cytoscnpy3fix8rewriterNtB6_11EditBuilder6insertpEBa_
FNDA:0,_RINvMs2_NtNtCsbhXKu17xbPQ_9cytoscnpy3fix8rewriterNtB6_11EditBuilder7replacepEBa_
FNDA:27,_RINvMNtNtCsbhXKu17xbPQ_9cytoscnpy3fix8rewriterNtB3_4Edit3newReEB7_
FNDA:2,_RINvMs1_NtNtCsbhXKu17xbPQ_9cytoscnpy3fix8rewriterNtB6_17ByteRangeRewriter3newNtNtCs1S013FBku8r_5alloc6string6StringEBa_
FNDA:3,_RINvMs1_NtNtCsbhXKu17xbPQ_9cytoscnpy3fix8rewriterNtB6_17ByteRangeRewriter9add_editsINtNtCs1S013FBku8r_5alloc3vec3VecNtB6_4EditEEBa_
FNDA:4,_RNCNvMs1_NtNtCsbhXKu17xbPQ_9cytoscnpy3fix8rewriterNtB7_17ByteRangeRewriter5apply0Bb_
FNDA:9,_RNvMNtNtCsbhXKu17xbPQ_9cytoscnpy3fix8rewriterNtB2_4Edit6delete
FNDA:5,_RNvMNtNtCsbhXKu17xbPQ_9cytoscnpy3fix8rewriterNtB2_4Edit8overlaps
FNDA:1,_RNvMNtNtCsbhXKu17xbPQ_9cytoscnpy3fix8rewriterNtB2_4Edit9range_len
FNDA:2,_RNvMs1_NtNtCsbhXKu17xbPQ_9cytoscnpy3fix8rewriterNtB5_17ByteRangeRewriter10edit_count
FNDA:0,_RNvMs1_NtNtCsbhXKu17xbPQ_9cytoscnpy3fix8rewriterNtB5_17ByteRangeRewriter14apply_verified
FNDA:16,_RNvMs1_NtNtCsbhXKu17xbPQ_9cytoscnpy3fix8rewriterNtB5_17ByteRangeRewriter5apply
FNDA:19,_RNvMs1_NtNtCsbhXKu17xbPQ_9cytoscnpy3fix8rewriterNtB5_17ByteRangeRewriter8add_edit
FNDA:16,_RNvMs1_NtNtCsbhXKu17xbPQ_9cytoscnpy3fix8rewriterNtB5_17ByteRangeRewriter8validate
FNDA:2,_RNvMs1_NtNtCsbhXKu17xbPQ_9cytoscnpy3fix8rewriterNtB5_17ByteRangeRewriter9has_edits
FNDA:1,_RNvMs2_NtNtCsbhXKu17xbPQ_9cytoscnpy3fix8rewriterNtB5_11EditBuilder3new
FNDA:1,_RNvMs2_NtNtCsbhXKu17xbPQ_9cytoscnpy3fix8rewriterNtB5_11EditBuilder5build
FNDA:1,_RNvMs2_NtNtCsbhXKu17xbPQ_9cytoscnpy3fix8rewriterNtB5_11EditBuilder6delete
FNDA:0,_RNvXs_NtNtCsbhXKu17xbPQ_9cytoscnpy3fix8rewriterNtB4_12RewriteErrorNtNtCsgS7EKHCc5jD_4core3fmt7Display3fmt
FNDA:1,_RNvNtNtNtCs2Eyh5DnjbiX_9cytoscnpy3fix8rewriter5testss_13test_deletion
FNDA:1,_RNvNtNtNtCs2Eyh5DnjbiX_9cytoscnpy3fix8rewriter5testss_14test_insertion
FNDA:1,_RNvNtNtNtCs2Eyh5DnjbiX_9cytoscnpy3fix8rewriter5testss_16test_empty_edits
FNDA:1,_RNvNtNtNtCs2Eyh5DnjbiX_9cytoscnpy3fix8rewriter5testss_17test_edit_builder
FNDA:1,_RNvNtNtNtCs2Eyh5DnjbiX_9cytoscnpy3fix8rewriter5testss_23test_simple_replacement
FNDA:1,_RNvNtNtNtCs2Eyh5DnjbiX_9cytoscnpy3fix8rewriter5testss_24test_out_of_bounds_error
FNDA:1,_RNvNtNtNtCs2Eyh5DnjbiX_9cytoscnpy3fix8rewriter5testss_25test_preserves_formatting
FNDA:1,_RNvNtNtNtCs2Eyh5DnjbiX_9cytoscnpy3fix8rewriter5testss_27test_python_import_deletion
FNDA:1,_RNvNtNtNtCs2Eyh5DnjbiX_9cytoscnpy3fix8rewriter5testss_28test_overlapping_edits_error
FNDA:1,_RNvNtNtNtCs2Eyh5DnjbiX_9cytoscnpy3fix8rewriter5testss_29test_python_function_deletion
FNDA:1,_RNvNtNtNtCs2Eyh5DnjbiX_9cytoscnpy3fix8rewriter5testss_33test_multiple_deletions_same_file
FNDA:1,_RNvNtNtNtCs2Eyh5DnjbiX_9cytoscnpy3fix8rewriter5testss_35test_adjacent_non_overlapping_edits
FNDA:1,_RNvNtNtNtCs2Eyh5DnjbiX_9cytoscnpy3fix8rewriter5testss_35test_multiple_non_overlapping_edits
FNDA:0,_RINvMNtNtCs2Eyh5DnjbiX_9cytoscnpy3fix8rewriterNtB3_4Edit16with_descriptionppEB7_
FNDA:0,_RNvMNtNtCs2Eyh5DnjbiX_9cytoscnpy3fix8rewriterNtB2_4Edit9range_len
FNDA:0,_RNvMs1_NtNtCs2Eyh5DnjbiX_9cytoscnpy3fix8rewriterNtB5_17ByteRangeRewriter10edit_count
FNDA:0,_RNvMs1_NtNtCs2Eyh5DnjbiX_9cytoscnpy3fix8rewriterNtB5_17ByteRangeRewriter14apply_verified
FNDA:0,_RNvMs1_NtNtCs2Eyh5DnjbiX_9cytoscnpy3fix8rewriterNtB5_17ByteRangeRewriter9has_edits
FNDA:0,_RNvXs_NtNtCs2Eyh5DnjbiX_9cytoscnpy3fix8rewriterNtB4_12RewriteErrorNtNtCsgS7EKHCc5jD_4core3fmt7Display3fmt
FNDA:7,_RNvMNtNtCs2Eyh5DnjbiX_9cytoscnpy3fix8rewriterNtB2_4Edit6delete
FNDA:4,_RNvMNtNtCs2Eyh5DnjbiX_9cytoscnpy3fix8rewriterNtB2_4Edit8overlaps
FNDA:13,_RNvMs1_NtNtCs2Eyh5DnjbiX_9cytoscnpy3fix8rewriterNtB5_17ByteRangeRewriter5apply
FNDA:15,_RNvMs1_NtNtCs2Eyh5DnjbiX_9cytoscnpy3fix8rewriterNtB5_17ByteRangeRewriter8add_edit
FNDA:13,_RNvMs1_NtNtCs2Eyh5DnjbiX_9cytoscnpy3fix8rewriterNtB5_17ByteRangeRewriter8validate
FNDA:1,_RNvMs2_NtNtCs2Eyh5DnjbiX_9cytoscnpy3fix8rewriterNtB5_11EditBuilder3new
FNDA:1,_RNvMs2_NtNtCs2Eyh5DnjbiX_9cytoscnpy3fix8rewriterNtB5_11EditBuilder5build
FNDA:1,_RNvMs2_NtNtCs2Eyh5DnjbiX_9cytoscnpy3fix8rewriterNtB5_11EditBuilder6delete
FNDA:19,_RINvMNtNtCs2Eyh5DnjbiX_9cytoscnpy3fix8rewriterNtB3_4Edit3newReEB7_
FNDA:2,_RINvMNtNtCs2Eyh5DnjbiX_9cytoscnpy3fix8rewriterNtB3_4Edit6insertReEB7_
FNDA:1,_RINvMs1_NtNtCs2Eyh5DnjbiX_9cytoscnpy3fix8rewriterNtB6_17ByteRangeRewriter3newNtNtCs1S013FBku8r_5alloc6string6StringEBa_
FNDA:12,_RINvMs1_NtNtCs2Eyh5DnjbiX_9cytoscnpy3fix8rewriterNtB6_17ByteRangeRewriter3newReEBa_
FNDA:1,_RINvMs1_NtNtCs2Eyh5DnjbiX_9cytoscnpy3fix8rewriterNtB6_17ByteRangeRewriter9add_editsINtNtCs1S013FBku8r_5alloc3vec3VecNtB6_4EditEEBa_
FNDA:1,_RINvMs2_NtNtCs2Eyh5DnjbiX_9cytoscnpy3fix8rewriterNtB6_11EditBuilder6insertReEBa_
FNDA:1,_RINvMs2_NtNtCs2Eyh5DnjbiX_9cytoscnpy3fix8rewriterNtB6_11EditBuilder7replaceReEBa_
FNDA:3,_RNCNvMs1_NtNtCs2Eyh5DnjbiX_9cytoscnpy3fix8rewriterNtB7_17ByteRangeRewriter5apply0Bb_
FNDA:1,_RINvMNtNtCsbhXKu17xbPQ_9cytoscnpy3fix8rewriterNtB3_4Edit16with_descriptionReB1a_ECs6rjCl8e2JmP_8fix_test
FNDA:2,_RINvMNtNtCsbhXKu17xbPQ_9cytoscnpy3fix8rewriterNtB3_4Edit6insertReECs6rjCl8e2JmP_8fix_test
FNDA:16,_RINvMs1_NtNtCsbhXKu17xbPQ_9cytoscnpy3fix8rewriterNtB6_17ByteRangeRewriter3newReECs6rjCl8e2JmP_8fix_test
FNDA:1,_RINvMs2_NtNtCsbhXKu17xbPQ_9cytoscnpy3fix8rewriterNtB6_11EditBuilder6insertReECs6rjCl8e2JmP_8fix_test
FNDA:1,_RINvMs2_NtNtCsbhXKu17xbPQ_9cytoscnpy3fix8rewriterNtB6_11EditBuilder7replaceReECs6rjCl8e2JmP_8fix_test
FNF:34
FNH:32
DA:36,46
DA:37,46
DA:38,46
DA:39,46
DA:40,46
DA:41,46
DA:42,46
DA:43,46
DA:47,1
DA:48,1
DA:49,1
DA:50,1
DA:51,1
DA:52,1
DA:53,1
DA:54,1
DA:55,1
DA:56,1
DA:57,1
DA:58,1
DA:59,1
DA:63,16
DA:64,16
DA:65,16
DA:69,4
DA:70,4
DA:71,4
DA:75,1
DA:76,1
DA:77,1
DA:81,9
DA:82,9
DA:83,9
DA:110,0
DA:111,0
DA:112,0
DA:113,0
DA:116,0
DA:117,0
DA:118,0
DA:120,0
DA:121,0
DA:122,0
DA:125,0
DA:127,0
DA:147,31
DA:148,31
DA:149,31
DA:150,31
DA:151,31
DA:152,31
DA:155,34
DA:156,34
DA:157,34
DA:160,4
DA:161,4
DA:162,4
DA:166,2
DA:167,2
DA:168,2
DA:172,2
DA:173,2
DA:174,2
DA:180,29
DA:182,36
DA:183,36
DA:184,2
DA:185,2
DA:186,2
DA:187,2
DA:188,2
DA:189,34
DA:193,32
DA:194,32
DA:195,9
DA:196,2
DA:197,2
DA:198,2
DA:199,2
DA:200,7
DA:204,25
DA:205,29
DA:214,29
DA:215,29
DA:217,25
DA:218,25
DA:221,25
DA:224,55
DA:225,30
DA:226,30
DA:228,25
DA:229,29
DA:236,0
DA:237,0
DA:241,0
DA:243,0
DA:244,0
DA:256,2
DA:257,2
DA:258,2
DA:262,2
DA:263,2
DA:264,2
DA:265,2
DA:266,2
DA:267,2
DA:268,2
DA:269,2
DA:270,2
DA:271,2
DA:275,2
DA:276,2
DA:277,2
DA:278,2
DA:282,2
DA:283,2
DA:284,2
DA:285,2
DA:289,2
DA:290,2
DA:291,2
DA:299,1
DA:300,1
DA:301,1
DA:302,1
DA:304,1
DA:305,1
DA:306,1
DA:309,1
DA:310,1
DA:311,1
DA:312,1
DA:313,1
DA:315,1
DA:316,1
DA:317,1
DA:320,1
DA:321,1
DA:322,1
DA:323,1
DA:324,1
DA:326,1
DA:327,1
DA:328,1
DA:331,1
DA:332,1
DA:333,1
DA:334,1
DA:336,1
DA:337,1
DA:338,1
DA:341,1
DA:342,1
DA:343,1
DA:344,1
DA:346,1
DA:347,1
DA:348,1
DA:351,1
DA:352,1
DA:353,1
DA:354,1
DA:356,1
DA:357,1
DA:358,1
DA:361,1
DA:362,1
DA:363,1
DA:364,1
DA:365,1
DA:366,1
DA:368,1
DA:369,1
DA:372,1
DA:373,1
DA:374,1
DA:375,1
DA:376,1
DA:377,1
DA:378,1
DA:379,1
DA:380,1
DA:381,1
DA:383,1
DA:385,1
DA:386,1
DA:387,1
DA:388,1
DA:389,1
DA:390,1
DA:391,1
DA:393,1
DA:394,1
DA:395,1
DA:396,1
DA:397,1
DA:400,1
DA:401,1
DA:402,1
DA:403,1
DA:404,1
DA:405,1
DA:406,1
DA:407,1
DA:409,1
DA:410,1
DA:411,1
DA:413,1
DA:414,1
DA:415,1
DA:416,1
DA:419,1
DA:420,1
DA:421,1
DA:422,1
DA:423,1
DA:424,1
DA:425,1
DA:426,1
DA:427,1
DA:428,1
DA:429,1
DA:430,1
DA:431,1
DA:432,1
DA:434,1
DA:437,1
DA:438,1
DA:441,1
DA:442,1
DA:443,1
DA:445,1
DA:446,1
DA:447,1
DA:448,1
DA:449,1
DA:450,1
DA:451,1
DA:454,1
DA:455,1
DA:456,1
DA:458,1
DA:459,1
DA:461,1
DA:462,1
DA:463,1
DA:464,1
DA:467,1
DA:468,1
DA:469,1
DA:470,1
DA:471,1
DA:472,1
DA:475,1
DA:476,1
DA:477,1
DA:479,1
DA:480,1
DA:482,1
DA:483,1
DA:484,1
BRF:0
BRH:0
LF:262
LH:245
end_of_record
SF:E:\Github\CytoScnPy\cytoscnpy\src\framework.rs
FN:83,_RNCNvNtCsbhXKu17xbPQ_9cytoscnpy9framework21get_framework_imports0B5_
FN:135,_RNvMNtCsbhXKu17xbPQ_9cytoscnpy9frameworkNtB2_21FrameworkAwareVisitor10visit_stmt
FN:427,_RNvMNtCsbhXKu17xbPQ_9cytoscnpy9frameworkNtB2_21FrameworkAwareVisitor13get_call_name
FN:436,_RNvMNtCsbhXKu17xbPQ_9cytoscnpy9frameworkNtB2_21FrameworkAwareVisitor16check_decorators
FN:319,_RNvMNtCsbhXKu17xbPQ_9cytoscnpy9frameworkNtB2_21FrameworkAwareVisitor17extract_path_view
FN:384,_RNvMNtCsbhXKu17xbPQ_9cytoscnpy9frameworkNtB2_21FrameworkAwareVisitor17is_admin_register
FN:403,_RNvMNtCsbhXKu17xbPQ_9cytoscnpy9frameworkNtB2_21FrameworkAwareVisitor17is_signal_connect
FN:276,_RNvMNtCsbhXKu17xbPQ_9cytoscnpy9frameworkNtB2_21FrameworkAwareVisitor18check_depends_call
FN:448,_RNvMNtCsbhXKu17xbPQ_9cytoscnpy9frameworkNtB2_21FrameworkAwareVisitor18get_decorator_name
FN:334,_RNvMNtCsbhXKu17xbPQ_9cytoscnpy9frameworkNtB2_21FrameworkAwareVisitor22extract_view_reference
FN:464,_RNvMNtCsbhXKu17xbPQ_9cytoscnpy9frameworkNtB2_21FrameworkAwareVisitor22is_framework_decorator
FN:261,_RNvMNtCsbhXKu17xbPQ_9cytoscnpy9frameworkNtB2_21FrameworkAwareVisitor23extract_fastapi_depends
FN:302,_RNvMNtCsbhXKu17xbPQ_9cytoscnpy9frameworkNtB2_21FrameworkAwareVisitor25extract_urlpatterns_views
FN:356,_RNvMNtCsbhXKu17xbPQ_9cytoscnpy9frameworkNtB2_21FrameworkAwareVisitor26check_django_call_patterns
FN:124,_RNvMNtCsbhXKu17xbPQ_9cytoscnpy9frameworkNtB2_21FrameworkAwareVisitor3new
FN:81,_RNvNtCsbhXKu17xbPQ_9cytoscnpy9framework21get_framework_imports
FN:499,_RNvNtCsbhXKu17xbPQ_9cytoscnpy9framework22detect_framework_usage
FN:499,_RNvNtCs2Eyh5DnjbiX_9cytoscnpy9framework22detect_framework_usage
FN:83,_RNCNvNtCs2Eyh5DnjbiX_9cytoscnpy9framework21get_framework_imports0B5_
FN:135,_RNvMNtCs2Eyh5DnjbiX_9cytoscnpy9frameworkNtB2_21FrameworkAwareVisitor10visit_stmt
FN:427,_RNvMNtCs2Eyh5DnjbiX_9cytoscnpy9frameworkNtB2_21FrameworkAwareVisitor13get_call_name
FN:436,_RNvMNtCs2Eyh5DnjbiX_9cytoscnpy9frameworkNtB2_21FrameworkAwareVisitor16check_decorators
FN:319,_RNvMNtCs2Eyh5DnjbiX_9cytoscnpy9frameworkNtB2_21FrameworkAwareVisitor17extract_path_view
FN:384,_RNvMNtCs2Eyh5DnjbiX_9cytoscnpy9frameworkNtB2_21FrameworkAwareVisitor17is_admin_register
FN:403,_RNvMNtCs2Eyh5DnjbiX_9cytoscnpy9frameworkNtB2_21FrameworkAwareVisitor17is_signal_connect
FN:276,_RNvMNtCs2Eyh5DnjbiX_9cytoscnpy9frameworkNtB2_21FrameworkAwareVisitor18check_depends_call
FN:448,_RNvMNtCs2Eyh5DnjbiX_9cytoscnpy9frameworkNtB2_21FrameworkAwareVisitor18get_decorator_name
FN:334,_RNvMNtCs2Eyh5DnjbiX_9cytoscnpy9frameworkNtB2_21FrameworkAwareVisitor22extract_view_reference
FN:464,_RNvMNtCs2Eyh5DnjbiX_9cytoscnpy9frameworkNtB2_21FrameworkAwareVisitor22is_framework_decorator
FN:261,_RNvMNtCs2Eyh5DnjbiX_9cytoscnpy9frameworkNtB2_21FrameworkAwareVisitor23extract_fastapi_depends
FN:302,_RNvMNtCs2Eyh5DnjbiX_9cytoscnpy9frameworkNtB2_21FrameworkAwareVisitor25extract_urlpatterns_views
FN:356,_RNvMNtCs2Eyh5DnjbiX_9cytoscnpy9frameworkNtB2_21FrameworkAwareVisitor26check_django_call_patterns
FN:124,_RNvMNtCs2Eyh5DnjbiX_9cytoscnpy9frameworkNtB2_21FrameworkAwareVisitor3new
FN:81,_RNvNtCs2Eyh5DnjbiX_9cytoscnpy9framework21get_framework_imports
FNDA:20,_RNCNvNtCsbhXKu17xbPQ_9cytoscnpy9framework21get_framework_imports0B5_
FNDA:1267,_RNvMNtCsbhXKu17xbPQ_9cytoscnpy9frameworkNtB2_21FrameworkAwareVisitor10visit_stmt
FNDA:207,_RNvMNtCsbhXKu17xbPQ_9cytoscnpy9frameworkNtB2_21FrameworkAwareVisitor13get_call_name
FNDA:287,_RNvMNtCsbhXKu17xbPQ_9cytoscnpy9frameworkNtB2_21FrameworkAwareVisitor16check_decorators
FNDA:4,_RNvMNtCsbhXKu17xbPQ_9cytoscnpy9frameworkNtB2_21FrameworkAwareVisitor17extract_path_view
FNDA:3,_RNvMNtCsbhXKu17xbPQ_9cytoscnpy9frameworkNtB2_21FrameworkAwareVisitor17is_admin_register
FNDA:3,_RNvMNtCsbhXKu17xbPQ_9cytoscnpy9frameworkNtB2_21FrameworkAwareVisitor17is_signal_connect
FNDA:7,_RNvMNtCsbhXKu17xbPQ_9cytoscnpy9frameworkNtB2_21FrameworkAwareVisitor18check_depends_call
FNDA:84,_RNvMNtCsbhXKu17xbPQ_9cytoscnpy9frameworkNtB2_21FrameworkAwareVisitor18get_decorator_name
FNDA:5,_RNvMNtCsbhXKu17xbPQ_9cytoscnpy9frameworkNtB2_21FrameworkAwareVisitor22extract_view_reference
FNDA:50,_RNvMNtCsbhXKu17xbPQ_9cytoscnpy9frameworkNtB2_21FrameworkAwareVisitor22is_framework_decorator
FNDA:287,_RNvMNtCsbhXKu17xbPQ_9cytoscnpy9frameworkNtB2_21FrameworkAwareVisitor23extract_fastapi_depends
FNDA:3,_RNvMNtCsbhXKu17xbPQ_9cytoscnpy9frameworkNtB2_21FrameworkAwareVisitor25extract_urlpatterns_views
FNDA:213,_RNvMNtCsbhXKu17xbPQ_9cytoscnpy9frameworkNtB2_21FrameworkAwareVisitor26check_django_call_patterns
FNDA:253,_RNvMNtCsbhXKu17xbPQ_9cytoscnpy9frameworkNtB2_21FrameworkAwareVisitor3new
FNDA:154,_RNvNtCsbhXKu17xbPQ_9cytoscnpy9framework21get_framework_imports
FNDA:7,_RNvNtCsbhXKu17xbPQ_9cytoscnpy9framework22detect_framework_usage
FNDA:0,_RNvNtCs2Eyh5DnjbiX_9cytoscnpy9framework22detect_framework_usage
FNDA:0,_RNCNvNtCs2Eyh5DnjbiX_9cytoscnpy9framework21get_framework_imports0B5_
FNDA:0,_RNvMNtCs2Eyh5DnjbiX_9cytoscnpy9frameworkNtB2_21FrameworkAwareVisitor10visit_stmt
FNDA:0,_RNvMNtCs2Eyh5DnjbiX_9cytoscnpy9frameworkNtB2_21FrameworkAwareVisitor13get_call_name
FNDA:0,_RNvMNtCs2Eyh5DnjbiX_9cytoscnpy9frameworkNtB2_21FrameworkAwareVisitor16check_decorators
FNDA:0,_RNvMNtCs2Eyh5DnjbiX_9cytoscnpy9frameworkNtB2_21FrameworkAwareVisitor17extract_path_view
FNDA:0,_RNvMNtCs2Eyh5DnjbiX_9cytoscnpy9frameworkNtB2_21FrameworkAwareVisitor17is_admin_register
FNDA:0,_RNvMNtCs2Eyh5DnjbiX_9cytoscnpy9frameworkNtB2_21FrameworkAwareVisitor17is_signal_connect
FNDA:0,_RNvMNtCs2Eyh5DnjbiX_9cytoscnpy9frameworkNtB2_21FrameworkAwareVisitor18check_depends_call
FNDA:0,_RNvMNtCs2Eyh5DnjbiX_9cytoscnpy9frameworkNtB2_21FrameworkAwareVisitor18get_decorator_name
FNDA:0,_RNvMNtCs2Eyh5DnjbiX_9cytoscnpy9frameworkNtB2_21FrameworkAwareVisitor22extract_view_reference
FNDA:0,_RNvMNtCs2Eyh5DnjbiX_9cytoscnpy9frameworkNtB2_21FrameworkAwareVisitor22is_framework_decorator
FNDA:0,_RNvMNtCs2Eyh5DnjbiX_9cytoscnpy9frameworkNtB2_21FrameworkAwareVisitor23extract_fastapi_depends
FNDA:0,_RNvMNtCs2Eyh5DnjbiX_9cytoscnpy9frameworkNtB2_21FrameworkAwareVisitor25extract_urlpatterns_views
FNDA:0,_RNvMNtCs2Eyh5DnjbiX_9cytoscnpy9frameworkNtB2_21FrameworkAwareVisitor26check_django_call_patterns
FNDA:0,_RNvMNtCs2Eyh5DnjbiX_9cytoscnpy9frameworkNtB2_21FrameworkAwareVisitor3new
FNDA:0,_RNvNtCs2Eyh5DnjbiX_9cytoscnpy9framework21get_framework_imports
FNF:17
FNH:17
DA:81,154
DA:83,154
DA:84,20
DA:85,20
DA:86,20
DA:87,20
DA:88,20
DA:89,20
DA:90,20
DA:91,20
DA:92,20
DA:94,20
DA:95,20
DA:96,20
DA:97,20
DA:98,154
DA:124,253
DA:125,253
DA:126,253
DA:127,253
DA:128,253
DA:129,253
DA:130,253
DA:131,253
DA:132,253
DA:135,1267
DA:136,1267
DA:138,95
DA:139,190
DA:140,95
DA:142,950
DA:143,950
DA:144,27
DA:145,27
DA:146,923
DA:151,59
DA:152,59
DA:154,58
DA:155,58
DA:156,25
DA:157,25
DA:158,33
DA:159,1
DA:162,287
DA:164,287
DA:165,287
DA:167,287
DA:169,748
DA:170,461
DA:171,461
DA:174,65
DA:175,65
DA:176,65
DA:179,65
DA:180,13
DA:181,10
DA:182,3
DA:183,0
DA:186,13
DA:187,13
DA:191,13
DA:193,7
DA:194,7
DA:195,7
DA:196,3
DA:197,3
DA:198,3
DA:199,3
DA:200,3
DA:201,4
DA:202,6
DA:205,13
DA:207,6
DA:208,4
DA:209,4
DA:212,7
DA:213,0
DA:217,185
DA:219,120
DA:220,7
DA:221,0
DA:222,0
DA:223,0
DA:224,7
DA:225,113
DA:227,120
DA:228,12
DA:229,10
DA:230,10
DA:231,10
DA:232,2
DA:233,108
DA:234,120
DA:238,189
DA:240,378
DA:241,189
DA:242,185
DA:243,3
DA:244,3
DA:245,3
DA:246,3
DA:247,182
DA:248,4
DA:252,213
DA:253,213
DA:254,213
DA:255,359
DA:257,1267
DA:261,287
DA:263,500
DA:264,213
DA:265,7
DA:266,206
DA:268,288
DA:269,1
DA:270,0
DA:271,1
DA:273,287
DA:276,7
DA:277,7
DA:278,3
DA:279,3
DA:280,3
DA:281,3
DA:283,3
DA:284,3
DA:285,3
DA:286,3
DA:287,3
DA:288,0
DA:290,0
DA:291,0
DA:292,0
DA:294,0
DA:296,0
DA:297,0
DA:298,4
DA:299,7
DA:302,3
DA:303,3
DA:304,3
DA:305,7
DA:306,4
DA:307,4
DA:309,0
DA:310,0
DA:311,0
DA:312,0
DA:313,0
DA:314,0
DA:316,3
DA:319,4
DA:320,4
DA:321,4
DA:323,4
DA:325,4
DA:326,4
DA:327,4
DA:328,0
DA:330,0
DA:331,4
DA:334,5
DA:335,5
DA:336,3
DA:337,3
DA:338,3
DA:339,3
DA:340,1
DA:343,1
DA:344,1
DA:345,1
DA:347,1
DA:348,1
DA:349,1
DA:350,1
DA:351,0
DA:353,5
DA:356,213
DA:357,213
DA:358,200
DA:361,200
DA:362,3
DA:363,3
DA:364,3
DA:366,3
DA:367,3
DA:368,3
DA:369,0
DA:372,197
DA:373,3
DA:374,3
DA:376,3
DA:377,3
DA:378,3
DA:379,194
DA:380,13
DA:381,213
DA:384,3
DA:385,3
DA:387,3
DA:388,3
DA:389,3
DA:390,3
DA:391,0
DA:392,0
DA:393,0
DA:395,0
DA:396,0
DA:397,0
DA:398,0
DA:399,0
DA:400,3
DA:403,3
DA:404,3
DA:405,3
DA:406,3
DA:407,3
DA:408,3
DA:409,3
DA:410,3
DA:411,3
DA:412,3
DA:413,3
DA:414,3
DA:415,3
DA:416,3
DA:417,3
DA:418,3
DA:419,3
DA:420,3
DA:421,0
DA:422,0
DA:423,0
DA:424,3
DA:427,207
DA:428,207
DA:429,84
DA:430,121
DA:431,2
DA:433,207
DA:436,287
DA:437,337
DA:438,50
DA:439,50
DA:440,34
DA:441,34
DA:442,34
DA:443,34
DA:445,287
DA:448,84
DA:449,84
DA:450,17
DA:451,33
DA:453,33
DA:455,34
DA:457,34
DA:459,0
DA:461,84
DA:464,50
DA:465,50
DA:467,50
DA:468,40
DA:469,37
DA:470,37
DA:471,32
DA:472,32
DA:473,32
DA:474,32
DA:475,30
DA:477,30
DA:478,18
DA:479,16
DA:480,16
DA:481,50
DA:499,7
DA:500,7
DA:501,7
DA:502,7
DA:503,7
DA:504,7
DA:506,7
DA:509,6
DA:510,2
DA:511,4
DA:514,4
DA:515,1
DA:516,3
DA:519,3
DA:520,1
DA:521,2
DA:524,2
DA:525,1
DA:526,1
DA:529,1
DA:530,7
BRF:0
BRH:0
LF:296
LH:261
end_of_record
SF:E:\Github\CytoScnPy\cytoscnpy\src\halstead.rs
FN:68,_RNvMNtCsbhXKu17xbPQ_9cytoscnpy8halsteadNtB2_23FunctionHalsteadVisitor10visit_stmt
FN:54,_RNvMNtCsbhXKu17xbPQ_9cytoscnpy8halsteadNtB2_23FunctionHalsteadVisitor3new
FN:60,_RNvMNtCsbhXKu17xbPQ_9cytoscnpy8halsteadNtB2_23FunctionHalsteadVisitor9visit_mod
FN:708,_RNvMs_NtCsbhXKu17xbPQ_9cytoscnpy8halsteadNtB4_15HalsteadVisitor10visit_expr
FN:431,_RNvMs_NtCsbhXKu17xbPQ_9cytoscnpy8halsteadNtB4_15HalsteadVisitor10visit_stmt
FN:187,_RNvMs_NtCsbhXKu17xbPQ_9cytoscnpy8halsteadNtB4_15HalsteadVisitor11add_operand
FN:411,_RNvMs_NtCsbhXKu17xbPQ_9cytoscnpy8halsteadNtB4_15HalsteadVisitor11visit_raise
FN:694,_RNvMs_NtCsbhXKu17xbPQ_9cytoscnpy8halsteadNtB4_15HalsteadVisitor11visit_slice
FN:182,_RNvMs_NtCsbhXKu17xbPQ_9cytoscnpy8halsteadNtB4_15HalsteadVisitor12add_operator
FN:422,_RNvMs_NtCsbhXKu17xbPQ_9cytoscnpy8halsteadNtB4_15HalsteadVisitor12visit_assert
FN:374,_RNvMs_NtCsbhXKu17xbPQ_9cytoscnpy8halsteadNtB4_15HalsteadVisitor12visit_assign
FN:496,_RNvMs_NtCsbhXKu17xbPQ_9cytoscnpy8halsteadNtB4_15HalsteadVisitor12visit_bin_op
FN:348,_RNvMs_NtCsbhXKu17xbPQ_9cytoscnpy8halsteadNtB4_15HalsteadVisitor12visit_import
FN:624,_RNvMs_NtCsbhXKu17xbPQ_9cytoscnpy8halsteadNtB4_15HalsteadVisitor12visit_lambda
FN:486,_RNvMs_NtCsbhXKu17xbPQ_9cytoscnpy8halsteadNtB4_15HalsteadVisitor13visit_bool_op
FN:526,_RNvMs_NtCsbhXKu17xbPQ_9cytoscnpy8halsteadNtB4_15HalsteadVisitor13visit_compare
FN:689,_RNvMs_NtCsbhXKu17xbPQ_9cytoscnpy8halsteadNtB4_15HalsteadVisitor13visit_starred
FN:319,_RNvMs_NtCsbhXKu17xbPQ_9cytoscnpy8halsteadNtB4_15HalsteadVisitor14visit_try_stmt
FN:516,_RNvMs_NtCsbhXKu17xbPQ_9cytoscnpy8halsteadNtB4_15HalsteadVisitor14visit_unary_op
FN:677,_RNvMs_NtCsbhXKu17xbPQ_9cytoscnpy8halsteadNtB4_15HalsteadVisitor15visit_attribute
FN:259,_RNvMs_NtCsbhXKu17xbPQ_9cytoscnpy8halsteadNtB4_15HalsteadVisitor15visit_class_def
FN:683,_RNvMs_NtCsbhXKu17xbPQ_9cytoscnpy8halsteadNtB4_15HalsteadVisitor15visit_subscript
FN:402,_RNvMs_NtCsbhXKu17xbPQ_9cytoscnpy8halsteadNtB4_15HalsteadVisitor16visit_ann_assign
FN:382,_RNvMs_NtCsbhXKu17xbPQ_9cytoscnpy8halsteadNtB4_15HalsteadVisitor16visit_aug_assign
FN:547,_RNvMs_NtCsbhXKu17xbPQ_9cytoscnpy8halsteadNtB4_15HalsteadVisitor16visit_generators
FN:661,_RNvMs_NtCsbhXKu17xbPQ_9cytoscnpy8halsteadNtB4_15HalsteadVisitor16visit_yield_expr
FN:193,_RNvMs_NtCsbhXKu17xbPQ_9cytoscnpy8halsteadNtB4_15HalsteadVisitor17calculate_metrics
FN:359,_RNvMs_NtCsbhXKu17xbPQ_9cytoscnpy8halsteadNtB4_15HalsteadVisitor17visit_import_from
FN:267,_RNvMs_NtCsbhXKu17xbPQ_9cytoscnpy8halsteadNtB4_15HalsteadVisitor18visit_control_flow
FN:244,_RNvMs_NtCsbhXKu17xbPQ_9cytoscnpy8halsteadNtB4_15HalsteadVisitor18visit_function_def
FN:560,_RNvMs_NtCsbhXKu17xbPQ_9cytoscnpy8halsteadNtB4_15HalsteadVisitor18visit_literal_expr
FN:591,_RNvMs_NtCsbhXKu17xbPQ_9cytoscnpy8halsteadNtB4_15HalsteadVisitor20visit_structure_expr
FN:634,_RNvMs_NtCsbhXKu17xbPQ_9cytoscnpy8halsteadNtB4_15HalsteadVisitor24visit_comprehension_expr
FN:173,_RNvMs_NtCsbhXKu17xbPQ_9cytoscnpy8halsteadNtB4_15HalsteadVisitor3new
FN:236,_RNvMs_NtCsbhXKu17xbPQ_9cytoscnpy8halsteadNtB4_15HalsteadVisitor9visit_mod
FN:36,_RNvNtCsbhXKu17xbPQ_9cytoscnpy8halstead16analyze_halstead
FN:43,_RNvNtCsbhXKu17xbPQ_9cytoscnpy8halstead26analyze_halstead_functions
FN:68,_RNvMNtCs2Eyh5DnjbiX_9cytoscnpy8halsteadNtB2_23FunctionHalsteadVisitor10visit_stmt
FN:54,_RNvMNtCs2Eyh5DnjbiX_9cytoscnpy8halsteadNtB2_23FunctionHalsteadVisitor3new
FN:60,_RNvMNtCs2Eyh5DnjbiX_9cytoscnpy8halsteadNtB2_23FunctionHalsteadVisitor9visit_mod
FN:708,_RNvMs_NtCs2Eyh5DnjbiX_9cytoscnpy8halsteadNtB4_15HalsteadVisitor10visit_expr
FN:431,_RNvMs_NtCs2Eyh5DnjbiX_9cytoscnpy8halsteadNtB4_15HalsteadVisitor10visit_stmt
FN:187,_RNvMs_NtCs2Eyh5DnjbiX_9cytoscnpy8halsteadNtB4_15HalsteadVisitor11add_operand
FN:411,_RNvMs_NtCs2Eyh5DnjbiX_9cytoscnpy8halsteadNtB4_15HalsteadVisitor11visit_raise
FN:694,_RNvMs_NtCs2Eyh5DnjbiX_9cytoscnpy8halsteadNtB4_15HalsteadVisitor11visit_slice
FN:182,_RNvMs_NtCs2Eyh5DnjbiX_9cytoscnpy8halsteadNtB4_15HalsteadVisitor12add_operator
FN:422,_RNvMs_NtCs2Eyh5DnjbiX_9cytoscnpy8halsteadNtB4_15HalsteadVisitor12visit_assert
FN:374,_RNvMs_NtCs2Eyh5DnjbiX_9cytoscnpy8halsteadNtB4_15HalsteadVisitor12visit_assign
FN:496,_RNvMs_NtCs2Eyh5DnjbiX_9cytoscnpy8halsteadNtB4_15HalsteadVisitor12visit_bin_op
FN:348,_RNvMs_NtCs2Eyh5DnjbiX_9cytoscnpy8halsteadNtB4_15HalsteadVisitor12visit_import
FN:624,_RNvMs_NtCs2Eyh5DnjbiX_9cytoscnpy8halsteadNtB4_15HalsteadVisitor12visit_lambda
FN:486,_RNvMs_NtCs2Eyh5DnjbiX_9cytoscnpy8halsteadNtB4_15HalsteadVisitor13visit_bool_op
FN:526,_RNvMs_NtCs2Eyh5DnjbiX_9cytoscnpy8halsteadNtB4_15HalsteadVisitor13visit_compare
FN:689,_RNvMs_NtCs2Eyh5DnjbiX_9cytoscnpy8halsteadNtB4_15HalsteadVisitor13visit_starred
FN:319,_RNvMs_NtCs2Eyh5DnjbiX_9cytoscnpy8halsteadNtB4_15HalsteadVisitor14visit_try_stmt
FN:516,_RNvMs_NtCs2Eyh5DnjbiX_9cytoscnpy8halsteadNtB4_15HalsteadVisitor14visit_unary_op
FN:677,_RNvMs_NtCs2Eyh5DnjbiX_9cytoscnpy8halsteadNtB4_15HalsteadVisitor15visit_attribute
FN:259,_RNvMs_NtCs2Eyh5DnjbiX_9cytoscnpy8halsteadNtB4_15HalsteadVisitor15visit_class_def
FN:683,_RNvMs_NtCs2Eyh5DnjbiX_9cytoscnpy8halsteadNtB4_15HalsteadVisitor15visit_subscript
FN:402,_RNvMs_NtCs2Eyh5DnjbiX_9cytoscnpy8halsteadNtB4_15HalsteadVisitor16visit_ann_assign
FN:382,_RNvMs_NtCs2Eyh5DnjbiX_9cytoscnpy8halsteadNtB4_15HalsteadVisitor16visit_aug_assign
FN:547,_RNvMs_NtCs2Eyh5DnjbiX_9cytoscnpy8halsteadNtB4_15HalsteadVisitor16visit_generators
FN:661,_RNvMs_NtCs2Eyh5DnjbiX_9cytoscnpy8halsteadNtB4_15HalsteadVisitor16visit_yield_expr
FN:193,_RNvMs_NtCs2Eyh5DnjbiX_9cytoscnpy8halsteadNtB4_15HalsteadVisitor17calculate_metrics
FN:359,_RNvMs_NtCs2Eyh5DnjbiX_9cytoscnpy8halsteadNtB4_15HalsteadVisitor17visit_import_from
FN:267,_RNvMs_NtCs2Eyh5DnjbiX_9cytoscnpy8halsteadNtB4_15HalsteadVisitor18visit_control_flow
FN:244,_RNvMs_NtCs2Eyh5DnjbiX_9cytoscnpy8halsteadNtB4_15HalsteadVisitor18visit_function_def
FN:560,_RNvMs_NtCs2Eyh5DnjbiX_9cytoscnpy8halsteadNtB4_15HalsteadVisitor18visit_literal_expr
FN:591,_RNvMs_NtCs2Eyh5DnjbiX_9cytoscnpy8halsteadNtB4_15HalsteadVisitor20visit_structure_expr
FN:634,_RNvMs_NtCs2Eyh5DnjbiX_9cytoscnpy8halsteadNtB4_15HalsteadVisitor24visit_comprehension_expr
FN:173,_RNvMs_NtCs2Eyh5DnjbiX_9cytoscnpy8halsteadNtB4_15HalsteadVisitor3new
FN:236,_RNvMs_NtCs2Eyh5DnjbiX_9cytoscnpy8halsteadNtB4_15HalsteadVisitor9visit_mod
FN:36,_RNvNtCs2Eyh5DnjbiX_9cytoscnpy8halstead16analyze_halstead
FN:43,_RNvNtCs2Eyh5DnjbiX_9cytoscnpy8halstead26analyze_halstead_functions
FNDA:24,_RNvMNtCsbhXKu17xbPQ_9cytoscnpy8halsteadNtB2_23FunctionHalsteadVisitor10visit_stmt
FNDA:6,_RNvMNtCsbhXKu17xbPQ_9cytoscnpy8halsteadNtB2_23FunctionHalsteadVisitor3new
FNDA:6,_RNvMNtCsbhXKu17xbPQ_9cytoscnpy8halsteadNtB2_23FunctionHalsteadVisitor9visit_mod
FNDA:1231,_RNvMs_NtCsbhXKu17xbPQ_9cytoscnpy8halsteadNtB4_15HalsteadVisitor10visit_expr
FNDA:1090,_RNvMs_NtCsbhXKu17xbPQ_9cytoscnpy8halsteadNtB4_15HalsteadVisitor10visit_stmt
FNDA:1492,_RNvMs_NtCsbhXKu17xbPQ_9cytoscnpy8halsteadNtB4_15HalsteadVisitor11add_operand
FNDA:1,_RNvMs_NtCsbhXKu17xbPQ_9cytoscnpy8halsteadNtB4_15HalsteadVisitor11visit_raise
FNDA:1,_RNvMs_NtCsbhXKu17xbPQ_9cytoscnpy8halsteadNtB4_15HalsteadVisitor11visit_slice
FNDA:1349,_RNvMs_NtCsbhXKu17xbPQ_9cytoscnpy8halsteadNtB4_15HalsteadVisitor12add_operator
FNDA:1,_RNvMs_NtCsbhXKu17xbPQ_9cytoscnpy8halsteadNtB4_15HalsteadVisitor12visit_assert
FNDA:103,_RNvMs_NtCsbhXKu17xbPQ_9cytoscnpy8halsteadNtB4_15HalsteadVisitor12visit_assign
FNDA:88,_RNvMs_NtCsbhXKu17xbPQ_9cytoscnpy8halsteadNtB4_15HalsteadVisitor12visit_bin_op
FNDA:4,_RNvMs_NtCsbhXKu17xbPQ_9cytoscnpy8halsteadNtB4_15HalsteadVisitor12visit_import
FNDA:3,_RNvMs_NtCsbhXKu17xbPQ_9cytoscnpy8halsteadNtB4_15HalsteadVisitor12visit_lambda
FNDA:8,_RNvMs_NtCsbhXKu17xbPQ_9cytoscnpy8halsteadNtB4_15HalsteadVisitor13visit_bool_op
FNDA:39,_RNvMs_NtCsbhXKu17xbPQ_9cytoscnpy8halsteadNtB4_15HalsteadVisitor13visit_compare
FNDA:1,_RNvMs_NtCsbhXKu17xbPQ_9cytoscnpy8halsteadNtB4_15HalsteadVisitor13visit_starred
FNDA:2,_RNvMs_NtCsbhXKu17xbPQ_9cytoscnpy8halsteadNtB4_15HalsteadVisitor14visit_try_stmt
FNDA:14,_RNvMs_NtCsbhXKu17xbPQ_9cytoscnpy8halsteadNtB4_15HalsteadVisitor14visit_unary_op
FNDA:8,_RNvMs_NtCsbhXKu17xbPQ_9cytoscnpy8halsteadNtB4_15HalsteadVisitor15visit_attribute
FNDA:3,_RNvMs_NtCsbhXKu17xbPQ_9cytoscnpy8halsteadNtB4_15HalsteadVisitor15visit_class_def
FNDA:2,_RNvMs_NtCsbhXKu17xbPQ_9cytoscnpy8halsteadNtB4_15HalsteadVisitor15visit_subscript
FNDA:0,_RNvMs_NtCsbhXKu17xbPQ_9cytoscnpy8halsteadNtB4_15HalsteadVisitor16visit_ann_assign
FNDA:23,_RNvMs_NtCsbhXKu17xbPQ_9cytoscnpy8halsteadNtB4_15HalsteadVisitor16visit_aug_assign
FNDA:9,_RNvMs_NtCsbhXKu17xbPQ_9cytoscnpy8halsteadNtB4_15HalsteadVisitor16visit_generators
FNDA:2,_RNvMs_NtCsbhXKu17xbPQ_9cytoscnpy8halsteadNtB4_15HalsteadVisitor16visit_yield_expr
FNDA:78,_RNvMs_NtCsbhXKu17xbPQ_9cytoscnpy8halsteadNtB4_15HalsteadVisitor17calculate_metrics
FNDA:3,_RNvMs_NtCsbhXKu17xbPQ_9cytoscnpy8halsteadNtB4_15HalsteadVisitor17visit_import_from
FNDA:45,_RNvMs_NtCsbhXKu17xbPQ_9cytoscnpy8halsteadNtB4_15HalsteadVisitor18visit_control_flow
FNDA:425,_RNvMs_NtCsbhXKu17xbPQ_9cytoscnpy8halsteadNtB4_15HalsteadVisitor18visit_function_def
FNDA:661,_RNvMs_NtCsbhXKu17xbPQ_9cytoscnpy8halsteadNtB4_15HalsteadVisitor18visit_literal_expr
FNDA:15,_RNvMs_NtCsbhXKu17xbPQ_9cytoscnpy8halsteadNtB4_15HalsteadVisitor20visit_structure_expr
FNDA:9,_RNvMs_NtCsbhXKu17xbPQ_9cytoscnpy8halsteadNtB4_15HalsteadVisitor24visit_comprehension_expr
FNDA:78,_RNvMs_NtCsbhXKu17xbPQ_9cytoscnpy8halsteadNtB4_15HalsteadVisitor3new
FNDA:67,_RNvMs_NtCsbhXKu17xbPQ_9cytoscnpy8halsteadNtB4_15HalsteadVisitor9visit_mod
FNDA:67,_RNvNtCsbhXKu17xbPQ_9cytoscnpy8halstead16analyze_halstead
FNDA:6,_RNvNtCsbhXKu17xbPQ_9cytoscnpy8halstead26analyze_halstead_functions
FNDA:0,_RNvMNtCs2Eyh5DnjbiX_9cytoscnpy8halsteadNtB2_23FunctionHalsteadVisitor10visit_stmt
FNDA:0,_RNvMNtCs2Eyh5DnjbiX_9cytoscnpy8halsteadNtB2_23FunctionHalsteadVisitor3new
FNDA:0,_RNvMNtCs2Eyh5DnjbiX_9cytoscnpy8halsteadNtB2_23FunctionHalsteadVisitor9visit_mod
FNDA:0,_RNvMs_NtCs2Eyh5DnjbiX_9cytoscnpy8halsteadNtB4_15HalsteadVisitor10visit_expr
FNDA:0,_RNvMs_NtCs2Eyh5DnjbiX_9cytoscnpy8halsteadNtB4_15HalsteadVisitor10visit_stmt
FNDA:0,_RNvMs_NtCs2Eyh5DnjbiX_9cytoscnpy8halsteadNtB4_15HalsteadVisitor11add_operand
FNDA:0,_RNvMs_NtCs2Eyh5DnjbiX_9cytoscnpy8halsteadNtB4_15HalsteadVisitor11visit_raise
FNDA:0,_RNvMs_NtCs2Eyh5DnjbiX_9cytoscnpy8halsteadNtB4_15HalsteadVisitor11visit_slice
FNDA:0,_RNvMs_NtCs2Eyh5DnjbiX_9cytoscnpy8halsteadNtB4_15HalsteadVisitor12add_operator
FNDA:0,_RNvMs_NtCs2Eyh5DnjbiX_9cytoscnpy8halsteadNtB4_15HalsteadVisitor12visit_assert
FNDA:0,_RNvMs_NtCs2Eyh5DnjbiX_9cytoscnpy8halsteadNtB4_15HalsteadVisitor12visit_assign
FNDA:0,_RNvMs_NtCs2Eyh5DnjbiX_9cytoscnpy8halsteadNtB4_15HalsteadVisitor12visit_bin_op
FNDA:0,_RNvMs_NtCs2Eyh5DnjbiX_9cytoscnpy8halsteadNtB4_15HalsteadVisitor12visit_import
FNDA:0,_RNvMs_NtCs2Eyh5DnjbiX_9cytoscnpy8halsteadNtB4_15HalsteadVisitor12visit_lambda
FNDA:0,_RNvMs_NtCs2Eyh5DnjbiX_9cytoscnpy8halsteadNtB4_15HalsteadVisitor13visit_bool_op
FNDA:0,_RNvMs_NtCs2Eyh5DnjbiX_9cytoscnpy8halsteadNtB4_15HalsteadVisitor13visit_compare
FNDA:0,_RNvMs_NtCs2Eyh5DnjbiX_9cytoscnpy8halsteadNtB4_15HalsteadVisitor13visit_starred
FNDA:0,_RNvMs_NtCs2Eyh5DnjbiX_9cytoscnpy8halsteadNtB4_15HalsteadVisitor14visit_try_stmt
FNDA:0,_RNvMs_NtCs2Eyh5DnjbiX_9cytoscnpy8halsteadNtB4_15HalsteadVisitor14visit_unary_op
FNDA:0,_RNvMs_NtCs2Eyh5DnjbiX_9cytoscnpy8halsteadNtB4_15HalsteadVisitor15visit_attribute
FNDA:0,_RNvMs_NtCs2Eyh5DnjbiX_9cytoscnpy8halsteadNtB4_15HalsteadVisitor15visit_class_def
FNDA:0,_RNvMs_NtCs2Eyh5DnjbiX_9cytoscnpy8halsteadNtB4_15HalsteadVisitor15visit_subscript
FNDA:0,_RNvMs_NtCs2Eyh5DnjbiX_9cytoscnpy8halsteadNtB4_15HalsteadVisitor16visit_ann_assign
FNDA:0,_RNvMs_NtCs2Eyh5DnjbiX_9cytoscnpy8halsteadNtB4_15HalsteadVisitor16visit_aug_assign
FNDA:0,_RNvMs_NtCs2Eyh5DnjbiX_9cytoscnpy8halsteadNtB4_15HalsteadVisitor16visit_generators
FNDA:0,_RNvMs_NtCs2Eyh5DnjbiX_9cytoscnpy8halsteadNtB4_15HalsteadVisitor16visit_yield_expr
FNDA:0,_RNvMs_NtCs2Eyh5DnjbiX_9cytoscnpy8halsteadNtB4_15HalsteadVisitor17calculate_metrics
FNDA:0,_RNvMs_NtCs2Eyh5DnjbiX_9cytoscnpy8halsteadNtB4_15HalsteadVisitor17visit_import_from
FNDA:0,_RNvMs_NtCs2Eyh5DnjbiX_9cytoscnpy8halsteadNtB4_15HalsteadVisitor18visit_control_flow
FNDA:0,_RNvMs_NtCs2Eyh5DnjbiX_9cytoscnpy8halsteadNtB4_15HalsteadVisitor18visit_function_def
FNDA:0,_RNvMs_NtCs2Eyh5DnjbiX_9cytoscnpy8halsteadNtB4_15HalsteadVisitor18visit_literal_expr
FNDA:0,_RNvMs_NtCs2Eyh5DnjbiX_9cytoscnpy8halsteadNtB4_15HalsteadVisitor20visit_structure_expr
FNDA:0,_RNvMs_NtCs2Eyh5DnjbiX_9cytoscnpy8halsteadNtB4_15HalsteadVisitor24visit_comprehension_expr
FNDA:0,_RNvMs_NtCs2Eyh5DnjbiX_9cytoscnpy8halsteadNtB4_15HalsteadVisitor3new
FNDA:0,_RNvMs_NtCs2Eyh5DnjbiX_9cytoscnpy8halsteadNtB4_15HalsteadVisitor9visit_mod
FNDA:0,_RNvNtCs2Eyh5DnjbiX_9cytoscnpy8halstead16analyze_halstead
FNDA:0,_RNvNtCs2Eyh5DnjbiX_9cytoscnpy8halstead26analyze_halstead_functions
FNF:37
FNH:36
DA:36,67
DA:37,67
DA:38,67
DA:39,67
DA:40,67
DA:43,6
DA:44,6
DA:45,6
DA:46,6
DA:47,6
DA:54,6
DA:55,6
DA:56,6
DA:57,6
DA:58,6
DA:60,6
DA:61,6
DA:62,15
DA:63,9
DA:64,9
DA:65,0
DA:66,6
DA:68,24
DA:69,24
DA:70,11
DA:71,11
DA:72,11
DA:73,1
DA:74,10
DA:76,24
DA:77,13
DA:78,13
DA:80,18
DA:81,7
DA:82,7
DA:84,11
DA:85,0
DA:86,0
DA:88,11
DA:89,0
DA:90,0
DA:91,11
DA:92,11
DA:95,24
DA:96,13
DA:97,13
DA:99,1
DA:100,3
DA:101,2
DA:102,2
DA:107,12
DA:108,0
DA:109,0
DA:110,0
DA:111,0
DA:112,0
DA:113,0
DA:115,0
DA:116,0
DA:117,0
DA:120,0
DA:121,0
DA:122,0
DA:123,0
DA:124,0
DA:125,0
DA:126,0
DA:128,0
DA:129,0
DA:130,0
DA:131,0
DA:132,0
DA:133,0
DA:134,0
DA:136,0
DA:137,0
DA:138,0
DA:139,0
DA:141,0
DA:142,0
DA:143,0
DA:144,0
DA:145,0
DA:146,0
DA:147,0
DA:148,0
DA:149,0
DA:151,0
DA:152,0
DA:153,0
DA:154,0
DA:155,0
DA:156,0
DA:158,12
DA:162,24
DA:173,78
DA:174,78
DA:175,78
DA:176,78
DA:177,78
DA:178,78
DA:179,78
DA:180,78
DA:182,1349
DA:183,1349
DA:184,1349
DA:185,1349
DA:187,1492
DA:188,1492
DA:189,1492
DA:190,1492
DA:193,78
DA:194,78
DA:195,78
DA:196,78
DA:197,78
DA:199,78
DA:200,78
DA:201,78
DA:202,74
DA:204,4
DA:206,78
DA:207,75
DA:209,3
DA:211,78
DA:212,74
DA:214,4
DA:216,78
DA:217,78
DA:218,78
DA:220,78
DA:221,78
DA:222,78
DA:223,78
DA:224,78
DA:225,78
DA:226,78
DA:227,78
DA:228,78
DA:229,78
DA:230,78
DA:231,78
DA:232,78
DA:233,78
DA:234,78
DA:236,67
DA:237,67
DA:238,585
DA:239,518
DA:240,518
DA:241,0
DA:242,67
DA:244,425
DA:245,425
DA:246,2
DA:247,423
DA:248,423
DA:249,423
DA:250,425
DA:251,458
DA:252,33
DA:253,33
DA:254,911
DA:255,486
DA:256,486
DA:257,425
DA:259,3
DA:260,3
DA:261,3
DA:262,9
DA:263,6
DA:264,6
DA:265,3
DA:267,45
DA:268,45
DA:269,4
DA:270,4
DA:271,1
DA:272,3
DA:273,3
DA:274,3
DA:275,4
DA:276,4
DA:277,4
DA:278,8
DA:279,4
DA:280,4
DA:282,3
DA:283,3
DA:284,3
DA:285,8
DA:286,5
DA:287,5
DA:289,36
DA:290,36
DA:291,36
DA:292,72
DA:293,36
DA:294,36
DA:295,47
DA:296,11
DA:297,23
DA:298,12
DA:299,12
DA:302,2
DA:303,2
DA:304,1
DA:305,1
DA:306,1
DA:307,1
DA:308,5
DA:309,3
DA:310,3
DA:311,4
DA:312,2
DA:313,2
DA:315,0
DA:317,45
DA:319,2
DA:320,2
DA:321,4
DA:322,2
DA:323,2
DA:324,5
DA:325,3
DA:326,3
DA:327,3
DA:328,3
DA:329,3
DA:330,6
DA:331,3
DA:332,3
DA:334,2
DA:335,1
DA:336,2
DA:337,1
DA:338,1
DA:339,1
DA:340,2
DA:341,2
DA:342,4
DA:343,2
DA:344,2
DA:345,0
DA:346,2
DA:348,4
DA:349,4
DA:350,8
DA:351,4
DA:352,4
DA:353,0
DA:354,0
DA:355,4
DA:357,4
DA:359,3
DA:360,3
DA:361,3
DA:362,3
DA:363,3
DA:364,3
DA:365,8
DA:366,5
DA:367,5
DA:368,1
DA:369,1
DA:370,4
DA:372,3
DA:374,103
DA:375,103
DA:376,206
DA:377,103
DA:378,103
DA:379,103
DA:380,103
DA:382,23
DA:383,23
DA:384,5
DA:385,3
DA:386,5
DA:387,1
DA:388,1
DA:389,1
DA:390,1
DA:391,1
DA:392,1
DA:393,1
DA:394,1
DA:395,1
DA:396,1
DA:398,23
DA:399,23
DA:400,23
DA:402,0
DA:403,0
DA:404,0
DA:405,0
DA:406,0
DA:407,0
DA:408,0
DA:409,0
DA:411,1
DA:412,1
DA:413,1
DA:414,1
DA:415,1
DA:416,1
DA:417,1
DA:418,1
DA:419,1
DA:420,1
DA:422,1
DA:423,1
DA:424,1
DA:425,1
DA:426,1
DA:427,1
DA:428,1
DA:431,1090
DA:432,1090
DA:433,425
DA:434,3
DA:435,431
DA:436,431
DA:437,431
DA:438,431
DA:439,431
DA:441,1
DA:442,1
DA:443,2
DA:444,1
DA:445,1
DA:447,103
DA:448,23
DA:449,0
DA:450,45
DA:451,45
DA:452,45
DA:453,1
DA:454,2
DA:455,1
DA:456,4
DA:457,3
DA:458,1
DA:459,1
DA:460,2
DA:461,1
DA:462,1
DA:464,1
DA:465,1
DA:466,2
DA:467,1
DA:468,1
DA:470,23
DA:471,23
DA:472,23
DA:473,17
DA:474,17
DA:475,17
DA:476,2
DA:477,2
DA:478,2
DA:479,2
DA:480,2
DA:481,2
DA:482,2
DA:484,1090
DA:486,8
DA:487,8
DA:488,6
DA:489,2
DA:491,28
DA:492,20
DA:493,20
DA:494,8
DA:496,88
DA:497,88
DA:498,32
DA:499,8
DA:500,23
DA:501,1
DA:502,6
DA:503,4
DA:504,6
DA:505,1
DA:506,1
DA:507,2
DA:508,1
DA:509,2
DA:510,1
DA:512,88
DA:513,88
DA:514,88
DA:516,14
DA:517,14
DA:518,2
DA:519,2
DA:520,3
DA:521,7
DA:523,14
DA:524,14
DA:526,39
DA:527,79
DA:528,40
DA:529,6
DA:530,1
DA:531,3
DA:532,3
DA:533,21
DA:534,2
DA:535,1
DA:536,1
DA:537,1
DA:538,1
DA:541,39
DA:542,79
DA:543,40
DA:544,40
DA:545,39
DA:547,9
DA:548,18
DA:549,9
DA:550,9
DA:551,9
DA:552,9
DA:553,14
DA:554,5
DA:555,5
DA:556,5
DA:558,9
DA:560,661
DA:561,661
DA:562,33
DA:563,33
DA:564,33
DA:565,1
DA:566,1
DA:567,1
DA:568,613
DA:569,613
DA:570,613
DA:571,11
DA:572,11
DA:573,11
DA:574,2
DA:575,2
DA:576,2
DA:577,0
DA:578,0
DA:579,0
DA:580,1
DA:581,2
DA:582,1
DA:583,0
DA:584,1
DA:587,0
DA:589,661
DA:591,15
DA:592,15
DA:593,4
DA:594,4
DA:595,12
DA:596,8
DA:597,7
DA:598,7
DA:599,8
DA:602,1
DA:603,1
DA:604,3
DA:605,2
DA:606,2
DA:608,8
DA:609,8
DA:610,29
DA:611,21
DA:612,21
DA:614,2
DA:615,2
DA:616,6
DA:617,4
DA:618,4
DA:620,0
DA:622,15
DA:624,3
DA:625,3
DA:626,3
DA:627,6
DA:628,3
DA:629,3
DA:630,0
DA:631,3
DA:632,3
DA:634,9
DA:635,9
DA:636,4
DA:637,4
DA:638,4
DA:639,4
DA:640,4
DA:641,2
DA:642,2
DA:643,2
DA:644,2
DA:645,2
DA:646,2
DA:647,2
DA:648,2
DA:649,2
DA:650,2
DA:651,2
DA:652,1
DA:653,1
DA:654,1
DA:655,1
DA:656,1
DA:657,0
DA:659,9
DA:661,2
DA:662,2
DA:663,1
DA:664,1
DA:665,1
DA:666,1
DA:667,1
DA:669,1
DA:670,1
DA:671,1
DA:672,1
DA:673,0
DA:675,2
DA:677,8
DA:678,8
DA:679,8
DA:680,8
DA:681,8
DA:683,2
DA:684,2
DA:685,2
DA:686,2
DA:687,2
DA:689,1
DA:690,1
DA:691,1
DA:692,1
DA:694,1
DA:695,1
DA:696,1
DA:697,1
DA:698,1
DA:699,1
DA:700,1
DA:701,1
DA:702,1
DA:703,1
DA:704,1
DA:705,1
DA:708,1231
DA:709,1231
DA:710,8
DA:711,1
DA:712,1
DA:713,1
DA:714,1
DA:715,1
DA:716,88
DA:717,14
DA:718,3
DA:719,1
DA:720,1
DA:721,1
DA:722,1
DA:723,1
DA:724,1
DA:725,1
DA:726,15
DA:727,15
DA:728,15
DA:729,9
DA:730,9
DA:731,9
DA:732,2
DA:733,2
DA:734,2
DA:735,2
DA:736,2
DA:737,39
DA:738,38
DA:739,38
DA:740,38
DA:741,74
DA:742,36
DA:743,36
DA:744,38
DA:745,0
DA:746,0
DA:754,661
DA:756,8
DA:757,2
DA:758,1
DA:759,338
DA:760,1
DA:761,0
DA:763,1231
BRF:0
BRH:0
LF:602
LH:529
end_of_record
SF:E:\Github\CytoScnPy\cytoscnpy\src\ipynb.rs
FN:20,_RNCNvNtCsbhXKu17xbPQ_9cytoscnpy5ipynb21extract_notebook_code0B5_
FN:28,_RNCNvNtCsbhXKu17xbPQ_9cytoscnpy5ipynb21extract_notebook_codes_0B5_
FN:53,_RNCNvNtCsbhXKu17xbPQ_9cytoscnpy5ipynb22extract_notebook_cells0B5_
FN:62,_RNCNvNtCsbhXKu17xbPQ_9cytoscnpy5ipynb22extract_notebook_cellss_0B5_
FN:11,_RNvNtCsbhXKu17xbPQ_9cytoscnpy5ipynb21extract_notebook_code
FN:43,_RNvNtCsbhXKu17xbPQ_9cytoscnpy5ipynb22extract_notebook_cells
FN:20,_RNCNvNtCs2Eyh5DnjbiX_9cytoscnpy5ipynb21extract_notebook_code0B5_
FN:28,_RNCNvNtCs2Eyh5DnjbiX_9cytoscnpy5ipynb21extract_notebook_codes_0B5_
FN:53,_RNCNvNtCs2Eyh5DnjbiX_9cytoscnpy5ipynb22extract_notebook_cells0B5_
FN:62,_RNCNvNtCs2Eyh5DnjbiX_9cytoscnpy5ipynb22extract_notebook_cellss_0B5_
FN:43,_RNvNtCs2Eyh5DnjbiX_9cytoscnpy5ipynb22extract_notebook_cells
FN:11,_RNvNtCs2Eyh5DnjbiX_9cytoscnpy5ipynb21extract_notebook_code
FNDA:26,_RNCNvNtCsbhXKu17xbPQ_9cytoscnpy5ipynb21extract_notebook_code0B5_
FNDA:9,_RNCNvNtCsbhXKu17xbPQ_9cytoscnpy5ipynb21extract_notebook_codes_0B5_
FNDA:0,_RNCNvNtCsbhXKu17xbPQ_9cytoscnpy5ipynb22extract_notebook_cells0B5_
FNDA:4,_RNCNvNtCsbhXKu17xbPQ_9cytoscnpy5ipynb22extract_notebook_cellss_0B5_
FNDA:20,_RNvNtCsbhXKu17xbPQ_9cytoscnpy5ipynb21extract_notebook_code
FNDA:4,_RNvNtCsbhXKu17xbPQ_9cytoscnpy5ipynb22extract_notebook_cells
FNDA:0,_RNCNvNtCs2Eyh5DnjbiX_9cytoscnpy5ipynb21extract_notebook_code0B5_
FNDA:0,_RNCNvNtCs2Eyh5DnjbiX_9cytoscnpy5ipynb21extract_notebook_codes_0B5_
FNDA:0,_RNCNvNtCs2Eyh5DnjbiX_9cytoscnpy5ipynb22extract_notebook_cells0B5_
FNDA:0,_RNCNvNtCs2Eyh5DnjbiX_9cytoscnpy5ipynb22extract_notebook_cellss_0B5_
FNDA:0,_RNvNtCs2Eyh5DnjbiX_9cytoscnpy5ipynb22extract_notebook_cells
FNDA:0,_RNvNtCs2Eyh5DnjbiX_9cytoscnpy5ipynb21extract_notebook_code
FNF:6
FNH:5
DA:11,20
DA:12,20
DA:13,19
DA:14,19
DA:16,15
DA:17,10
DA:18,10
DA:19,10
DA:20,26
DA:21,24
DA:22,2
DA:23,26
DA:24,10
DA:25,5
DA:26,5
DA:27,5
DA:28,9
DA:29,7
DA:30,2
DA:31,9
DA:32,5
DA:35,15
DA:36,20
DA:43,4
DA:44,4
DA:45,3
DA:46,3
DA:48,2
DA:49,0
DA:50,0
DA:51,0
DA:52,0
DA:53,0
DA:54,0
DA:55,0
DA:56,0
DA:57,0
DA:58,2
DA:59,2
DA:60,2
DA:61,2
DA:62,4
DA:63,3
DA:64,1
DA:65,4
DA:66,2
DA:69,2
DA:70,4
BRF:0
BRH:0
LF:52
LH:42
end_of_record
SF:E:\Github\CytoScnPy\cytoscnpy\src\lib.rs
FN:118,_RNvCsbhXKu17xbPQ_9cytoscnpy9cytoscnpy
FN:118,_RNvCs2Eyh5DnjbiX_9cytoscnpy9cytoscnpy
FNDA:0,_RNvCsbhXKu17xbPQ_9cytoscnpy9cytoscnpy
FNDA:0,_RNvCs2Eyh5DnjbiX_9cytoscnpy9cytoscnpy
FNF:1
FNH:0
DA:118,0
DA:119,0
DA:120,0
BRF:0
BRH:0
LF:3
LH:0
end_of_record
SF:E:\Github\CytoScnPy\cytoscnpy\src\linter.rs
FN:141,_RNvMNtCsbhXKu17xbPQ_9cytoscnpy6linterNtB2_13LinterVisitor10visit_expr
FN:36,_RNvMNtCsbhXKu17xbPQ_9cytoscnpy6linterNtB2_13LinterVisitor10visit_stmt
FN:18,_RNvMNtCsbhXKu17xbPQ_9cytoscnpy6linterNtB2_13LinterVisitor3new
FN:141,_RNvMNtCs2Eyh5DnjbiX_9cytoscnpy6linterNtB2_13LinterVisitor10visit_expr
FN:36,_RNvMNtCs2Eyh5DnjbiX_9cytoscnpy6linterNtB2_13LinterVisitor10visit_stmt
FN:18,_RNvMNtCs2Eyh5DnjbiX_9cytoscnpy6linterNtB2_13LinterVisitor3new
FNDA:1764,_RNvMNtCsbhXKu17xbPQ_9cytoscnpy6linterNtB2_13LinterVisitor10visit_expr
FNDA:892,_RNvMNtCsbhXKu17xbPQ_9cytoscnpy6linterNtB2_13LinterVisitor10visit_stmt
FNDA:160,_RNvMNtCsbhXKu17xbPQ_9cytoscnpy6linterNtB2_13LinterVisitor3new
FNDA:0,_RNvMNtCs2Eyh5DnjbiX_9cytoscnpy6linterNtB2_13LinterVisitor10visit_expr
FNDA:0,_RNvMNtCs2Eyh5DnjbiX_9cytoscnpy6linterNtB2_13LinterVisitor10visit_stmt
FNDA:0,_RNvMNtCs2Eyh5DnjbiX_9cytoscnpy6linterNtB2_13LinterVisitor3new
FNF:3
FNH:3
DA:18,160
DA:19,160
DA:20,160
DA:21,160
DA:22,160
DA:23,160
DA:24,160
DA:25,160
DA:26,160
DA:27,160
DA:28,160
DA:29,160
DA:30,160
DA:31,160
DA:32,160
DA:33,160
DA:36,892
DA:38,25518
DA:39,24626
DA:40,132
DA:41,24494
DA:45,892
DA:46,78
DA:47,253
DA:48,175
DA:49,175
DA:51,0
DA:52,0
DA:53,0
DA:54,0
DA:56,59
DA:57,59
DA:58,118
DA:59,59
DA:60,59
DA:61,67
DA:62,16
DA:63,8
DA:64,8
DA:67,3
DA:68,3
DA:69,6
DA:70,3
DA:71,3
DA:72,3
DA:73,0
DA:74,0
DA:76,2
DA:77,2
DA:78,4
DA:79,2
DA:80,2
DA:81,2
DA:82,0
DA:83,0
DA:85,7
DA:86,14
DA:87,7
DA:88,7
DA:89,15
DA:90,8
DA:91,8
DA:92,16
DA:93,8
DA:94,8
DA:98,7
DA:99,0
DA:100,0
DA:101,7
DA:102,0
DA:103,0
DA:105,1
DA:106,3
DA:107,2
DA:108,2
DA:110,300
DA:111,300
DA:112,300
DA:113,101
DA:114,101
DA:115,101
DA:116,0
DA:117,0
DA:118,0
DA:119,0
DA:121,0
DA:122,0
DA:123,0
DA:124,29
DA:125,29
DA:126,28
DA:127,28
DA:129,312
DA:133,25518
DA:134,24626
DA:135,0
DA:136,24626
DA:138,892
DA:141,1764
DA:143,53208
DA:144,51444
DA:145,264
DA:146,51180
DA:150,1764
DA:151,393
DA:152,393
DA:153,711
DA:154,318
DA:155,318
DA:156,473
DA:157,80
DA:158,80
DA:160,368
DA:161,9
DA:162,9
DA:163,9
DA:164,9
DA:165,0
DA:166,0
DA:167,0
DA:168,0
DA:169,0
DA:171,14
DA:172,14
DA:173,28
DA:174,14
DA:175,14
DA:177,11
DA:178,30
DA:179,19
DA:180,19
DA:182,6
DA:183,17
DA:184,11
DA:185,11
DA:187,0
DA:188,0
DA:189,0
DA:190,0
DA:192,3
DA:193,4
DA:194,1
DA:195,1
DA:196,1
DA:197,1
DA:200,5
DA:201,5
DA:202,5
DA:203,5
DA:204,1
DA:205,1
DA:206,1
DA:207,1
DA:208,1
DA:210,0
DA:211,6
DA:212,2
DA:213,3
DA:214,6
DA:215,3
DA:216,3
DA:217,0
DA:218,0
DA:220,3
DA:222,1
DA:223,2
DA:224,1
DA:225,1
DA:226,0
DA:227,0
DA:229,1
DA:231,2
DA:232,4
DA:233,2
DA:234,2
DA:235,0
DA:236,0
DA:238,2
DA:239,2
DA:241,0
DA:242,0
DA:243,0
DA:244,0
DA:245,0
DA:246,0
DA:248,0
DA:250,939
DA:254,53208
DA:255,51444
DA:256,0
DA:257,51444
DA:259,1764
BRF:0
BRH:0
LF:192
LH:148
end_of_record
SF:E:\Github\CytoScnPy\cytoscnpy\src\main.rs
FN:8,_RNvCs8T9SOqlTq2h_13cytoscnpy_bin4main
FN:8,_RNvCs20sf0XMSGXP_13cytoscnpy_bin4main
FNDA:0,_RNvCs8T9SOqlTq2h_13cytoscnpy_bin4main
FNDA:0,_RNvCs20sf0XMSGXP_13cytoscnpy_bin4main
FNF:1
FNH:0
DA:8,0
DA:10,0
DA:11,0
DA:12,0
BRF:0
BRH:0
LF:4
LH:0
end_of_record
SF:E:\Github\CytoScnPy\cytoscnpy\src\metrics.rs
FN:19,_RNvNtCsbhXKu17xbPQ_9cytoscnpy7metrics10mi_compute
FN:70,_RNvNtCsbhXKu17xbPQ_9cytoscnpy7metrics7cc_rank
FN:51,_RNvNtCsbhXKu17xbPQ_9cytoscnpy7metrics7mi_rank
FN:19,_RNvNtCs2Eyh5DnjbiX_9cytoscnpy7metrics10mi_compute
FN:70,_RNvNtCs2Eyh5DnjbiX_9cytoscnpy7metrics7cc_rank
FN:51,_RNvNtCs2Eyh5DnjbiX_9cytoscnpy7metrics7mi_rank
FNDA:14,_RNvNtCsbhXKu17xbPQ_9cytoscnpy7metrics10mi_compute
FNDA:85,_RNvNtCsbhXKu17xbPQ_9cytoscnpy7metrics7cc_rank
FNDA:15,_RNvNtCsbhXKu17xbPQ_9cytoscnpy7metrics7mi_rank
FNDA:0,_RNvNtCs2Eyh5DnjbiX_9cytoscnpy7metrics10mi_compute
FNDA:0,_RNvNtCs2Eyh5DnjbiX_9cytoscnpy7metrics7cc_rank
FNDA:0,_RNvNtCs2Eyh5DnjbiX_9cytoscnpy7metrics7mi_rank
FNF:3
FNH:3
DA:19,14
DA:20,14
DA:23,14
DA:24,14
DA:25,14
DA:28,14
DA:31,14
DA:32,14
DA:33,14
DA:36,14
DA:37,3
DA:38,3
DA:39,11
DA:42,14
DA:43,14
DA:51,15
DA:52,15
DA:53,11
DA:54,4
DA:55,2
DA:57,2
DA:59,15
DA:70,85
DA:71,85
DA:72,80
DA:73,5
DA:74,4
DA:75,1
DA:76,1
DA:77,0
DA:78,0
DA:79,0
DA:80,0
DA:82,0
DA:84,85
BRF:0
BRH:0
LF:35
LH:30
end_of_record
SF:E:\Github\CytoScnPy\cytoscnpy\src\output.rs
FN:209,_RNvNtCsbhXKu17xbPQ_9cytoscnpy6output12create_table
FN:48,_RNvNtCsbhXKu17xbPQ_9cytoscnpy6output14create_spinner
FN:219,_RNvNtCsbhXKu17xbPQ_9cytoscnpy6output18get_severity_color
FN:74,_RNvNtCsbhXKu17xbPQ_9cytoscnpy6output19create_progress_bar
FN:129,_RNvNvNtCsbhXKu17xbPQ_9cytoscnpy6output19print_summary_pills4pill
FN:99,_RINvNtCsbhXKu17xbPQ_9cytoscnpy6output12print_headerNtNtNtCslP1BYCnN0Ot_3std2io5stdio6StdoutEB4_
FN:382,_RINvNtCsbhXKu17xbPQ_9cytoscnpy6output12print_reportNtNtNtCslP1BYCnN0Ot_3std2io5stdio6StdoutEB4_
FN:267,_RINvNtCsbhXKu17xbPQ_9cytoscnpy6output13print_secretsNtNtNtCslP1BYCnN0Ot_3std2io5stdio6StdoutEB4_
FN:233,_RINvNtCsbhXKu17xbPQ_9cytoscnpy6output14print_findingsNtNtNtCslP1BYCnN0Ot_3std2io5stdio6StdoutEB4_
FN:354,_RINvNtCsbhXKu17xbPQ_9cytoscnpy6output18print_parse_errorsNtNtNtCslP1BYCnN0Ot_3std2io5stdio6StdoutEB4_
FN:443,_RINvNtCsbhXKu17xbPQ_9cytoscnpy6output18print_report_quietNtNtNtCslP1BYCnN0Ot_3std2io5stdio6StdoutEB4_
FN:301,_RINvNtCsbhXKu17xbPQ_9cytoscnpy6output18print_unused_itemsNtNtNtCslP1BYCnN0Ot_3std2io5stdio6StdoutEB4_
FN:125,_RINvNtCsbhXKu17xbPQ_9cytoscnpy6output19print_summary_pillsNtNtNtCslP1BYCnN0Ot_3std2io5stdio6StdoutEB4_
FN:168,_RINvNtCsbhXKu17xbPQ_9cytoscnpy6output20print_analysis_statsNtNtNtCslP1BYCnN0Ot_3std2io5stdio6StdoutEB4_
FN:17,_RINvNtCsbhXKu17xbPQ_9cytoscnpy6output20print_exclusion_listNtNtNtCslP1BYCnN0Ot_3std2io5stdio6StdoutEB4_
FN:59,_RNCNvNtCsbhXKu17xbPQ_9cytoscnpy6output14create_spinner0B5_
FN:85,_RNCNvNtCsbhXKu17xbPQ_9cytoscnpy6output19create_progress_bar0B5_
FN:99,_RINvNtCsbhXKu17xbPQ_9cytoscnpy6output12print_headerINtNtCs1S013FBku8r_5alloc3vec3VechEECsk4WInR7jcT_18absolute_path_test
FN:382,_RINvNtCsbhXKu17xbPQ_9cytoscnpy6output12print_reportINtNtCs1S013FBku8r_5alloc3vec3VechEECsk4WInR7jcT_18absolute_path_test
FN:267,_RINvNtCsbhXKu17xbPQ_9cytoscnpy6output13print_secretsINtNtCs1S013FBku8r_5alloc3vec3VechEECsk4WInR7jcT_18absolute_path_test
FN:233,_RINvNtCsbhXKu17xbPQ_9cytoscnpy6output14print_findingsINtNtCs1S013FBku8r_5alloc3vec3VechEECsk4WInR7jcT_18absolute_path_test
FN:354,_RINvNtCsbhXKu17xbPQ_9cytoscnpy6output18print_parse_errorsINtNtCs1S013FBku8r_5alloc3vec3VechEECsk4WInR7jcT_18absolute_path_test
FN:443,_RINvNtCsbhXKu17xbPQ_9cytoscnpy6output18print_report_quietINtNtCs1S013FBku8r_5alloc3vec3VechEECsk4WInR7jcT_18absolute_path_test
FN:301,_RINvNtCsbhXKu17xbPQ_9cytoscnpy6output18print_unused_itemsINtNtCs1S013FBku8r_5alloc3vec3VechEECsk4WInR7jcT_18absolute_path_test
FN:125,_RINvNtCsbhXKu17xbPQ_9cytoscnpy6output19print_summary_pillsINtNtCs1S013FBku8r_5alloc3vec3VechEECsk4WInR7jcT_18absolute_path_test
FN:168,_RINvNtCsbhXKu17xbPQ_9cytoscnpy6output20print_analysis_statsINtNtCs1S013FBku8r_5alloc3vec3VechEECsk4WInR7jcT_18absolute_path_test
FN:17,_RINvNtCsbhXKu17xbPQ_9cytoscnpy6output20print_exclusion_listINtNtCs1S013FBku8r_5alloc3vec3VechEECsk4WInR7jcT_18absolute_path_test
FN:209,_RNvNtCs2Eyh5DnjbiX_9cytoscnpy6output12create_table
FN:48,_RNvNtCs2Eyh5DnjbiX_9cytoscnpy6output14create_spinner
FN:219,_RNvNtCs2Eyh5DnjbiX_9cytoscnpy6output18get_severity_color
FN:74,_RNvNtCs2Eyh5DnjbiX_9cytoscnpy6output19create_progress_bar
FN:129,_RNvNvNtCs2Eyh5DnjbiX_9cytoscnpy6output19print_summary_pills4pill
FN:59,_RNCNvNtCs2Eyh5DnjbiX_9cytoscnpy6output14create_spinner0B5_
FN:85,_RNCNvNtCs2Eyh5DnjbiX_9cytoscnpy6output19create_progress_bar0B5_
FN:99,_RINvNtCs2Eyh5DnjbiX_9cytoscnpy6output12print_headerNtNtNtCslP1BYCnN0Ot_3std2io5stdio6StdoutEB4_
FN:382,_RINvNtCs2Eyh5DnjbiX_9cytoscnpy6output12print_reportNtNtNtCslP1BYCnN0Ot_3std2io5stdio6StdoutEB4_
FN:267,_RINvNtCs2Eyh5DnjbiX_9cytoscnpy6output13print_secretsNtNtNtCslP1BYCnN0Ot_3std2io5stdio6StdoutEB4_
FN:233,_RINvNtCs2Eyh5DnjbiX_9cytoscnpy6output14print_findingsNtNtNtCslP1BYCnN0Ot_3std2io5stdio6StdoutEB4_
FN:354,_RINvNtCs2Eyh5DnjbiX_9cytoscnpy6output18print_parse_errorsNtNtNtCslP1BYCnN0Ot_3std2io5stdio6StdoutEB4_
FN:443,_RINvNtCs2Eyh5DnjbiX_9cytoscnpy6output18print_report_quietNtNtNtCslP1BYCnN0Ot_3std2io5stdio6StdoutEB4_
FN:301,_RINvNtCs2Eyh5DnjbiX_9cytoscnpy6output18print_unused_itemsNtNtNtCslP1BYCnN0Ot_3std2io5stdio6StdoutEB4_
FN:125,_RINvNtCs2Eyh5DnjbiX_9cytoscnpy6output19print_summary_pillsNtNtNtCslP1BYCnN0Ot_3std2io5stdio6StdoutEB4_
FN:168,_RINvNtCs2Eyh5DnjbiX_9cytoscnpy6output20print_analysis_statsNtNtNtCslP1BYCnN0Ot_3std2io5stdio6StdoutEB4_
FN:17,_RINvNtCs2Eyh5DnjbiX_9cytoscnpy6output20print_exclusion_listNtNtNtCslP1BYCnN0Ot_3std2io5stdio6StdoutEB4_
FN:99,_RINvNtCsbhXKu17xbPQ_9cytoscnpy6output12print_headerINtNtCs1S013FBku8r_5alloc3vec3VechEECs5uXW1tGmheJ_20entry_point_cli_test
FN:382,_RINvNtCsbhXKu17xbPQ_9cytoscnpy6output12print_reportINtNtCs1S013FBku8r_5alloc3vec3VechEECs5uXW1tGmheJ_20entry_point_cli_test
FN:267,_RINvNtCsbhXKu17xbPQ_9cytoscnpy6output13print_secretsINtNtCs1S013FBku8r_5alloc3vec3VechEECs5uXW1tGmheJ_20entry_point_cli_test
FN:233,_RINvNtCsbhXKu17xbPQ_9cytoscnpy6output14print_findingsINtNtCs1S013FBku8r_5alloc3vec3VechEECs5uXW1tGmheJ_20entry_point_cli_test
FN:354,_RINvNtCsbhXKu17xbPQ_9cytoscnpy6output18print_parse_errorsINtNtCs1S013FBku8r_5alloc3vec3VechEECs5uXW1tGmheJ_20entry_point_cli_test
FN:443,_RINvNtCsbhXKu17xbPQ_9cytoscnpy6output18print_report_quietINtNtCs1S013FBku8r_5alloc3vec3VechEECs5uXW1tGmheJ_20entry_point_cli_test
FN:301,_RINvNtCsbhXKu17xbPQ_9cytoscnpy6output18print_unused_itemsINtNtCs1S013FBku8r_5alloc3vec3VechEECs5uXW1tGmheJ_20entry_point_cli_test
FN:125,_RINvNtCsbhXKu17xbPQ_9cytoscnpy6output19print_summary_pillsINtNtCs1S013FBku8r_5alloc3vec3VechEECs5uXW1tGmheJ_20entry_point_cli_test
FN:168,_RINvNtCsbhXKu17xbPQ_9cytoscnpy6output20print_analysis_statsINtNtCs1S013FBku8r_5alloc3vec3VechEECs5uXW1tGmheJ_20entry_point_cli_test
FN:17,_RINvNtCsbhXKu17xbPQ_9cytoscnpy6output20print_exclusion_listINtNtCs1S013FBku8r_5alloc3vec3VechEECs5uXW1tGmheJ_20entry_point_cli_test
FN:99,_RINvNtCsbhXKu17xbPQ_9cytoscnpy6output12print_headerINtNtCs1S013FBku8r_5alloc3vec3VechEECsgmyVQatWe5y_22output_formatting_test
FN:382,_RINvNtCsbhXKu17xbPQ_9cytoscnpy6output12print_reportINtNtCs1S013FBku8r_5alloc3vec3VechEECsgmyVQatWe5y_22output_formatting_test
FN:267,_RINvNtCsbhXKu17xbPQ_9cytoscnpy6output13print_secretsINtNtCs1S013FBku8r_5alloc3vec3VechEECsgmyVQatWe5y_22output_formatting_test
FN:233,_RINvNtCsbhXKu17xbPQ_9cytoscnpy6output14print_findingsINtNtCs1S013FBku8r_5alloc3vec3VechEECsgmyVQatWe5y_22output_formatting_test
FN:354,_RINvNtCsbhXKu17xbPQ_9cytoscnpy6output18print_parse_errorsINtNtCs1S013FBku8r_5alloc3vec3VechEECsgmyVQatWe5y_22output_formatting_test
FN:443,_RINvNtCsbhXKu17xbPQ_9cytoscnpy6output18print_report_quietINtNtCs1S013FBku8r_5alloc3vec3VechEECsgmyVQatWe5y_22output_formatting_test
FN:301,_RINvNtCsbhXKu17xbPQ_9cytoscnpy6output18print_unused_itemsINtNtCs1S013FBku8r_5alloc3vec3VechEECsgmyVQatWe5y_22output_formatting_test
FN:125,_RINvNtCsbhXKu17xbPQ_9cytoscnpy6output19print_summary_pillsINtNtCs1S013FBku8r_5alloc3vec3VechEECsgmyVQatWe5y_22output_formatting_test
FN:168,_RINvNtCsbhXKu17xbPQ_9cytoscnpy6output20print_analysis_statsINtNtCs1S013FBku8r_5alloc3vec3VechEECsgmyVQatWe5y_22output_formatting_test
FN:17,_RINvNtCsbhXKu17xbPQ_9cytoscnpy6output20print_exclusion_listINtNtCs1S013FBku8r_5alloc3vec3VechEECsgmyVQatWe5y_22output_formatting_test
FN:99,_RINvNtCsbhXKu17xbPQ_9cytoscnpy6output12print_headerINtNtCs1S013FBku8r_5alloc3vec3VechEECshcqBm9k1SQG_11output_test
FN:382,_RINvNtCsbhXKu17xbPQ_9cytoscnpy6output12print_reportINtNtCs1S013FBku8r_5alloc3vec3VechEECshcqBm9k1SQG_11output_test
FN:267,_RINvNtCsbhXKu17xbPQ_9cytoscnpy6output13print_secretsINtNtCs1S013FBku8r_5alloc3vec3VechEECshcqBm9k1SQG_11output_test
FN:233,_RINvNtCsbhXKu17xbPQ_9cytoscnpy6output14print_findingsINtNtCs1S013FBku8r_5alloc3vec3VechEECshcqBm9k1SQG_11output_test
FN:354,_RINvNtCsbhXKu17xbPQ_9cytoscnpy6output18print_parse_errorsINtNtCs1S013FBku8r_5alloc3vec3VechEECshcqBm9k1SQG_11output_test
FN:301,_RINvNtCsbhXKu17xbPQ_9cytoscnpy6output18print_unused_itemsINtNtCs1S013FBku8r_5alloc3vec3VechEECshcqBm9k1SQG_11output_test
FN:125,_RINvNtCsbhXKu17xbPQ_9cytoscnpy6output19print_summary_pillsINtNtCs1S013FBku8r_5alloc3vec3VechEECshcqBm9k1SQG_11output_test
FN:168,_RINvNtCsbhXKu17xbPQ_9cytoscnpy6output20print_analysis_statsINtNtCs1S013FBku8r_5alloc3vec3VechEECshcqBm9k1SQG_11output_test
FN:99,_RINvNtCsbhXKu17xbPQ_9cytoscnpy6output12print_headerINtNtCs1S013FBku8r_5alloc3vec3VechEECsdWd4hUIhEqZ_14root_flag_test
FN:382,_RINvNtCsbhXKu17xbPQ_9cytoscnpy6output12print_reportINtNtCs1S013FBku8r_5alloc3vec3VechEECsdWd4hUIhEqZ_14root_flag_test
FN:267,_RINvNtCsbhXKu17xbPQ_9cytoscnpy6output13print_secretsINtNtCs1S013FBku8r_5alloc3vec3VechEECsdWd4hUIhEqZ_14root_flag_test
FN:233,_RINvNtCsbhXKu17xbPQ_9cytoscnpy6output14print_findingsINtNtCs1S013FBku8r_5alloc3vec3VechEECsdWd4hUIhEqZ_14root_flag_test
FN:354,_RINvNtCsbhXKu17xbPQ_9cytoscnpy6output18print_parse_errorsINtNtCs1S013FBku8r_5alloc3vec3VechEECsdWd4hUIhEqZ_14root_flag_test
FN:443,_RINvNtCsbhXKu17xbPQ_9cytoscnpy6output18print_report_quietINtNtCs1S013FBku8r_5alloc3vec3VechEECsdWd4hUIhEqZ_14root_flag_test
FN:301,_RINvNtCsbhXKu17xbPQ_9cytoscnpy6output18print_unused_itemsINtNtCs1S013FBku8r_5alloc3vec3VechEECsdWd4hUIhEqZ_14root_flag_test
FN:125,_RINvNtCsbhXKu17xbPQ_9cytoscnpy6output19print_summary_pillsINtNtCs1S013FBku8r_5alloc3vec3VechEECsdWd4hUIhEqZ_14root_flag_test
FN:168,_RINvNtCsbhXKu17xbPQ_9cytoscnpy6output20print_analysis_statsINtNtCs1S013FBku8r_5alloc3vec3VechEECsdWd4hUIhEqZ_14root_flag_test
FN:17,_RINvNtCsbhXKu17xbPQ_9cytoscnpy6output20print_exclusion_listINtNtCs1S013FBku8r_5alloc3vec3VechEECsdWd4hUIhEqZ_14root_flag_test
FNDA:10,_RNvNtCsbhXKu17xbPQ_9cytoscnpy6output12create_table
FNDA:1,_RNvNtCsbhXKu17xbPQ_9cytoscnpy6output14create_spinner
FNDA:5,_RNvNtCsbhXKu17xbPQ_9cytoscnpy6output18get_severity_color
FNDA:6,_RNvNtCsbhXKu17xbPQ_9cytoscnpy6output19create_progress_bar
FNDA:100,_RNvNvNtCsbhXKu17xbPQ_9cytoscnpy6output19print_summary_pills4pill
FNDA:0,_RINvNtCsbhXKu17xbPQ_9cytoscnpy6output12print_headerNtNtNtCslP1BYCnN0Ot_3std2io5stdio6StdoutEB4_
FNDA:0,_RINvNtCsbhXKu17xbPQ_9cytoscnpy6output12print_reportNtNtNtCslP1BYCnN0Ot_3std2io5stdio6StdoutEB4_
FNDA:0,_RINvNtCsbhXKu17xbPQ_9cytoscnpy6output13print_secretsNtNtNtCslP1BYCnN0Ot_3std2io5stdio6StdoutEB4_
FNDA:0,_RINvNtCsbhXKu17xbPQ_9cytoscnpy6output14print_findingsNtNtNtCslP1BYCnN0Ot_3std2io5stdio6StdoutEB4_
FNDA:0,_RINvNtCsbhXKu17xbPQ_9cytoscnpy6output18print_parse_errorsNtNtNtCslP1BYCnN0Ot_3std2io5stdio6StdoutEB4_
FNDA:0,_RINvNtCsbhXKu17xbPQ_9cytoscnpy6output18print_report_quietNtNtNtCslP1BYCnN0Ot_3std2io5stdio6StdoutEB4_
FNDA:0,_RINvNtCsbhXKu17xbPQ_9cytoscnpy6output18print_unused_itemsNtNtNtCslP1BYCnN0Ot_3std2io5stdio6StdoutEB4_
FNDA:0,_RINvNtCsbhXKu17xbPQ_9cytoscnpy6output19print_summary_pillsNtNtNtCslP1BYCnN0Ot_3std2io5stdio6StdoutEB4_
FNDA:0,_RINvNtCsbhXKu17xbPQ_9cytoscnpy6output20print_analysis_statsNtNtNtCslP1BYCnN0Ot_3std2io5stdio6StdoutEB4_
FNDA:0,_RINvNtCsbhXKu17xbPQ_9cytoscnpy6output20print_exclusion_listNtNtNtCslP1BYCnN0Ot_3std2io5stdio6StdoutEB4_
FNDA:0,_RNCNvNtCsbhXKu17xbPQ_9cytoscnpy6output14create_spinner0B5_
FNDA:0,_RNCNvNtCsbhXKu17xbPQ_9cytoscnpy6output19create_progress_bar0B5_
FNDA:2,_RINvNtCsbhXKu17xbPQ_9cytoscnpy6output12print_headerINtNtCs1S013FBku8r_5alloc3vec3VechEECsk4WInR7jcT_18absolute_path_test
FNDA:2,_RINvNtCsbhXKu17xbPQ_9cytoscnpy6output12print_reportINtNtCs1S013FBku8r_5alloc3vec3VechEECsk4WInR7jcT_18absolute_path_test
FNDA:1,_RINvNtCsbhXKu17xbPQ_9cytoscnpy6output13print_secretsINtNtCs1S013FBku8r_5alloc3vec3VechEECsk4WInR7jcT_18absolute_path_test
FNDA:2,_RINvNtCsbhXKu17xbPQ_9cytoscnpy6output14print_findingsINtNtCs1S013FBku8r_5alloc3vec3VechEECsk4WInR7jcT_18absolute_path_test
FNDA:1,_RINvNtCsbhXKu17xbPQ_9cytoscnpy6output18print_parse_errorsINtNtCs1S013FBku8r_5alloc3vec3VechEECsk4WInR7jcT_18absolute_path_test
FNDA:0,_RINvNtCsbhXKu17xbPQ_9cytoscnpy6output18print_report_quietINtNtCs1S013FBku8r_5alloc3vec3VechEECsk4WInR7jcT_18absolute_path_test
FNDA:6,_RINvNtCsbhXKu17xbPQ_9cytoscnpy6output18print_unused_itemsINtNtCs1S013FBku8r_5alloc3vec3VechEECsk4WInR7jcT_18absolute_path_test
FNDA:2,_RINvNtCsbhXKu17xbPQ_9cytoscnpy6output19print_summary_pillsINtNtCs1S013FBku8r_5alloc3vec3VechEECsk4WInR7jcT_18absolute_path_test
FNDA:2,_RINvNtCsbhXKu17xbPQ_9cytoscnpy6output20print_analysis_statsINtNtCs1S013FBku8r_5alloc3vec3VechEECsk4WInR7jcT_18absolute_path_test
FNDA:2,_RINvNtCsbhXKu17xbPQ_9cytoscnpy6output20print_exclusion_listINtNtCs1S013FBku8r_5alloc3vec3VechEECsk4WInR7jcT_18absolute_path_test
FNDA:0,_RNvNtCs2Eyh5DnjbiX_9cytoscnpy6output12create_table
FNDA:0,_RNvNtCs2Eyh5DnjbiX_9cytoscnpy6output14create_spinner
FNDA:0,_RNvNtCs2Eyh5DnjbiX_9cytoscnpy6output18get_severity_color
FNDA:0,_RNvNtCs2Eyh5DnjbiX_9cytoscnpy6output19create_progress_bar
FNDA:0,_RNvNvNtCs2Eyh5DnjbiX_9cytoscnpy6output19print_summary_pills4pill
FNDA:0,_RNCNvNtCs2Eyh5DnjbiX_9cytoscnpy6output14create_spinner0B5_
FNDA:0,_RNCNvNtCs2Eyh5DnjbiX_9cytoscnpy6output19create_progress_bar0B5_
FNDA:0,_RINvNtCs2Eyh5DnjbiX_9cytoscnpy6output12print_headerNtNtNtCslP1BYCnN0Ot_3std2io5stdio6StdoutEB4_
FNDA:0,_RINvNtCs2Eyh5DnjbiX_9cytoscnpy6output12print_reportNtNtNtCslP1BYCnN0Ot_3std2io5stdio6StdoutEB4_
FNDA:0,_RINvNtCs2Eyh5DnjbiX_9cytoscnpy6output13print_secretsNtNtNtCslP1BYCnN0Ot_3std2io5stdio6StdoutEB4_
FNDA:0,_RINvNtCs2Eyh5DnjbiX_9cytoscnpy6output14print_findingsNtNtNtCslP1BYCnN0Ot_3std2io5stdio6StdoutEB4_
FNDA:0,_RINvNtCs2Eyh5DnjbiX_9cytoscnpy6output18print_parse_errorsNtNtNtCslP1BYCnN0Ot_3std2io5stdio6StdoutEB4_
FNDA:0,_RINvNtCs2Eyh5DnjbiX_9cytoscnpy6output18print_report_quietNtNtNtCslP1BYCnN0Ot_3std2io5stdio6StdoutEB4_
FNDA:0,_RINvNtCs2Eyh5DnjbiX_9cytoscnpy6output18print_unused_itemsNtNtNtCslP1BYCnN0Ot_3std2io5stdio6StdoutEB4_
FNDA:0,_RINvNtCs2Eyh5DnjbiX_9cytoscnpy6output19print_summary_pillsNtNtNtCslP1BYCnN0Ot_3std2io5stdio6StdoutEB4_
FNDA:0,_RINvNtCs2Eyh5DnjbiX_9cytoscnpy6output20print_analysis_statsNtNtNtCslP1BYCnN0Ot_3std2io5stdio6StdoutEB4_
FNDA:0,_RINvNtCs2Eyh5DnjbiX_9cytoscnpy6output20print_exclusion_listNtNtNtCslP1BYCnN0Ot_3std2io5stdio6StdoutEB4_
FNDA:3,_RINvNtCsbhXKu17xbPQ_9cytoscnpy6output12print_headerINtNtCs1S013FBku8r_5alloc3vec3VechEECs5uXW1tGmheJ_20entry_point_cli_test
FNDA:3,_RINvNtCsbhXKu17xbPQ_9cytoscnpy6output12print_reportINtNtCs1S013FBku8r_5alloc3vec3VechEECs5uXW1tGmheJ_20entry_point_cli_test
FNDA:1,_RINvNtCsbhXKu17xbPQ_9cytoscnpy6output13print_secretsINtNtCs1S013FBku8r_5alloc3vec3VechEECs5uXW1tGmheJ_20entry_point_cli_test
FNDA:2,_RINvNtCsbhXKu17xbPQ_9cytoscnpy6output14print_findingsINtNtCs1S013FBku8r_5alloc3vec3VechEECs5uXW1tGmheJ_20entry_point_cli_test
FNDA:1,_RINvNtCsbhXKu17xbPQ_9cytoscnpy6output18print_parse_errorsINtNtCs1S013FBku8r_5alloc3vec3VechEECs5uXW1tGmheJ_20entry_point_cli_test
FNDA:0,_RINvNtCsbhXKu17xbPQ_9cytoscnpy6output18print_report_quietINtNtCs1S013FBku8r_5alloc3vec3VechEECs5uXW1tGmheJ_20entry_point_cli_test
FNDA:6,_RINvNtCsbhXKu17xbPQ_9cytoscnpy6output18print_unused_itemsINtNtCs1S013FBku8r_5alloc3vec3VechEECs5uXW1tGmheJ_20entry_point_cli_test
FNDA:3,_RINvNtCsbhXKu17xbPQ_9cytoscnpy6output19print_summary_pillsINtNtCs1S013FBku8r_5alloc3vec3VechEECs5uXW1tGmheJ_20entry_point_cli_test
FNDA:3,_RINvNtCsbhXKu17xbPQ_9cytoscnpy6output20print_analysis_statsINtNtCs1S013FBku8r_5alloc3vec3VechEECs5uXW1tGmheJ_20entry_point_cli_test
FNDA:3,_RINvNtCsbhXKu17xbPQ_9cytoscnpy6output20print_exclusion_listINtNtCs1S013FBku8r_5alloc3vec3VechEECs5uXW1tGmheJ_20entry_point_cli_test
FNDA:3,_RINvNtCsbhXKu17xbPQ_9cytoscnpy6output12print_headerINtNtCs1S013FBku8r_5alloc3vec3VechEECsgmyVQatWe5y_22output_formatting_test
FNDA:2,_RINvNtCsbhXKu17xbPQ_9cytoscnpy6output12print_reportINtNtCs1S013FBku8r_5alloc3vec3VechEECsgmyVQatWe5y_22output_formatting_test
FNDA:1,_RINvNtCsbhXKu17xbPQ_9cytoscnpy6output13print_secretsINtNtCs1S013FBku8r_5alloc3vec3VechEECsgmyVQatWe5y_22output_formatting_test
FNDA:4,_RINvNtCsbhXKu17xbPQ_9cytoscnpy6output14print_findingsINtNtCs1S013FBku8r_5alloc3vec3VechEECsgmyVQatWe5y_22output_formatting_test
FNDA:3,_RINvNtCsbhXKu17xbPQ_9cytoscnpy6output18print_parse_errorsINtNtCs1S013FBku8r_5alloc3vec3VechEECsgmyVQatWe5y_22output_formatting_test
FNDA:1,_RINvNtCsbhXKu17xbPQ_9cytoscnpy6output18print_report_quietINtNtCs1S013FBku8r_5alloc3vec3VechEECsgmyVQatWe5y_22output_formatting_test
FNDA:9,_RINvNtCsbhXKu17xbPQ_9cytoscnpy6output18print_unused_itemsINtNtCs1S013FBku8r_5alloc3vec3VechEECsgmyVQatWe5y_22output_formatting_test
FNDA:4,_RINvNtCsbhXKu17xbPQ_9cytoscnpy6output19print_summary_pillsINtNtCs1S013FBku8r_5alloc3vec3VechEECsgmyVQatWe5y_22output_formatting_test
FNDA:5,_RINvNtCsbhXKu17xbPQ_9cytoscnpy6output20print_analysis_statsINtNtCs1S013FBku8r_5alloc3vec3VechEECsgmyVQatWe5y_22output_formatting_test
FNDA:2,_RINvNtCsbhXKu17xbPQ_9cytoscnpy6output20print_exclusion_listINtNtCs1S013FBku8r_5alloc3vec3VechEECsgmyVQatWe5y_22output_formatting_test
FNDA:1,_RINvNtCsbhXKu17xbPQ_9cytoscnpy6output12print_headerINtNtCs1S013FBku8r_5alloc3vec3VechEECshcqBm9k1SQG_11output_test
FNDA:1,_RINvNtCsbhXKu17xbPQ_9cytoscnpy6output12print_reportINtNtCs1S013FBku8r_5alloc3vec3VechEECshcqBm9k1SQG_11output_test
FNDA:1,_RINvNtCsbhXKu17xbPQ_9cytoscnpy6output13print_secretsINtNtCs1S013FBku8r_5alloc3vec3VechEECshcqBm9k1SQG_11output_test
FNDA:2,_RINvNtCsbhXKu17xbPQ_9cytoscnpy6output14print_findingsINtNtCs1S013FBku8r_5alloc3vec3VechEECshcqBm9k1SQG_11output_test
FNDA:1,_RINvNtCsbhXKu17xbPQ_9cytoscnpy6output18print_parse_errorsINtNtCs1S013FBku8r_5alloc3vec3VechEECshcqBm9k1SQG_11output_test
FNDA:6,_RINvNtCsbhXKu17xbPQ_9cytoscnpy6output18print_unused_itemsINtNtCs1S013FBku8r_5alloc3vec3VechEECshcqBm9k1SQG_11output_test
FNDA:1,_RINvNtCsbhXKu17xbPQ_9cytoscnpy6output19print_summary_pillsINtNtCs1S013FBku8r_5alloc3vec3VechEECshcqBm9k1SQG_11output_test
FNDA:1,_RINvNtCsbhXKu17xbPQ_9cytoscnpy6output20print_analysis_statsINtNtCs1S013FBku8r_5alloc3vec3VechEECshcqBm9k1SQG_11output_test
FNDA:0,_RINvNtCsbhXKu17xbPQ_9cytoscnpy6output12print_headerINtNtCs1S013FBku8r_5alloc3vec3VechEECsdWd4hUIhEqZ_14root_flag_test
FNDA:0,_RINvNtCsbhXKu17xbPQ_9cytoscnpy6output12print_reportINtNtCs1S013FBku8r_5alloc3vec3VechEECsdWd4hUIhEqZ_14root_flag_test
FNDA:0,_RINvNtCsbhXKu17xbPQ_9cytoscnpy6output13print_secretsINtNtCs1S013FBku8r_5alloc3vec3VechEECsdWd4hUIhEqZ_14root_flag_test
FNDA:0,_RINvNtCsbhXKu17xbPQ_9cytoscnpy6output14print_findingsINtNtCs1S013FBku8r_5alloc3vec3VechEECsdWd4hUIhEqZ_14root_flag_test
FNDA:0,_RINvNtCsbhXKu17xbPQ_9cytoscnpy6output18print_parse_errorsINtNtCs1S013FBku8r_5alloc3vec3VechEECsdWd4hUIhEqZ_14root_flag_test
FNDA:0,_RINvNtCsbhXKu17xbPQ_9cytoscnpy6output18print_report_quietINtNtCs1S013FBku8r_5alloc3vec3VechEECsdWd4hUIhEqZ_14root_flag_test
FNDA:0,_RINvNtCsbhXKu17xbPQ_9cytoscnpy6output18print_unused_itemsINtNtCs1S013FBku8r_5alloc3vec3VechEECsdWd4hUIhEqZ_14root_flag_test
FNDA:0,_RINvNtCsbhXKu17xbPQ_9cytoscnpy6output19print_summary_pillsINtNtCs1S013FBku8r_5alloc3vec3VechEECsdWd4hUIhEqZ_14root_flag_test
FNDA:0,_RINvNtCsbhXKu17xbPQ_9cytoscnpy6output20print_analysis_statsINtNtCs1S013FBku8r_5alloc3vec3VechEECsdWd4hUIhEqZ_14root_flag_test
FNDA:0,_RINvNtCsbhXKu17xbPQ_9cytoscnpy6output20print_exclusion_listINtNtCs1S013FBku8r_5alloc3vec3VechEECsdWd4hUIhEqZ_14root_flag_test
FNF:17
FNH:15
DA:17,7
DA:18,7
DA:19,6
DA:20,6
DA:21,6
DA:22,6
DA:23,6
DA:24,6
DA:25,6
DA:26,6
DA:27,6
DA:28,0
DA:30,1
DA:31,1
DA:32,1
DA:33,1
DA:34,1
DA:35,1
DA:37,7
DA:38,7
DA:48,1
DA:50,1
DA:51,0
DA:52,1
DA:54,1
DA:55,1
DA:56,1
DA:57,1
DA:58,1
DA:59,1
DA:61,1
DA:62,1
DA:63,1
DA:64,1
DA:74,6
DA:76,6
DA:77,0
DA:78,6
DA:80,6
DA:81,6
DA:82,6
DA:83,6
DA:84,6
DA:85,6
DA:86,6
DA:88,6
DA:89,6
DA:90,6
DA:91,6
DA:92,6
DA:99,9
DA:100,9
DA:101,9
DA:102,9
DA:103,9
DA:104,9
DA:105,0
DA:106,9
DA:107,9
DA:108,9
DA:109,9
DA:110,0
DA:111,9
DA:112,9
DA:113,9
DA:114,9
DA:115,0
DA:116,9
DA:117,9
DA:118,9
DA:125,10
DA:126,10
DA:127,10
DA:128,10
DA:129,100
DA:130,100
DA:131,90
DA:133,10
DA:135,100
DA:138,10
DA:139,10
DA:140,10
DA:141,10
DA:142,10
DA:143,10
DA:144,10
DA:145,10
DA:146,10
DA:147,0
DA:150,10
DA:151,10
DA:152,10
DA:153,10
DA:154,10
DA:155,10
DA:156,10
DA:157,0
DA:159,10
DA:160,10
DA:161,10
DA:168,11
DA:169,11
DA:170,11
DA:171,11
DA:172,11
DA:173,11
DA:174,11
DA:175,11
DA:176,11
DA:177,11
DA:178,11
DA:179,11
DA:180,11
DA:181,0
DA:183,11
DA:184,6
DA:185,1
DA:187,5
DA:189,6
DA:190,1
DA:192,5
DA:195,6
DA:196,6
DA:197,6
DA:198,6
DA:199,6
DA:200,6
DA:201,6
DA:202,0
DA:203,5
DA:204,11
DA:205,11
DA:206,11
DA:209,10
DA:210,10
DA:211,10
DA:212,10
DA:213,10
DA:214,10
DA:215,10
DA:216,10
DA:219,5
DA:220,5
DA:221,5
DA:222,3
DA:223,2
DA:224,0
DA:226,5
DA:233,10
DA:234,10
DA:235,10
DA:236,10
DA:237,10
DA:238,10
DA:239,6
DA:240,4
DA:242,4
DA:244,4
DA:246,9
DA:247,5
DA:248,5
DA:249,5
DA:250,5
DA:251,5
DA:252,5
DA:253,5
DA:254,5
DA:255,5
DA:256,5
DA:258,4
DA:259,4
DA:260,10
DA:267,4
DA:268,4
DA:269,4
DA:270,4
DA:271,4
DA:272,4
DA:273,4
DA:274,0
DA:276,0
DA:278,0
DA:280,0
DA:281,0
DA:282,0
DA:283,0
DA:284,0
DA:285,0
DA:286,0
DA:287,0
DA:288,0
DA:289,0
DA:290,0
DA:292,0
DA:293,0
DA:294,4
DA:301,27
DA:302,27
DA:303,27
DA:304,27
DA:305,27
DA:306,27
DA:307,27
DA:308,22
DA:309,5
DA:311,5
DA:313,5
DA:315,10
DA:316,5
DA:319,1
DA:320,1
DA:322,1
DA:323,1
DA:324,1
DA:325,1
DA:326,1
DA:327,1
DA:328,1
DA:329,1
DA:330,1
DA:333,4
DA:336,5
DA:338,5
DA:339,5
DA:340,5
DA:341,5
DA:345,5
DA:346,5
DA:347,27
DA:354,6
DA:355,6
DA:356,6
DA:357,6
DA:358,6
DA:359,5
DA:360,1
DA:362,1
DA:364,1
DA:366,2
DA:367,1
DA:368,1
DA:369,1
DA:370,1
DA:371,1
DA:373,1
DA:374,1
DA:375,6
DA:382,8
DA:383,8
DA:384,8
DA:385,8
DA:386,8
DA:389,8
DA:390,8
DA:391,8
DA:392,8
DA:393,8
DA:394,8
DA:395,8
DA:396,8
DA:397,8
DA:398,8
DA:400,8
DA:401,4
DA:402,4
DA:403,4
DA:406,4
DA:407,4
DA:408,4
DA:409,4
DA:410,4
DA:411,0
DA:412,4
DA:413,4
DA:414,4
DA:415,4
DA:416,4
DA:417,4
DA:418,4
DA:419,0
DA:420,4
DA:421,4
DA:422,4
DA:423,4
DA:424,4
DA:425,4
DA:426,0
DA:428,4
DA:429,4
DA:430,4
DA:431,4
DA:435,4
DA:436,8
DA:443,1
DA:444,1
DA:445,1
DA:446,1
DA:449,1
DA:450,1
DA:451,1
DA:452,1
DA:453,1
DA:454,1
DA:455,1
DA:456,1
DA:457,1
DA:458,1
DA:459,0
DA:461,1
DA:462,1
BRF:0
BRH:0
LF:312
LH:279
end_of_record
SF:E:\Github\CytoScnPy\cytoscnpy\src\python_bindings.rs
FN:41,_RNCNCNvNtCsbhXKu17xbPQ_9cytoscnpy15python_bindings3runs_00B7_
FN:34,_RNCNvNtCsbhXKu17xbPQ_9cytoscnpy15python_bindings3run0B5_
FN:39,_RNCNvNtCsbhXKu17xbPQ_9cytoscnpy15python_bindings3runs_0B5_
FN:58,_RNvNtCsbhXKu17xbPQ_9cytoscnpy15python_bindings18register_functions
FN:28,_RNvNtCsbhXKu17xbPQ_9cytoscnpy15python_bindings3run
FN:58,_RNvNtCs2Eyh5DnjbiX_9cytoscnpy15python_bindings18register_functions
FN:28,_RNvNtCs2Eyh5DnjbiX_9cytoscnpy15python_bindings3run
FN:41,_RNCNCNvNtCs2Eyh5DnjbiX_9cytoscnpy15python_bindings3runs_00B7_
FN:34,_RNCNvNtCs2Eyh5DnjbiX_9cytoscnpy15python_bindings3run0B5_
FN:39,_RNCNvNtCs2Eyh5DnjbiX_9cytoscnpy15python_bindings3runs_0B5_
FNDA:0,_RNCNCNvNtCsbhXKu17xbPQ_9cytoscnpy15python_bindings3runs_00B7_
FNDA:0,_RNCNvNtCsbhXKu17xbPQ_9cytoscnpy15python_bindings3run0B5_
FNDA:0,_RNCNvNtCsbhXKu17xbPQ_9cytoscnpy15python_bindings3runs_0B5_
FNDA:0,_RNvNtCsbhXKu17xbPQ_9cytoscnpy15python_bindings18register_functions
FNDA:0,_RNvNtCsbhXKu17xbPQ_9cytoscnpy15python_bindings3run
FNDA:0,_RNvNtCs2Eyh5DnjbiX_9cytoscnpy15python_bindings18register_functions
FNDA:0,_RNvNtCs2Eyh5DnjbiX_9cytoscnpy15python_bindings3run
FNDA:0,_RNCNCNvNtCs2Eyh5DnjbiX_9cytoscnpy15python_bindings3runs_00B7_
FNDA:0,_RNCNvNtCs2Eyh5DnjbiX_9cytoscnpy15python_bindings3run0B5_
FNDA:0,_RNCNvNtCs2Eyh5DnjbiX_9cytoscnpy15python_bindings3runs_0B5_
FNF:5
FNH:0
DA:28,0
DA:30,0
DA:34,0
DA:35,0
DA:36,0
DA:39,0
DA:40,0
DA:41,0
DA:42,0
DA:45,0
DA:46,0
DA:47,0
DA:48,0
DA:49,0
DA:51,0
DA:52,0
DA:58,0
DA:59,0
DA:60,0
DA:61,0
BRF:0
BRH:0
LF:23
LH:0
end_of_record
SF:E:\Github\CytoScnPy\cytoscnpy\src\raw_metrics.rs
FN:58,_RNvNtCsbhXKu17xbPQ_9cytoscnpy11raw_metrics11analyze_raw
FN:33,_RNvXNtCsbhXKu17xbPQ_9cytoscnpy11raw_metricsNtB2_15StringCollectorNtNtCs8PIGe9Luacy_15ruff_python_ast7visitor7Visitor10visit_expr
FN:58,_RNvNtCs2Eyh5DnjbiX_9cytoscnpy11raw_metrics11analyze_raw
FN:33,_RNvXNtCs2Eyh5DnjbiX_9cytoscnpy11raw_metricsNtB2_15StringCollectorNtNtCs8PIGe9Luacy_15ruff_python_ast7visitor7Visitor10visit_expr
FNDA:100,_RNvNtCsbhXKu17xbPQ_9cytoscnpy11raw_metrics11analyze_raw
FNDA:881,_RNvXNtCsbhXKu17xbPQ_9cytoscnpy11raw_metricsNtB2_15StringCollectorNtNtCs8PIGe9Luacy_15ruff_python_ast7visitor7Visitor10visit_expr
FNDA:0,_RNvNtCs2Eyh5DnjbiX_9cytoscnpy11raw_metrics11analyze_raw
FNDA:0,_RNvXNtCs2Eyh5DnjbiX_9cytoscnpy11raw_metricsNtB2_15StringCollectorNtNtCs8PIGe9Luacy_15ruff_python_ast7visitor7Visitor10visit_expr
FNF:2
FNH:2
DA:33,881
DA:34,881
DA:35,47
DA:36,47
DA:37,47
DA:38,47
DA:39,47
DA:40,0
DA:41,0
DA:42,0
DA:43,0
DA:44,0
DA:45,2
DA:46,2
DA:47,2
DA:48,2
DA:49,2
DA:50,832
DA:52,881
DA:53,881
DA:58,100
DA:59,100
DA:61,100
DA:62,100
DA:63,81
DA:64,81
DA:65,100
DA:67,100
DA:70,1761
DA:71,1761
DA:72,554
DA:73,554
DA:74,1207
DA:78,100
DA:79,100
DA:80,98
DA:81,98
DA:82,625
DA:83,527
DA:84,527
DA:85,98
DA:86,2
DA:88,100
DA:90,149
DA:91,49
DA:92,49
DA:94,49
DA:95,49
DA:98,49
DA:100,82
DA:101,25
DA:102,25
DA:103,25
DA:105,82
DA:106,81
DA:107,81
DA:109,24
DA:113,100
DA:116,1680
DA:117,1680
DA:118,1680
DA:119,1680
DA:120,1680
DA:122,1680
DA:124,1680
DA:125,0
DA:126,1680
DA:128,1680
DA:129,473
DA:130,1207
DA:132,1207
DA:133,33
DA:136,33
DA:137,61
DA:138,29
DA:139,1
DA:140,1
DA:141,28
DA:144,33
DA:146,32
DA:147,32
DA:148,24
DA:149,24
DA:150,24
DA:151,8
DA:152,8
DA:153,8
DA:154,1
DA:155,1174
DA:159,100
DA:160,100
DA:161,100
DA:163,1761
DA:164,1761
DA:165,81
DA:166,24
DA:167,24
DA:168,24
DA:169,24
DA:170,1102
DA:171,554
DA:176,100
DA:178,100
DA:179,100
BRF:0
BRH:0
LF:104
LH:98
end_of_record
SF:E:\Github\CytoScnPy\cytoscnpy\src\report\generator.rs
FN:203,_RNCNCNvNtNtCsbhXKu17xbPQ_9cytoscnpy6report9generator15generate_reports0_00B9_
FN:494,_RNCNvNtNtCsbhXKu17xbPQ_9cytoscnpy6report9generator14flatten_issues0B7_
FN:266,_RNCNvNtNtCsbhXKu17xbPQ_9cytoscnpy6report9generator15calculate_score0B7_
FN:400,_RNCNvNtNtCsbhXKu17xbPQ_9cytoscnpy6report9generator15calculate_scores_0B7_
FN:47,_RNCNvNtNtCsbhXKu17xbPQ_9cytoscnpy6report9generator15generate_report0B7_
FN:191,_RNCNvNtNtCsbhXKu17xbPQ_9cytoscnpy6report9generator15generate_reports0_0B7_
FN:640,_RNCNvNtNtCsbhXKu17xbPQ_9cytoscnpy6report9generator19generate_file_views0B7_
FN:602,_RNvNtNtCsbhXKu17xbPQ_9cytoscnpy6report9generator12write_assets
FN:490,_RNvNtNtCsbhXKu17xbPQ_9cytoscnpy6report9generator14flatten_issues
FN:240,_RNvNtNtCsbhXKu17xbPQ_9cytoscnpy6report9generator15calculate_score
FN:26,_RNvNtNtCsbhXKu17xbPQ_9cytoscnpy6report9generator15generate_report
FN:587,_RNvNtNtCsbhXKu17xbPQ_9cytoscnpy6report9generator16segregate_issues
FN:615,_RNvNtNtCsbhXKu17xbPQ_9cytoscnpy6report9generator19generate_file_views
FN:602,_RNvNtNtCs2Eyh5DnjbiX_9cytoscnpy6report9generator12write_assets
FN:490,_RNvNtNtCs2Eyh5DnjbiX_9cytoscnpy6report9generator14flatten_issues
FN:240,_RNvNtNtCs2Eyh5DnjbiX_9cytoscnpy6report9generator15calculate_score
FN:26,_RNvNtNtCs2Eyh5DnjbiX_9cytoscnpy6report9generator15generate_report
FN:587,_RNvNtNtCs2Eyh5DnjbiX_9cytoscnpy6report9generator16segregate_issues
FN:615,_RNvNtNtCs2Eyh5DnjbiX_9cytoscnpy6report9generator19generate_file_views
FN:203,_RNCNCNvNtNtCs2Eyh5DnjbiX_9cytoscnpy6report9generator15generate_reports0_00B9_
FN:494,_RNCNvNtNtCs2Eyh5DnjbiX_9cytoscnpy6report9generator14flatten_issues0B7_
FN:266,_RNCNvNtNtCs2Eyh5DnjbiX_9cytoscnpy6report9generator15calculate_score0B7_
FN:400,_RNCNvNtNtCs2Eyh5DnjbiX_9cytoscnpy6report9generator15calculate_scores_0B7_
FN:47,_RNCNvNtNtCs2Eyh5DnjbiX_9cytoscnpy6report9generator15generate_report0B7_
FN:191,_RNCNvNtNtCs2Eyh5DnjbiX_9cytoscnpy6report9generator15generate_reports0_0B7_
FN:640,_RNCNvNtNtCs2Eyh5DnjbiX_9cytoscnpy6report9generator19generate_file_views0B7_
FNDA:0,_RNCNCNvNtNtCsbhXKu17xbPQ_9cytoscnpy6report9generator15generate_reports0_00B9_
FNDA:58,_RNCNvNtNtCsbhXKu17xbPQ_9cytoscnpy6report9generator14flatten_issues0B7_
FNDA:2,_RNCNvNtNtCsbhXKu17xbPQ_9cytoscnpy6report9generator15calculate_score0B7_
FNDA:20,_RNCNvNtNtCsbhXKu17xbPQ_9cytoscnpy6report9generator15calculate_scores_0B7_
FNDA:2,_RNCNvNtNtCsbhXKu17xbPQ_9cytoscnpy6report9generator15generate_report0B7_
FNDA:0,_RNCNvNtNtCsbhXKu17xbPQ_9cytoscnpy6report9generator15generate_reports0_0B7_
FNDA:8,_RNCNvNtNtCsbhXKu17xbPQ_9cytoscnpy6report9generator19generate_file_views0B7_
FNDA:4,_RNvNtNtCsbhXKu17xbPQ_9cytoscnpy6report9generator12write_assets
FNDA:4,_RNvNtNtCsbhXKu17xbPQ_9cytoscnpy6report9generator14flatten_issues
FNDA:4,_RNvNtNtCsbhXKu17xbPQ_9cytoscnpy6report9generator15calculate_score
FNDA:4,_RNvNtNtCsbhXKu17xbPQ_9cytoscnpy6report9generator15generate_report
FNDA:4,_RNvNtNtCsbhXKu17xbPQ_9cytoscnpy6report9generator16segregate_issues
FNDA:4,_RNvNtNtCsbhXKu17xbPQ_9cytoscnpy6report9generator19generate_file_views
FNDA:0,_RNvNtNtCs2Eyh5DnjbiX_9cytoscnpy6report9generator12write_assets
FNDA:0,_RNvNtNtCs2Eyh5DnjbiX_9cytoscnpy6report9generator14flatten_issues
FNDA:0,_RNvNtNtCs2Eyh5DnjbiX_9cytoscnpy6report9generator15calculate_score
FNDA:0,_RNvNtNtCs2Eyh5DnjbiX_9cytoscnpy6report9generator15generate_report
FNDA:0,_RNvNtNtCs2Eyh5DnjbiX_9cytoscnpy6report9generator16segregate_issues
FNDA:0,_RNvNtNtCs2Eyh5DnjbiX_9cytoscnpy6report9generator19generate_file_views
FNDA:0,_RNCNCNvNtNtCs2Eyh5DnjbiX_9cytoscnpy6report9generator15generate_reports0_00B9_
FNDA:0,_RNCNvNtNtCs2Eyh5DnjbiX_9cytoscnpy6report9generator14flatten_issues0B7_
FNDA:0,_RNCNvNtNtCs2Eyh5DnjbiX_9cytoscnpy6report9generator15calculate_score0B7_
FNDA:0,_RNCNvNtNtCs2Eyh5DnjbiX_9cytoscnpy6report9generator15calculate_scores_0B7_
FNDA:0,_RNCNvNtNtCs2Eyh5DnjbiX_9cytoscnpy6report9generator15generate_report0B7_
FNDA:0,_RNCNvNtNtCs2Eyh5DnjbiX_9cytoscnpy6report9generator15generate_reports0_0B7_
FNDA:0,_RNCNvNtNtCs2Eyh5DnjbiX_9cytoscnpy6report9generator19generate_file_views0B7_
FNF:13
FNH:11
DA:26,4
DA:27,4
DA:29,4
DA:30,1
DA:31,3
DA:34,4
DA:37,4
DA:38,4
DA:40,4
DA:43,4
DA:44,4
DA:45,4
DA:46,4
DA:47,2
DA:48,2
DA:49,2
DA:50,2
DA:51,2
DA:52,2
DA:53,2
DA:54,2
DA:55,2
DA:57,2
DA:58,4
DA:60,4
DA:61,4
DA:63,0
DA:66,4
DA:67,3
DA:69,1
DA:72,4
DA:73,1
DA:75,3
DA:80,4
DA:81,4
DA:83,4
DA:84,4
DA:85,4
DA:86,4
DA:88,4
DA:89,4
DA:91,0
DA:93,4
DA:94,4
DA:95,0
DA:96,0
DA:97,0
DA:98,0
DA:100,0
DA:102,4
DA:103,4
DA:104,0
DA:105,0
DA:106,0
DA:107,0
DA:109,0
DA:111,4
DA:112,4
DA:113,0
DA:114,0
DA:115,0
DA:116,0
DA:118,0
DA:121,4
DA:122,4
DA:123,4
DA:124,4
DA:125,4
DA:126,4
DA:127,4
DA:128,4
DA:129,4
DA:130,4
DA:131,4
DA:132,4
DA:133,4
DA:134,4
DA:135,4
DA:136,4
DA:137,4
DA:138,4
DA:139,4
DA:140,4
DA:141,4
DA:142,4
DA:143,4
DA:144,4
DA:145,4
DA:146,4
DA:147,4
DA:148,4
DA:149,4
DA:150,4
DA:151,4
DA:152,4
DA:153,4
DA:154,4
DA:155,4
DA:156,4
DA:157,4
DA:158,4
DA:159,4
DA:160,4
DA:161,4
DA:164,4
DA:165,4
DA:166,4
DA:167,4
DA:168,4
DA:169,4
DA:170,4
DA:171,4
DA:172,4
DA:173,4
DA:176,4
DA:177,4
DA:178,4
DA:179,4
DA:180,4
DA:181,4
DA:182,4
DA:183,4
DA:184,4
DA:187,4
DA:188,4
DA:189,4
DA:190,4
DA:191,4
DA:192,0
DA:193,0
DA:194,0
DA:195,0
DA:196,0
DA:197,0
DA:198,0
DA:201,0
DA:202,0
DA:203,0
DA:204,0
DA:205,0
DA:206,0
DA:207,0
DA:208,0
DA:209,0
DA:211,0
DA:212,4
DA:214,4
DA:215,4
DA:216,4
DA:217,4
DA:218,4
DA:219,4
DA:220,4
DA:223,4
DA:226,4
DA:228,4
DA:229,4
DA:240,4
DA:243,4
DA:246,6
DA:253,2
DA:254,1
DA:255,1
DA:259,9
DA:260,5
DA:262,2
DA:263,2
DA:264,2
DA:265,2
DA:266,2
DA:268,2
DA:269,2
DA:270,2
DA:271,0
DA:272,0
DA:273,0
DA:274,3
DA:275,5
DA:276,5
DA:277,0
DA:278,0
DA:279,5
DA:280,5
DA:281,1
DA:282,1
DA:283,4
DA:286,4
DA:290,4
DA:292,4
DA:293,4
DA:294,4
DA:295,4
DA:296,4
DA:297,4
DA:300,4
DA:303,4
DA:304,0
DA:305,0
DA:306,0
DA:310,4
DA:314,4
DA:316,9
DA:317,5
DA:318,5
DA:319,5
DA:320,5
DA:321,4
DA:322,4
DA:323,1
DA:324,1
DA:325,4
DA:328,4
DA:332,4
DA:335,5
DA:336,1
DA:337,1
DA:339,4
DA:340,0
DA:341,0
DA:342,4
DA:343,0
DA:344,0
DA:354,4
DA:356,9
DA:358,5
DA:359,5
DA:360,3
DA:361,3
DA:362,2
DA:363,2
DA:364,2
DA:365,1
DA:366,1
DA:367,1
DA:368,1
DA:369,4
DA:372,4
DA:375,4
DA:376,4
DA:377,4
DA:378,4
DA:379,4
DA:383,4
DA:384,4
DA:385,4
DA:386,4
DA:387,4
DA:389,4
DA:391,4
DA:392,2
DA:393,2
DA:394,0
DA:395,0
DA:396,0
DA:398,4
DA:400,20
DA:401,20
DA:402,20
DA:403,3
DA:404,2
DA:405,1
DA:406,1
DA:408,20
DA:410,4
DA:411,3
DA:412,1
DA:413,0
DA:414,0
DA:417,4
DA:418,3
DA:419,0
DA:420,0
DA:421,1
DA:424,4
DA:425,3
DA:426,0
DA:427,1
DA:428,0
DA:431,4
DA:432,4
DA:433,0
DA:434,0
DA:435,0
DA:438,4
DA:439,4
DA:440,0
DA:441,0
DA:442,0
DA:445,4
DA:446,4
DA:447,4
DA:448,4
DA:449,4
DA:450,4
DA:451,4
DA:452,4
DA:453,4
DA:454,4
DA:455,4
DA:456,4
DA:457,4
DA:458,4
DA:459,4
DA:460,4
DA:461,4
DA:462,4
DA:463,4
DA:464,4
DA:465,4
DA:466,4
DA:467,4
DA:468,4
DA:469,4
DA:470,4
DA:471,4
DA:472,4
DA:473,4
DA:474,4
DA:475,4
DA:476,4
DA:477,4
DA:478,4
DA:479,4
DA:480,4
DA:481,4
DA:482,4
DA:483,4
DA:484,4
DA:485,4
DA:486,4
DA:487,4
DA:488,4
DA:490,4
DA:491,4
DA:494,58
DA:495,58
DA:496,58
DA:498,58
DA:499,58
DA:500,58
DA:501,58
DA:502,58
DA:503,58
DA:504,58
DA:505,58
DA:506,58
DA:507,58
DA:509,56
DA:510,52
DA:511,52
DA:512,52
DA:513,52
DA:514,52
DA:515,52
DA:516,52
DA:517,52
DA:518,4
DA:519,0
DA:520,0
DA:521,0
DA:522,0
DA:523,0
DA:524,0
DA:525,0
DA:526,0
DA:527,4
DA:528,0
DA:529,0
DA:530,0
DA:531,0
DA:532,0
DA:533,0
DA:534,0
DA:535,0
DA:537,5
DA:538,1
DA:539,1
DA:540,1
DA:541,1
DA:542,1
DA:543,1
DA:544,1
DA:545,1
DA:546,4
DA:547,0
DA:548,0
DA:549,0
DA:550,0
DA:551,0
DA:552,0
DA:553,0
DA:554,0
DA:555,4
DA:556,0
DA:557,0
DA:558,0
DA:559,0
DA:560,0
DA:561,0
DA:562,0
DA:563,0
DA:565,9
DA:566,5
DA:567,5
DA:568,5
DA:569,5
DA:570,5
DA:571,5
DA:572,5
DA:573,5
DA:574,4
DA:575,0
DA:576,0
DA:577,0
DA:578,0
DA:579,0
DA:580,0
DA:581,0
DA:582,0
DA:584,4
DA:585,4
DA:587,4
DA:588,4
DA:589,4
DA:590,4
DA:592,62
DA:593,58
DA:594,58
DA:595,6
DA:596,5
DA:599,4
DA:600,4
DA:602,4
DA:604,4
DA:605,4
DA:607,4
DA:608,4
DA:609,4
DA:610,4
DA:612,4
DA:613,4
DA:615,4
DA:616,4
DA:617,4
DA:618,4
DA:619,4
DA:620,4
DA:621,4
DA:622,4
DA:624,6
DA:625,2
DA:626,2
DA:628,2
DA:629,2
DA:630,2
DA:631,2
DA:633,2
DA:634,2
DA:635,2
DA:636,2
DA:638,2
DA:639,2
DA:640,8
DA:641,2
DA:642,2
DA:643,2
DA:644,2
DA:645,2
DA:646,2
DA:647,2
DA:648,2
DA:651,2
DA:652,2
DA:653,0
DA:655,4
DA:656,4
BRF:0
BRH:0
LF:482
LH:378
end_of_record
SF:E:\Github\CytoScnPy\cytoscnpy\src\rules\danger\crypto.rs
FN:147,_RNvNtNtNtCsbhXKu17xbPQ_9cytoscnpy5rules6danger6crypto23check_ciphers_and_modes
FN:86,_RNvNtNtNtCsbhXKu17xbPQ_9cytoscnpy5rules6danger6crypto24check_marshal_and_hashes
FN:15,_RNvXNtNtNtCsbhXKu17xbPQ_9cytoscnpy5rules6danger6cryptoNtB2_11HashlibRuleNtB6_4Rule10visit_expr
FN:12,_RNvXNtNtNtCsbhXKu17xbPQ_9cytoscnpy5rules6danger6cryptoNtB2_11HashlibRuleNtB6_4Rule4code
FN:9,_RNvXNtNtNtCsbhXKu17xbPQ_9cytoscnpy5rules6danger6cryptoNtB2_11HashlibRuleNtB6_4Rule4name
FN:51,_RNvXs_NtNtNtCsbhXKu17xbPQ_9cytoscnpy5rules6danger6cryptoNtB4_10RandomRuleNtB8_4Rule10visit_expr
FN:48,_RNvXs_NtNtNtCsbhXKu17xbPQ_9cytoscnpy5rules6danger6cryptoNtB4_10RandomRuleNtB8_4Rule4code
FN:45,_RNvXs_NtNtNtCsbhXKu17xbPQ_9cytoscnpy5rules6danger6cryptoNtB4_10RandomRuleNtB8_4Rule4name
FN:147,_RNvNtNtNtCs2Eyh5DnjbiX_9cytoscnpy5rules6danger6crypto23check_ciphers_and_modes
FN:86,_RNvNtNtNtCs2Eyh5DnjbiX_9cytoscnpy5rules6danger6crypto24check_marshal_and_hashes
FN:15,_RNvXNtNtNtCs2Eyh5DnjbiX_9cytoscnpy5rules6danger6cryptoNtB2_11HashlibRuleNtB6_4Rule10visit_expr
FN:12,_RNvXNtNtNtCs2Eyh5DnjbiX_9cytoscnpy5rules6danger6cryptoNtB2_11HashlibRuleNtB6_4Rule4code
FN:9,_RNvXNtNtNtCs2Eyh5DnjbiX_9cytoscnpy5rules6danger6cryptoNtB2_11HashlibRuleNtB6_4Rule4name
FN:51,_RNvXs_NtNtNtCs2Eyh5DnjbiX_9cytoscnpy5rules6danger6cryptoNtB4_10RandomRuleNtB8_4Rule10visit_expr
FN:48,_RNvXs_NtNtNtCs2Eyh5DnjbiX_9cytoscnpy5rules6danger6cryptoNtB4_10RandomRuleNtB8_4Rule4code
FN:45,_RNvXs_NtNtNtCs2Eyh5DnjbiX_9cytoscnpy5rules6danger6cryptoNtB4_10RandomRuleNtB8_4Rule4name
FNDA:364,_RNvNtNtNtCsbhXKu17xbPQ_9cytoscnpy5rules6danger6crypto23check_ciphers_and_modes
FNDA:372,_RNvNtNtNtCsbhXKu17xbPQ_9cytoscnpy5rules6danger6crypto24check_marshal_and_hashes
FNDA:1670,_RNvXNtNtNtCsbhXKu17xbPQ_9cytoscnpy5rules6danger6cryptoNtB2_11HashlibRuleNtB6_4Rule10visit_expr
FNDA:0,_RNvXNtNtNtCsbhXKu17xbPQ_9cytoscnpy5rules6danger6cryptoNtB2_11HashlibRuleNtB6_4Rule4code
FNDA:0,_RNvXNtNtNtCsbhXKu17xbPQ_9cytoscnpy5rules6danger6cryptoNtB2_11HashlibRuleNtB6_4Rule4name
FNDA:1670,_RNvXs_NtNtNtCsbhXKu17xbPQ_9cytoscnpy5rules6danger6cryptoNtB4_10RandomRuleNtB8_4Rule10visit_expr
FNDA:6,_RNvXs_NtNtNtCsbhXKu17xbPQ_9cytoscnpy5rules6danger6cryptoNtB4_10RandomRuleNtB8_4Rule4code
FNDA:0,_RNvXs_NtNtNtCsbhXKu17xbPQ_9cytoscnpy5rules6danger6cryptoNtB4_10RandomRuleNtB8_4Rule4name
FNDA:0,_RNvNtNtNtCs2Eyh5DnjbiX_9cytoscnpy5rules6danger6crypto23check_ciphers_and_modes
FNDA:0,_RNvNtNtNtCs2Eyh5DnjbiX_9cytoscnpy5rules6danger6crypto24check_marshal_and_hashes
FNDA:0,_RNvXNtNtNtCs2Eyh5DnjbiX_9cytoscnpy5rules6danger6cryptoNtB2_11HashlibRuleNtB6_4Rule10visit_expr
FNDA:0,_RNvXNtNtNtCs2Eyh5DnjbiX_9cytoscnpy5rules6danger6cryptoNtB2_11HashlibRuleNtB6_4Rule4code
FNDA:0,_RNvXNtNtNtCs2Eyh5DnjbiX_9cytoscnpy5rules6danger6cryptoNtB2_11HashlibRuleNtB6_4Rule4name
FNDA:0,_RNvXs_NtNtNtCs2Eyh5DnjbiX_9cytoscnpy5rules6danger6cryptoNtB4_10RandomRuleNtB8_4Rule10visit_expr
FNDA:0,_RNvXs_NtNtNtCs2Eyh5DnjbiX_9cytoscnpy5rules6danger6cryptoNtB4_10RandomRuleNtB8_4Rule4code
FNDA:0,_RNvXs_NtNtNtCs2Eyh5DnjbiX_9cytoscnpy5rules6danger6cryptoNtB4_10RandomRuleNtB8_4Rule4name
FNF:8
FNH:5
DA:9,0
DA:10,0
DA:11,0
DA:12,0
DA:13,0
DA:14,0
DA:15,1670
DA:16,1670
DA:17,380
DA:18,372
DA:19,4
DA:20,4
DA:21,4
DA:22,4
DA:23,4
DA:24,4
DA:25,4
DA:26,368
DA:27,368
DA:28,3
DA:29,3
DA:30,3
DA:31,3
DA:32,3
DA:33,3
DA:34,3
DA:35,365
DA:36,8
DA:37,1290
DA:38,1663
DA:39,1670
DA:45,0
DA:46,0
DA:47,0
DA:48,6
DA:49,6
DA:50,6
DA:51,1670
DA:52,1670
DA:53,380
DA:54,372
DA:55,6
DA:56,6
DA:57,6
DA:58,6
DA:59,6
DA:60,4
DA:61,4
DA:62,2
DA:63,0
DA:64,0
DA:65,0
DA:66,0
DA:67,0
DA:68,0
DA:70,6
DA:71,6
DA:72,6
DA:73,6
DA:74,6
DA:75,6
DA:76,6
DA:77,0
DA:78,366
DA:79,8
DA:80,1290
DA:81,1664
DA:82,1670
DA:86,372
DA:87,372
DA:88,372
DA:89,372
DA:90,372
DA:92,372
DA:93,2
DA:94,2
DA:95,2
DA:96,2
DA:97,2
DA:98,2
DA:99,2
DA:100,370
DA:102,370
DA:103,0
DA:104,0
DA:105,0
DA:106,0
DA:107,0
DA:108,0
DA:109,0
DA:110,370
DA:111,370
DA:112,0
DA:113,0
DA:114,0
DA:115,0
DA:116,0
DA:117,0
DA:118,0
DA:119,370
DA:121,370
DA:122,8
DA:123,8
DA:124,8
DA:125,4
DA:126,4
DA:127,4
DA:128,4
DA:129,4
DA:130,4
DA:131,4
DA:132,4
DA:133,2
DA:134,2
DA:135,2
DA:136,2
DA:137,2
DA:138,2
DA:139,2
DA:140,2
DA:141,0
DA:142,362
DA:143,364
DA:144,372
DA:147,364
DA:148,364
DA:149,364
DA:150,364
DA:151,364
DA:153,364
DA:154,364
DA:155,364
DA:156,364
DA:157,364
DA:158,364
DA:159,364
DA:160,363
DA:162,2
DA:163,2
DA:164,2
DA:165,2
DA:166,2
DA:167,2
DA:168,2
DA:169,362
DA:171,362
DA:172,2
DA:173,2
DA:174,2
DA:175,2
DA:176,2
DA:177,2
DA:178,2
DA:179,360
DA:180,360
DA:181,364
BRF:0
BRH:0
LF:156
LH:125
end_of_record
SF:E:\Github\CytoScnPy\cytoscnpy\src\rules\danger\filesystem.rs
FN:33,_RNCNCNvXNtNtNtCsbhXKu17xbPQ_9cytoscnpy5rules6danger10filesystemNtB6_17PathTraversalRuleNtBa_4Rule10visit_expr00Bc_
FN:109,_RNCNCNvXs0_NtNtNtCsbhXKu17xbPQ_9cytoscnpy5rules6danger10filesystemNtB9_22BadFilePermissionsRuleNtBd_4Rule10visit_expr00Bf_
FN:32,_RNCNvXNtNtNtCsbhXKu17xbPQ_9cytoscnpy5rules6danger10filesystemNtB4_17PathTraversalRuleNtB8_4Rule10visit_expr0Ba_
FN:109,_RNCNvXs0_NtNtNtCsbhXKu17xbPQ_9cytoscnpy5rules6danger10filesystemNtB7_22BadFilePermissionsRuleNtBb_4Rule10visit_expr0Bd_
FN:15,_RNvXNtNtNtCsbhXKu17xbPQ_9cytoscnpy5rules6danger10filesystemNtB2_17PathTraversalRuleNtB6_4Rule10visit_expr
FN:12,_RNvXNtNtNtCsbhXKu17xbPQ_9cytoscnpy5rules6danger10filesystemNtB2_17PathTraversalRuleNtB6_4Rule4code
FN:9,_RNvXNtNtNtCsbhXKu17xbPQ_9cytoscnpy5rules6danger10filesystemNtB2_17PathTraversalRuleNtB6_4Rule4name
FN:97,_RNvXs0_NtNtNtCsbhXKu17xbPQ_9cytoscnpy5rules6danger10filesystemNtB5_22BadFilePermissionsRuleNtB9_4Rule10visit_expr
FN:94,_RNvXs0_NtNtNtCsbhXKu17xbPQ_9cytoscnpy5rules6danger10filesystemNtB5_22BadFilePermissionsRuleNtB9_4Rule4code
FN:91,_RNvXs0_NtNtNtCsbhXKu17xbPQ_9cytoscnpy5rules6danger10filesystemNtB5_22BadFilePermissionsRuleNtB9_4Rule4name
FN:69,_RNvXs_NtNtNtCsbhXKu17xbPQ_9cytoscnpy5rules6danger10filesystemNtB4_12TempfileRuleNtB8_4Rule10visit_expr
FN:66,_RNvXs_NtNtNtCsbhXKu17xbPQ_9cytoscnpy5rules6danger10filesystemNtB4_12TempfileRuleNtB8_4Rule4code
FN:63,_RNvXs_NtNtNtCsbhXKu17xbPQ_9cytoscnpy5rules6danger10filesystemNtB4_12TempfileRuleNtB8_4Rule4name
FN:33,_RNCNCNvXNtNtNtCs2Eyh5DnjbiX_9cytoscnpy5rules6danger10filesystemNtB6_17PathTraversalRuleNtBa_4Rule10visit_expr00Bc_
FN:109,_RNCNCNvXs0_NtNtNtCs2Eyh5DnjbiX_9cytoscnpy5rules6danger10filesystemNtB9_22BadFilePermissionsRuleNtBd_4Rule10visit_expr00Bf_
FN:32,_RNCNvXNtNtNtCs2Eyh5DnjbiX_9cytoscnpy5rules6danger10filesystemNtB4_17PathTraversalRuleNtB8_4Rule10visit_expr0Ba_
FN:109,_RNCNvXs0_NtNtNtCs2Eyh5DnjbiX_9cytoscnpy5rules6danger10filesystemNtB7_22BadFilePermissionsRuleNtBb_4Rule10visit_expr0Bd_
FN:15,_RNvXNtNtNtCs2Eyh5DnjbiX_9cytoscnpy5rules6danger10filesystemNtB2_17PathTraversalRuleNtB6_4Rule10visit_expr
FN:12,_RNvXNtNtNtCs2Eyh5DnjbiX_9cytoscnpy5rules6danger10filesystemNtB2_17PathTraversalRuleNtB6_4Rule4code
FN:9,_RNvXNtNtNtCs2Eyh5DnjbiX_9cytoscnpy5rules6danger10filesystemNtB2_17PathTraversalRuleNtB6_4Rule4name
FN:97,_RNvXs0_NtNtNtCs2Eyh5DnjbiX_9cytoscnpy5rules6danger10filesystemNtB5_22BadFilePermissionsRuleNtB9_4Rule10visit_expr
FN:94,_RNvXs0_NtNtNtCs2Eyh5DnjbiX_9cytoscnpy5rules6danger10filesystemNtB5_22BadFilePermissionsRuleNtB9_4Rule4code
FN:91,_RNvXs0_NtNtNtCs2Eyh5DnjbiX_9cytoscnpy5rules6danger10filesystemNtB5_22BadFilePermissionsRuleNtB9_4Rule4name
FN:69,_RNvXs_NtNtNtCs2Eyh5DnjbiX_9cytoscnpy5rules6danger10filesystemNtB4_12TempfileRuleNtB8_4Rule10visit_expr
FN:66,_RNvXs_NtNtNtCs2Eyh5DnjbiX_9cytoscnpy5rules6danger10filesystemNtB4_12TempfileRuleNtB8_4Rule4code
FN:63,_RNvXs_NtNtNtCs2Eyh5DnjbiX_9cytoscnpy5rules6danger10filesystemNtB4_12TempfileRuleNtB8_4Rule4name
FNDA:5,_RNCNCNvXNtNtNtCsbhXKu17xbPQ_9cytoscnpy5rules6danger10filesystemNtB6_17PathTraversalRuleNtBa_4Rule10visit_expr00Bc_
FNDA:1,_RNCNCNvXs0_NtNtNtCsbhXKu17xbPQ_9cytoscnpy5rules6danger10filesystemNtB9_22BadFilePermissionsRuleNtBd_4Rule10visit_expr00Bf_
FNDA:5,_RNCNvXNtNtNtCsbhXKu17xbPQ_9cytoscnpy5rules6danger10filesystemNtB4_17PathTraversalRuleNtB8_4Rule10visit_expr0Ba_
FNDA:1,_RNCNvXs0_NtNtNtCsbhXKu17xbPQ_9cytoscnpy5rules6danger10filesystemNtB7_22BadFilePermissionsRuleNtBb_4Rule10visit_expr0Bd_
FNDA:1670,_RNvXNtNtNtCsbhXKu17xbPQ_9cytoscnpy5rules6danger10filesystemNtB2_17PathTraversalRuleNtB6_4Rule10visit_expr
FNDA:18,_RNvXNtNtNtCsbhXKu17xbPQ_9cytoscnpy5rules6danger10filesystemNtB2_17PathTraversalRuleNtB6_4Rule4code
FNDA:0,_RNvXNtNtNtCsbhXKu17xbPQ_9cytoscnpy5rules6danger10filesystemNtB2_17PathTraversalRuleNtB6_4Rule4name
FNDA:1670,_RNvXs0_NtNtNtCsbhXKu17xbPQ_9cytoscnpy5rules6danger10filesystemNtB5_22BadFilePermissionsRuleNtB9_4Rule10visit_expr
FNDA:3,_RNvXs0_NtNtNtCsbhXKu17xbPQ_9cytoscnpy5rules6danger10filesystemNtB5_22BadFilePermissionsRuleNtB9_4Rule4code
FNDA:0,_RNvXs0_NtNtNtCsbhXKu17xbPQ_9cytoscnpy5rules6danger10filesystemNtB5_22BadFilePermissionsRuleNtB9_4Rule4name
FNDA:1670,_RNvXs_NtNtNtCsbhXKu17xbPQ_9cytoscnpy5rules6danger10filesystemNtB4_12TempfileRuleNtB8_4Rule10visit_expr
FNDA:3,_RNvXs_NtNtNtCsbhXKu17xbPQ_9cytoscnpy5rules6danger10filesystemNtB4_12TempfileRuleNtB8_4Rule4code
FNDA:0,_RNvXs_NtNtNtCsbhXKu17xbPQ_9cytoscnpy5rules6danger10filesystemNtB4_12TempfileRuleNtB8_4Rule4name
FNDA:0,_RNCNCNvXNtNtNtCs2Eyh5DnjbiX_9cytoscnpy5rules6danger10filesystemNtB6_17PathTraversalRuleNtBa_4Rule10visit_expr00Bc_
FNDA:0,_RNCNCNvXs0_NtNtNtCs2Eyh5DnjbiX_9cytoscnpy5rules6danger10filesystemNtB9_22BadFilePermissionsRuleNtBd_4Rule10visit_expr00Bf_
FNDA:0,_RNCNvXNtNtNtCs2Eyh5DnjbiX_9cytoscnpy5rules6danger10filesystemNtB4_17PathTraversalRuleNtB8_4Rule10visit_expr0Ba_
FNDA:0,_RNCNvXs0_NtNtNtCs2Eyh5DnjbiX_9cytoscnpy5rules6danger10filesystemNtB7_22BadFilePermissionsRuleNtBb_4Rule10visit_expr0Bd_
FNDA:0,_RNvXNtNtNtCs2Eyh5DnjbiX_9cytoscnpy5rules6danger10filesystemNtB2_17PathTraversalRuleNtB6_4Rule10visit_expr
FNDA:0,_RNvXNtNtNtCs2Eyh5DnjbiX_9cytoscnpy5rules6danger10filesystemNtB2_17PathTraversalRuleNtB6_4Rule4code
FNDA:0,_RNvXNtNtNtCs2Eyh5DnjbiX_9cytoscnpy5rules6danger10filesystemNtB2_17PathTraversalRuleNtB6_4Rule4name
FNDA:0,_RNvXs0_NtNtNtCs2Eyh5DnjbiX_9cytoscnpy5rules6danger10filesystemNtB5_22BadFilePermissionsRuleNtB9_4Rule10visit_expr
FNDA:0,_RNvXs0_NtNtNtCs2Eyh5DnjbiX_9cytoscnpy5rules6danger10filesystemNtB5_22BadFilePermissionsRuleNtB9_4Rule4code
FNDA:0,_RNvXs0_NtNtNtCs2Eyh5DnjbiX_9cytoscnpy5rules6danger10filesystemNtB5_22BadFilePermissionsRuleNtB9_4Rule4name
FNDA:0,_RNvXs_NtNtNtCs2Eyh5DnjbiX_9cytoscnpy5rules6danger10filesystemNtB4_12TempfileRuleNtB8_4Rule10visit_expr
FNDA:0,_RNvXs_NtNtNtCs2Eyh5DnjbiX_9cytoscnpy5rules6danger10filesystemNtB4_12TempfileRuleNtB8_4Rule4code
FNDA:0,_RNvXs_NtNtNtCs2Eyh5DnjbiX_9cytoscnpy5rules6danger10filesystemNtB4_12TempfileRuleNtB8_4Rule4name
FNF:13
FNH:10
DA:9,0
DA:10,0
DA:11,0
DA:12,18
DA:13,18
DA:14,18
DA:15,1670
DA:16,1670
DA:17,380
DA:18,372
DA:19,369
DA:20,365
DA:21,364
DA:22,361
DA:23,361
DA:24,361
DA:25,361
DA:26,359
DA:27,357
DA:28,356
DA:29,355
DA:31,23
DA:32,23
DA:33,5
DA:34,5
DA:35,5
DA:36,4
DA:37,4
DA:38,2
DA:39,1
DA:40,0
DA:41,5
DA:42,5
DA:44,23
DA:45,18
DA:46,18
DA:47,18
DA:48,18
DA:49,18
DA:50,18
DA:51,18
DA:52,5
DA:53,349
DA:54,8
DA:55,1290
DA:56,1652
DA:57,1670
DA:63,0
DA:64,0
DA:65,0
DA:66,3
DA:67,3
DA:68,3
DA:69,1670
DA:70,1670
DA:71,380
DA:73,372
DA:74,3
DA:75,3
DA:76,3
DA:77,3
DA:78,3
DA:79,3
DA:80,3
DA:81,369
DA:82,8
DA:83,1290
DA:84,1667
DA:85,1670
DA:91,0
DA:92,0
DA:93,0
DA:94,3
DA:95,3
DA:96,3
DA:97,1670
DA:98,1670
DA:99,380
DA:100,372
DA:102,3
DA:103,2
DA:106,1
DA:107,1
DA:108,1
DA:109,1
DA:110,1
DA:113,3
DA:115,3
DA:116,2
DA:117,2
DA:118,2
DA:119,2
DA:120,2
DA:121,2
DA:122,2
DA:123,2
DA:124,0
DA:125,1
DA:126,1
DA:127,1
DA:128,1
DA:129,1
DA:130,1
DA:131,1
DA:132,1
DA:133,1
DA:134,1
DA:135,0
DA:136,0
DA:137,0
DA:138,0
DA:139,369
DA:140,8
DA:141,1290
DA:142,1667
DA:143,1670
BRF:0
BRH:0
LF:121
LH:106
end_of_record
SF:E:\Github\CytoScnPy\cytoscnpy\src\rules\danger\frameworks.rs
FN:16,_RNvXNtNtNtCsbhXKu17xbPQ_9cytoscnpy5rules6danger10frameworksNtB2_18DjangoSecurityRuleNtB6_4Rule10enter_stmt
FN:12,_RNvXNtNtNtCsbhXKu17xbPQ_9cytoscnpy5rules6danger10frameworksNtB2_18DjangoSecurityRuleNtB6_4Rule4code
FN:9,_RNvXNtNtNtCsbhXKu17xbPQ_9cytoscnpy5rules6danger10frameworksNtB2_18DjangoSecurityRuleNtB6_4Rule4name
FN:16,_RNvXNtNtNtCs2Eyh5DnjbiX_9cytoscnpy5rules6danger10frameworksNtB2_18DjangoSecurityRuleNtB6_4Rule10enter_stmt
FN:12,_RNvXNtNtNtCs2Eyh5DnjbiX_9cytoscnpy5rules6danger10frameworksNtB2_18DjangoSecurityRuleNtB6_4Rule4code
FN:9,_RNvXNtNtNtCs2Eyh5DnjbiX_9cytoscnpy5rules6danger10frameworksNtB2_18DjangoSecurityRuleNtB6_4Rule4name
FNDA:756,_RNvXNtNtNtCsbhXKu17xbPQ_9cytoscnpy5rules6danger10frameworksNtB2_18DjangoSecurityRuleNtB6_4Rule10enter_stmt
FNDA:0,_RNvXNtNtNtCsbhXKu17xbPQ_9cytoscnpy5rules6danger10frameworksNtB2_18DjangoSecurityRuleNtB6_4Rule4code
FNDA:0,_RNvXNtNtNtCsbhXKu17xbPQ_9cytoscnpy5rules6danger10frameworksNtB2_18DjangoSecurityRuleNtB6_4Rule4name
FNDA:0,_RNvXNtNtNtCs2Eyh5DnjbiX_9cytoscnpy5rules6danger10frameworksNtB2_18DjangoSecurityRuleNtB6_4Rule10enter_stmt
FNDA:0,_RNvXNtNtNtCs2Eyh5DnjbiX_9cytoscnpy5rules6danger10frameworksNtB2_18DjangoSecurityRuleNtB6_4Rule4code
FNDA:0,_RNvXNtNtNtCs2Eyh5DnjbiX_9cytoscnpy5rules6danger10frameworksNtB2_18DjangoSecurityRuleNtB6_4Rule4name
FNF:3
FNH:1
DA:9,0
DA:10,0
DA:11,0
DA:12,0
DA:13,0
DA:14,0
DA:16,756
DA:17,756
DA:18,190
DA:19,95
DA:20,95
DA:21,0
DA:22,0
DA:23,0
DA:24,0
DA:25,0
DA:26,0
DA:27,0
DA:28,0
DA:29,0
DA:30,95
DA:31,0
DA:33,661
DA:34,756
DA:35,756
BRF:0
BRH:0
LF:25
LH:9
end_of_record
SF:E:\Github\CytoScnPy\cytoscnpy\src\rules\danger\injection.rs
FN:485,_RNCNCNvXs7_NtNtNtCsbhXKu17xbPQ_9cytoscnpy5rules6danger9injectionNtB9_21TarfileExtractionRuleNtBd_4Rule10visit_expr00Bf_
FN:321,_RNCNvXs4_NtNtNtCsbhXKu17xbPQ_9cytoscnpy5rules6danger9injectionNtB7_19SqlInjectionRawRuleNtBb_4Rule10visit_expr0Bd_
FN:332,_RNCNvXs4_NtNtNtCsbhXKu17xbPQ_9cytoscnpy5rules6danger9injectionNtB7_19SqlInjectionRawRuleNtBb_4Rule10visit_exprs_0Bd_
FN:384,_RNCNvXs5_NtNtNtCsbhXKu17xbPQ_9cytoscnpy5rules6danger9injectionNtB7_7XSSRuleNtBb_4Rule10visit_expr0Bd_
FN:484,_RNCNvXs7_NtNtNtCsbhXKu17xbPQ_9cytoscnpy5rules6danger9injectionNtB7_21TarfileExtractionRuleNtBb_4Rule10visit_expr0Bd_
FN:633,_RNCNvXsa_NtNtNtCsbhXKu17xbPQ_9cytoscnpy5rules6danger9injectionNtB7_24ModelDeserializationRuleNtBb_4Rule10visit_expr0Bd_
FN:669,_RNCNvXsa_NtNtNtCsbhXKu17xbPQ_9cytoscnpy5rules6danger9injectionNtB7_24ModelDeserializationRuleNtBb_4Rule10visit_exprs_0Bd_
FN:18,_RNvXNtNtNtCsbhXKu17xbPQ_9cytoscnpy5rules6danger9injectionNtB2_8EvalRuleNtB6_4Rule10visit_expr
FN:15,_RNvXNtNtNtCsbhXKu17xbPQ_9cytoscnpy5rules6danger9injectionNtB2_8EvalRuleNtB6_4Rule4code
FN:12,_RNvXNtNtNtCsbhXKu17xbPQ_9cytoscnpy5rules6danger9injectionNtB2_8EvalRuleNtB6_4Rule4name
FN:72,_RNvXs0_NtNtNtCsbhXKu17xbPQ_9cytoscnpy5rules6danger9injectionNtB5_10PickleRuleNtB9_4Rule10visit_expr
FN:69,_RNvXs0_NtNtNtCsbhXKu17xbPQ_9cytoscnpy5rules6danger9injectionNtB5_10PickleRuleNtB9_4Rule4code
FN:66,_RNvXs0_NtNtNtCsbhXKu17xbPQ_9cytoscnpy5rules6danger9injectionNtB5_10PickleRuleNtB9_4Rule4name
FN:111,_RNvXs1_NtNtNtCsbhXKu17xbPQ_9cytoscnpy5rules6danger9injectionNtB5_8YamlRuleNtB9_4Rule10visit_expr
FN:108,_RNvXs1_NtNtNtCsbhXKu17xbPQ_9cytoscnpy5rules6danger9injectionNtB5_8YamlRuleNtB9_4Rule4code
FN:105,_RNvXs1_NtNtNtCsbhXKu17xbPQ_9cytoscnpy5rules6danger9injectionNtB5_8YamlRuleNtB9_4Rule4name
FN:152,_RNvXs2_NtNtNtCsbhXKu17xbPQ_9cytoscnpy5rules6danger9injectionNtB5_14SubprocessRuleNtB9_4Rule10visit_expr
FN:149,_RNvXs2_NtNtNtCsbhXKu17xbPQ_9cytoscnpy5rules6danger9injectionNtB5_14SubprocessRuleNtB9_4Rule4code
FN:146,_RNvXs2_NtNtNtCsbhXKu17xbPQ_9cytoscnpy5rules6danger9injectionNtB5_14SubprocessRuleNtB9_4Rule4name
FN:225,_RNvXs3_NtNtNtCsbhXKu17xbPQ_9cytoscnpy5rules6danger9injectionNtB5_16SqlInjectionRuleNtB9_4Rule10visit_expr
FN:222,_RNvXs3_NtNtNtCsbhXKu17xbPQ_9cytoscnpy5rules6danger9injectionNtB5_16SqlInjectionRuleNtB9_4Rule4code
FN:219,_RNvXs3_NtNtNtCsbhXKu17xbPQ_9cytoscnpy5rules6danger9injectionNtB5_16SqlInjectionRuleNtB9_4Rule4name
FN:289,_RNvXs4_NtNtNtCsbhXKu17xbPQ_9cytoscnpy5rules6danger9injectionNtB5_19SqlInjectionRawRuleNtB9_4Rule10visit_expr
FN:286,_RNvXs4_NtNtNtCsbhXKu17xbPQ_9cytoscnpy5rules6danger9injectionNtB5_19SqlInjectionRawRuleNtB9_4Rule4code
FN:283,_RNvXs4_NtNtNtCsbhXKu17xbPQ_9cytoscnpy5rules6danger9injectionNtB5_19SqlInjectionRawRuleNtB9_4Rule4name
FN:369,_RNvXs5_NtNtNtCsbhXKu17xbPQ_9cytoscnpy5rules6danger9injectionNtB5_7XSSRuleNtB9_4Rule10visit_expr
FN:366,_RNvXs5_NtNtNtCsbhXKu17xbPQ_9cytoscnpy5rules6danger9injectionNtB5_7XSSRuleNtB9_4Rule4code
FN:363,_RNvXs5_NtNtNtCsbhXKu17xbPQ_9cytoscnpy5rules6danger9injectionNtB5_7XSSRuleNtB9_4Rule4name
FN:409,_RNvXs6_NtNtNtCsbhXKu17xbPQ_9cytoscnpy5rules6danger9injectionNtB5_7XmlRuleNtB9_4Rule10visit_expr
FN:406,_RNvXs6_NtNtNtCsbhXKu17xbPQ_9cytoscnpy5rules6danger9injectionNtB5_7XmlRuleNtB9_4Rule4code
FN:403,_RNvXs6_NtNtNtCsbhXKu17xbPQ_9cytoscnpy5rules6danger9injectionNtB5_7XmlRuleNtB9_4Rule4name
FN:474,_RNvXs7_NtNtNtCsbhXKu17xbPQ_9cytoscnpy5rules6danger9injectionNtB5_21TarfileExtractionRuleNtB9_4Rule10visit_expr
FN:471,_RNvXs7_NtNtNtCsbhXKu17xbPQ_9cytoscnpy5rules6danger9injectionNtB5_21TarfileExtractionRuleNtB9_4Rule4code
FN:468,_RNvXs7_NtNtNtCsbhXKu17xbPQ_9cytoscnpy5rules6danger9injectionNtB5_21TarfileExtractionRuleNtB9_4Rule4name
FN:543,_RNvXs8_NtNtNtCsbhXKu17xbPQ_9cytoscnpy5rules6danger9injectionNtB5_21ZipfileExtractionRuleNtB9_4Rule10visit_expr
FN:540,_RNvXs8_NtNtNtCsbhXKu17xbPQ_9cytoscnpy5rules6danger9injectionNtB5_21ZipfileExtractionRuleNtB9_4Rule4code
FN:537,_RNvXs8_NtNtNtCsbhXKu17xbPQ_9cytoscnpy5rules6danger9injectionNtB5_21ZipfileExtractionRuleNtB9_4Rule4name
FN:577,_RNvXs9_NtNtNtCsbhXKu17xbPQ_9cytoscnpy5rules6danger9injectionNtB5_19AsyncSubprocessRuleNtB9_4Rule10visit_expr
FN:574,_RNvXs9_NtNtNtCsbhXKu17xbPQ_9cytoscnpy5rules6danger9injectionNtB5_19AsyncSubprocessRuleNtB9_4Rule4code
FN:571,_RNvXs9_NtNtNtCsbhXKu17xbPQ_9cytoscnpy5rules6danger9injectionNtB5_19AsyncSubprocessRuleNtB9_4Rule4name
FN:45,_RNvXs_NtNtNtCsbhXKu17xbPQ_9cytoscnpy5rules6danger9injectionNtB4_8ExecRuleNtB8_4Rule10visit_expr
FN:42,_RNvXs_NtNtNtCsbhXKu17xbPQ_9cytoscnpy5rules6danger9injectionNtB4_8ExecRuleNtB8_4Rule4code
FN:39,_RNvXs_NtNtNtCsbhXKu17xbPQ_9cytoscnpy5rules6danger9injectionNtB4_8ExecRuleNtB8_4Rule4name
FN:629,_RNvXsa_NtNtNtCsbhXKu17xbPQ_9cytoscnpy5rules6danger9injectionNtB5_24ModelDeserializationRuleNtB9_4Rule10visit_expr
FN:626,_RNvXsa_NtNtNtCsbhXKu17xbPQ_9cytoscnpy5rules6danger9injectionNtB5_24ModelDeserializationRuleNtB9_4Rule4code
FN:623,_RNvXsa_NtNtNtCsbhXKu17xbPQ_9cytoscnpy5rules6danger9injectionNtB5_24ModelDeserializationRuleNtB9_4Rule4name
FN:18,_RNvXNtNtNtCs2Eyh5DnjbiX_9cytoscnpy5rules6danger9injectionNtB2_8EvalRuleNtB6_4Rule10visit_expr
FN:15,_RNvXNtNtNtCs2Eyh5DnjbiX_9cytoscnpy5rules6danger9injectionNtB2_8EvalRuleNtB6_4Rule4code
FN:12,_RNvXNtNtNtCs2Eyh5DnjbiX_9cytoscnpy5rules6danger9injectionNtB2_8EvalRuleNtB6_4Rule4name
FN:72,_RNvXs0_NtNtNtCs2Eyh5DnjbiX_9cytoscnpy5rules6danger9injectionNtB5_10PickleRuleNtB9_4Rule10visit_expr
FN:69,_RNvXs0_NtNtNtCs2Eyh5DnjbiX_9cytoscnpy5rules6danger9injectionNtB5_10PickleRuleNtB9_4Rule4code
FN:66,_RNvXs0_NtNtNtCs2Eyh5DnjbiX_9cytoscnpy5rules6danger9injectionNtB5_10PickleRuleNtB9_4Rule4name
FN:111,_RNvXs1_NtNtNtCs2Eyh5DnjbiX_9cytoscnpy5rules6danger9injectionNtB5_8YamlRuleNtB9_4Rule10visit_expr
FN:108,_RNvXs1_NtNtNtCs2Eyh5DnjbiX_9cytoscnpy5rules6danger9injectionNtB5_8YamlRuleNtB9_4Rule4code
FN:105,_RNvXs1_NtNtNtCs2Eyh5DnjbiX_9cytoscnpy5rules6danger9injectionNtB5_8YamlRuleNtB9_4Rule4name
FN:152,_RNvXs2_NtNtNtCs2Eyh5DnjbiX_9cytoscnpy5rules6danger9injectionNtB5_14SubprocessRuleNtB9_4Rule10visit_expr
FN:149,_RNvXs2_NtNtNtCs2Eyh5DnjbiX_9cytoscnpy5rules6danger9injectionNtB5_14SubprocessRuleNtB9_4Rule4code
FN:146,_RNvXs2_NtNtNtCs2Eyh5DnjbiX_9cytoscnpy5rules6danger9injectionNtB5_14SubprocessRuleNtB9_4Rule4name
FN:225,_RNvXs3_NtNtNtCs2Eyh5DnjbiX_9cytoscnpy5rules6danger9injectionNtB5_16SqlInjectionRuleNtB9_4Rule10visit_expr
FN:222,_RNvXs3_NtNtNtCs2Eyh5DnjbiX_9cytoscnpy5rules6danger9injectionNtB5_16SqlInjectionRuleNtB9_4Rule4code
FN:219,_RNvXs3_NtNtNtCs2Eyh5DnjbiX_9cytoscnpy5rules6danger9injectionNtB5_16SqlInjectionRuleNtB9_4Rule4name
FN:289,_RNvXs4_NtNtNtCs2Eyh5DnjbiX_9cytoscnpy5rules6danger9injectionNtB5_19SqlInjectionRawRuleNtB9_4Rule10visit_expr
FN:286,_RNvXs4_NtNtNtCs2Eyh5DnjbiX_9cytoscnpy5rules6danger9injectionNtB5_19SqlInjectionRawRuleNtB9_4Rule4code
FN:283,_RNvXs4_NtNtNtCs2Eyh5DnjbiX_9cytoscnpy5rules6danger9injectionNtB5_19SqlInjectionRawRuleNtB9_4Rule4name
FN:369,_RNvXs5_NtNtNtCs2Eyh5DnjbiX_9cytoscnpy5rules6danger9injectionNtB5_7XSSRuleNtB9_4Rule10visit_expr
FN:366,_RNvXs5_NtNtNtCs2Eyh5DnjbiX_9cytoscnpy5rules6danger9injectionNtB5_7XSSRuleNtB9_4Rule4code
FN:363,_RNvXs5_NtNtNtCs2Eyh5DnjbiX_9cytoscnpy5rules6danger9injectionNtB5_7XSSRuleNtB9_4Rule4name
FN:409,_RNvXs6_NtNtNtCs2Eyh5DnjbiX_9cytoscnpy5rules6danger9injectionNtB5_7XmlRuleNtB9_4Rule10visit_expr
FN:406,_RNvXs6_NtNtNtCs2Eyh5DnjbiX_9cytoscnpy5rules6danger9injectionNtB5_7XmlRuleNtB9_4Rule4code
FN:403,_RNvXs6_NtNtNtCs2Eyh5DnjbiX_9cytoscnpy5rules6danger9injectionNtB5_7XmlRuleNtB9_4Rule4name
FN:474,_RNvXs7_NtNtNtCs2Eyh5DnjbiX_9cytoscnpy5rules6danger9injectionNtB5_21TarfileExtractionRuleNtB9_4Rule10visit_expr
FN:471,_RNvXs7_NtNtNtCs2Eyh5DnjbiX_9cytoscnpy5rules6danger9injectionNtB5_21TarfileExtractionRuleNtB9_4Rule4code
FN:468,_RNvXs7_NtNtNtCs2Eyh5DnjbiX_9cytoscnpy5rules6danger9injectionNtB5_21TarfileExtractionRuleNtB9_4Rule4name
FN:543,_RNvXs8_NtNtNtCs2Eyh5DnjbiX_9cytoscnpy5rules6danger9injectionNtB5_21ZipfileExtractionRuleNtB9_4Rule10visit_expr
FN:540,_RNvXs8_NtNtNtCs2Eyh5DnjbiX_9cytoscnpy5rules6danger9injectionNtB5_21ZipfileExtractionRuleNtB9_4Rule4code
FN:537,_RNvXs8_NtNtNtCs2Eyh5DnjbiX_9cytoscnpy5rules6danger9injectionNtB5_21ZipfileExtractionRuleNtB9_4Rule4name
FN:577,_RNvXs9_NtNtNtCs2Eyh5DnjbiX_9cytoscnpy5rules6danger9injectionNtB5_19AsyncSubprocessRuleNtB9_4Rule10visit_expr
FN:574,_RNvXs9_NtNtNtCs2Eyh5DnjbiX_9cytoscnpy5rules6danger9injectionNtB5_19AsyncSubprocessRuleNtB9_4Rule4code
FN:571,_RNvXs9_NtNtNtCs2Eyh5DnjbiX_9cytoscnpy5rules6danger9injectionNtB5_19AsyncSubprocessRuleNtB9_4Rule4name
FN:45,_RNvXs_NtNtNtCs2Eyh5DnjbiX_9cytoscnpy5rules6danger9injectionNtB4_8ExecRuleNtB8_4Rule10visit_expr
FN:42,_RNvXs_NtNtNtCs2Eyh5DnjbiX_9cytoscnpy5rules6danger9injectionNtB4_8ExecRuleNtB8_4Rule4code
FN:39,_RNvXs_NtNtNtCs2Eyh5DnjbiX_9cytoscnpy5rules6danger9injectionNtB4_8ExecRuleNtB8_4Rule4name
FN:629,_RNvXsa_NtNtNtCs2Eyh5DnjbiX_9cytoscnpy5rules6danger9injectionNtB5_24ModelDeserializationRuleNtB9_4Rule10visit_expr
FN:626,_RNvXsa_NtNtNtCs2Eyh5DnjbiX_9cytoscnpy5rules6danger9injectionNtB5_24ModelDeserializationRuleNtB9_4Rule4code
FN:623,_RNvXsa_NtNtNtCs2Eyh5DnjbiX_9cytoscnpy5rules6danger9injectionNtB5_24ModelDeserializationRuleNtB9_4Rule4name
FN:485,_RNCNCNvXs7_NtNtNtCs2Eyh5DnjbiX_9cytoscnpy5rules6danger9injectionNtB9_21TarfileExtractionRuleNtBd_4Rule10visit_expr00Bf_
FN:321,_RNCNvXs4_NtNtNtCs2Eyh5DnjbiX_9cytoscnpy5rules6danger9injectionNtB7_19SqlInjectionRawRuleNtBb_4Rule10visit_expr0Bd_
FN:332,_RNCNvXs4_NtNtNtCs2Eyh5DnjbiX_9cytoscnpy5rules6danger9injectionNtB7_19SqlInjectionRawRuleNtBb_4Rule10visit_exprs_0Bd_
FN:384,_RNCNvXs5_NtNtNtCs2Eyh5DnjbiX_9cytoscnpy5rules6danger9injectionNtB7_7XSSRuleNtBb_4Rule10visit_expr0Bd_
FN:484,_RNCNvXs7_NtNtNtCs2Eyh5DnjbiX_9cytoscnpy5rules6danger9injectionNtB7_21TarfileExtractionRuleNtBb_4Rule10visit_expr0Bd_
FN:633,_RNCNvXsa_NtNtNtCs2Eyh5DnjbiX_9cytoscnpy5rules6danger9injectionNtB7_24ModelDeserializationRuleNtBb_4Rule10visit_expr0Bd_
FN:669,_RNCNvXsa_NtNtNtCs2Eyh5DnjbiX_9cytoscnpy5rules6danger9injectionNtB7_24ModelDeserializationRuleNtBb_4Rule10visit_exprs_0Bd_
FNDA:7,_RNCNCNvXs7_NtNtNtCsbhXKu17xbPQ_9cytoscnpy5rules6danger9injectionNtB9_21TarfileExtractionRuleNtBd_4Rule10visit_expr00Bf_
FNDA:0,_RNCNvXs4_NtNtNtCsbhXKu17xbPQ_9cytoscnpy5rules6danger9injectionNtB7_19SqlInjectionRawRuleNtBb_4Rule10visit_expr0Bd_
FNDA:0,_RNCNvXs4_NtNtNtCsbhXKu17xbPQ_9cytoscnpy5rules6danger9injectionNtB7_19SqlInjectionRawRuleNtBb_4Rule10visit_exprs_0Bd_
FNDA:1,_RNCNvXs5_NtNtNtCsbhXKu17xbPQ_9cytoscnpy5rules6danger9injectionNtB7_7XSSRuleNtBb_4Rule10visit_expr0Bd_
FNDA:7,_RNCNvXs7_NtNtNtCsbhXKu17xbPQ_9cytoscnpy5rules6danger9injectionNtB7_21TarfileExtractionRuleNtBb_4Rule10visit_expr0Bd_
FNDA:2,_RNCNvXsa_NtNtNtCsbhXKu17xbPQ_9cytoscnpy5rules6danger9injectionNtB7_24ModelDeserializationRuleNtBb_4Rule10visit_expr0Bd_
FNDA:2,_RNCNvXsa_NtNtNtCsbhXKu17xbPQ_9cytoscnpy5rules6danger9injectionNtB7_24ModelDeserializationRuleNtBb_4Rule10visit_exprs_0Bd_
FNDA:1670,_RNvXNtNtNtCsbhXKu17xbPQ_9cytoscnpy5rules6danger9injectionNtB2_8EvalRuleNtB6_4Rule10visit_expr
FNDA:11,_RNvXNtNtNtCsbhXKu17xbPQ_9cytoscnpy5rules6danger9injectionNtB2_8EvalRuleNtB6_4Rule4code
FNDA:0,_RNvXNtNtNtCsbhXKu17xbPQ_9cytoscnpy5rules6danger9injectionNtB2_8EvalRuleNtB6_4Rule4name
FNDA:1670,_RNvXs0_NtNtNtCsbhXKu17xbPQ_9cytoscnpy5rules6danger9injectionNtB5_10PickleRuleNtB9_4Rule10visit_expr
FNDA:9,_RNvXs0_NtNtNtCsbhXKu17xbPQ_9cytoscnpy5rules6danger9injectionNtB5_10PickleRuleNtB9_4Rule4code
FNDA:0,_RNvXs0_NtNtNtCsbhXKu17xbPQ_9cytoscnpy5rules6danger9injectionNtB5_10PickleRuleNtB9_4Rule4name
FNDA:1670,_RNvXs1_NtNtNtCsbhXKu17xbPQ_9cytoscnpy5rules6danger9injectionNtB5_8YamlRuleNtB9_4Rule10visit_expr
FNDA:3,_RNvXs1_NtNtNtCsbhXKu17xbPQ_9cytoscnpy5rules6danger9injectionNtB5_8YamlRuleNtB9_4Rule4code
FNDA:0,_RNvXs1_NtNtNtCsbhXKu17xbPQ_9cytoscnpy5rules6danger9injectionNtB5_8YamlRuleNtB9_4Rule4name
FNDA:1670,_RNvXs2_NtNtNtCsbhXKu17xbPQ_9cytoscnpy5rules6danger9injectionNtB5_14SubprocessRuleNtB9_4Rule10visit_expr
FNDA:18,_RNvXs2_NtNtNtCsbhXKu17xbPQ_9cytoscnpy5rules6danger9injectionNtB5_14SubprocessRuleNtB9_4Rule4code
FNDA:0,_RNvXs2_NtNtNtCsbhXKu17xbPQ_9cytoscnpy5rules6danger9injectionNtB5_14SubprocessRuleNtB9_4Rule4name
FNDA:1670,_RNvXs3_NtNtNtCsbhXKu17xbPQ_9cytoscnpy5rules6danger9injectionNtB5_16SqlInjectionRuleNtB9_4Rule10visit_expr
FNDA:7,_RNvXs3_NtNtNtCsbhXKu17xbPQ_9cytoscnpy5rules6danger9injectionNtB5_16SqlInjectionRuleNtB9_4Rule4code
FNDA:0,_RNvXs3_NtNtNtCsbhXKu17xbPQ_9cytoscnpy5rules6danger9injectionNtB5_16SqlInjectionRuleNtB9_4Rule4name
FNDA:1670,_RNvXs4_NtNtNtCsbhXKu17xbPQ_9cytoscnpy5rules6danger9injectionNtB5_19SqlInjectionRawRuleNtB9_4Rule10visit_expr
FNDA:6,_RNvXs4_NtNtNtCsbhXKu17xbPQ_9cytoscnpy5rules6danger9injectionNtB5_19SqlInjectionRawRuleNtB9_4Rule4code
FNDA:0,_RNvXs4_NtNtNtCsbhXKu17xbPQ_9cytoscnpy5rules6danger9injectionNtB5_19SqlInjectionRawRuleNtB9_4Rule4name
FNDA:1670,_RNvXs5_NtNtNtCsbhXKu17xbPQ_9cytoscnpy5rules6danger9injectionNtB5_7XSSRuleNtB9_4Rule10visit_expr
FNDA:6,_RNvXs5_NtNtNtCsbhXKu17xbPQ_9cytoscnpy5rules6danger9injectionNtB5_7XSSRuleNtB9_4Rule4code
FNDA:0,_RNvXs5_NtNtNtCsbhXKu17xbPQ_9cytoscnpy5rules6danger9injectionNtB5_7XSSRuleNtB9_4Rule4name
FNDA:1670,_RNvXs6_NtNtNtCsbhXKu17xbPQ_9cytoscnpy5rules6danger9injectionNtB5_7XmlRuleNtB9_4Rule10visit_expr
FNDA:25,_RNvXs6_NtNtNtCsbhXKu17xbPQ_9cytoscnpy5rules6danger9injectionNtB5_7XmlRuleNtB9_4Rule4code
FNDA:0,_RNvXs6_NtNtNtCsbhXKu17xbPQ_9cytoscnpy5rules6danger9injectionNtB5_7XmlRuleNtB9_4Rule4name
FNDA:1670,_RNvXs7_NtNtNtCsbhXKu17xbPQ_9cytoscnpy5rules6danger9injectionNtB5_21TarfileExtractionRuleNtB9_4Rule10visit_expr
FNDA:15,_RNvXs7_NtNtNtCsbhXKu17xbPQ_9cytoscnpy5rules6danger9injectionNtB5_21TarfileExtractionRuleNtB9_4Rule4code
FNDA:0,_RNvXs7_NtNtNtCsbhXKu17xbPQ_9cytoscnpy5rules6danger9injectionNtB5_21TarfileExtractionRuleNtB9_4Rule4name
FNDA:1670,_RNvXs8_NtNtNtCsbhXKu17xbPQ_9cytoscnpy5rules6danger9injectionNtB5_21ZipfileExtractionRuleNtB9_4Rule10visit_expr
FNDA:4,_RNvXs8_NtNtNtCsbhXKu17xbPQ_9cytoscnpy5rules6danger9injectionNtB5_21ZipfileExtractionRuleNtB9_4Rule4code
FNDA:0,_RNvXs8_NtNtNtCsbhXKu17xbPQ_9cytoscnpy5rules6danger9injectionNtB5_21ZipfileExtractionRuleNtB9_4Rule4name
FNDA:1670,_RNvXs9_NtNtNtCsbhXKu17xbPQ_9cytoscnpy5rules6danger9injectionNtB5_19AsyncSubprocessRuleNtB9_4Rule10visit_expr
FNDA:3,_RNvXs9_NtNtNtCsbhXKu17xbPQ_9cytoscnpy5rules6danger9injectionNtB5_19AsyncSubprocessRuleNtB9_4Rule4code
FNDA:0,_RNvXs9_NtNtNtCsbhXKu17xbPQ_9cytoscnpy5rules6danger9injectionNtB5_19AsyncSubprocessRuleNtB9_4Rule4name
FNDA:1670,_RNvXs_NtNtNtCsbhXKu17xbPQ_9cytoscnpy5rules6danger9injectionNtB4_8ExecRuleNtB8_4Rule10visit_expr
FNDA:4,_RNvXs_NtNtNtCsbhXKu17xbPQ_9cytoscnpy5rules6danger9injectionNtB4_8ExecRuleNtB8_4Rule4code
FNDA:0,_RNvXs_NtNtNtCsbhXKu17xbPQ_9cytoscnpy5rules6danger9injectionNtB4_8ExecRuleNtB8_4Rule4name
FNDA:1670,_RNvXsa_NtNtNtCsbhXKu17xbPQ_9cytoscnpy5rules6danger9injectionNtB5_24ModelDeserializationRuleNtB9_4Rule10visit_expr
FNDA:6,_RNvXsa_NtNtNtCsbhXKu17xbPQ_9cytoscnpy5rules6danger9injectionNtB5_24ModelDeserializationRuleNtB9_4Rule4code
FNDA:0,_RNvXsa_NtNtNtCsbhXKu17xbPQ_9cytoscnpy5rules6danger9injectionNtB5_24ModelDeserializationRuleNtB9_4Rule4name
FNDA:0,_RNvXNtNtNtCs2Eyh5DnjbiX_9cytoscnpy5rules6danger9injectionNtB2_8EvalRuleNtB6_4Rule10visit_expr
FNDA:0,_RNvXNtNtNtCs2Eyh5DnjbiX_9cytoscnpy5rules6danger9injectionNtB2_8EvalRuleNtB6_4Rule4code
FNDA:0,_RNvXNtNtNtCs2Eyh5DnjbiX_9cytoscnpy5rules6danger9injectionNtB2_8EvalRuleNtB6_4Rule4name
FNDA:0,_RNvXs0_NtNtNtCs2Eyh5DnjbiX_9cytoscnpy5rules6danger9injectionNtB5_10PickleRuleNtB9_4Rule10visit_expr
FNDA:0,_RNvXs0_NtNtNtCs2Eyh5DnjbiX_9cytoscnpy5rules6danger9injectionNtB5_10PickleRuleNtB9_4Rule4code
FNDA:0,_RNvXs0_NtNtNtCs2Eyh5DnjbiX_9cytoscnpy5rules6danger9injectionNtB5_10PickleRuleNtB9_4Rule4name
FNDA:0,_RNvXs1_NtNtNtCs2Eyh5DnjbiX_9cytoscnpy5rules6danger9injectionNtB5_8YamlRuleNtB9_4Rule10visit_expr
FNDA:0,_RNvXs1_NtNtNtCs2Eyh5DnjbiX_9cytoscnpy5rules6danger9injectionNtB5_8YamlRuleNtB9_4Rule4code
FNDA:0,_RNvXs1_NtNtNtCs2Eyh5DnjbiX_9cytoscnpy5rules6danger9injectionNtB5_8YamlRuleNtB9_4Rule4name
FNDA:0,_RNvXs2_NtNtNtCs2Eyh5DnjbiX_9cytoscnpy5rules6danger9injectionNtB5_14SubprocessRuleNtB9_4Rule10visit_expr
FNDA:0,_RNvXs2_NtNtNtCs2Eyh5DnjbiX_9cytoscnpy5rules6danger9injectionNtB5_14SubprocessRuleNtB9_4Rule4code
FNDA:0,_RNvXs2_NtNtNtCs2Eyh5DnjbiX_9cytoscnpy5rules6danger9injectionNtB5_14SubprocessRuleNtB9_4Rule4name
FNDA:0,_RNvXs3_NtNtNtCs2Eyh5DnjbiX_9cytoscnpy5rules6danger9injectionNtB5_16SqlInjectionRuleNtB9_4Rule10visit_expr
FNDA:0,_RNvXs3_NtNtNtCs2Eyh5DnjbiX_9cytoscnpy5rules6danger9injectionNtB5_16SqlInjectionRuleNtB9_4Rule4code
FNDA:0,_RNvXs3_NtNtNtCs2Eyh5DnjbiX_9cytoscnpy5rules6danger9injectionNtB5_16SqlInjectionRuleNtB9_4Rule4name
FNDA:0,_RNvXs4_NtNtNtCs2Eyh5DnjbiX_9cytoscnpy5rules6danger9injectionNtB5_19SqlInjectionRawRuleNtB9_4Rule10visit_expr
FNDA:0,_RNvXs4_NtNtNtCs2Eyh5DnjbiX_9cytoscnpy5rules6danger9injectionNtB5_19SqlInjectionRawRuleNtB9_4Rule4code
FNDA:0,_RNvXs4_NtNtNtCs2Eyh5DnjbiX_9cytoscnpy5rules6danger9injectionNtB5_19SqlInjectionRawRuleNtB9_4Rule4name
FNDA:0,_RNvXs5_NtNtNtCs2Eyh5DnjbiX_9cytoscnpy5rules6danger9injectionNtB5_7XSSRuleNtB9_4Rule10visit_expr
FNDA:0,_RNvXs5_NtNtNtCs2Eyh5DnjbiX_9cytoscnpy5rules6danger9injectionNtB5_7XSSRuleNtB9_4Rule4code
FNDA:0,_RNvXs5_NtNtNtCs2Eyh5DnjbiX_9cytoscnpy5rules6danger9injectionNtB5_7XSSRuleNtB9_4Rule4name
FNDA:0,_RNvXs6_NtNtNtCs2Eyh5DnjbiX_9cytoscnpy5rules6danger9injectionNtB5_7XmlRuleNtB9_4Rule10visit_expr
FNDA:0,_RNvXs6_NtNtNtCs2Eyh5DnjbiX_9cytoscnpy5rules6danger9injectionNtB5_7XmlRuleNtB9_4Rule4code
FNDA:0,_RNvXs6_NtNtNtCs2Eyh5DnjbiX_9cytoscnpy5rules6danger9injectionNtB5_7XmlRuleNtB9_4Rule4name
FNDA:0,_RNvXs7_NtNtNtCs2Eyh5DnjbiX_9cytoscnpy5rules6danger9injectionNtB5_21TarfileExtractionRuleNtB9_4Rule10visit_expr
FNDA:0,_RNvXs7_NtNtNtCs2Eyh5DnjbiX_9cytoscnpy5rules6danger9injectionNtB5_21TarfileExtractionRuleNtB9_4Rule4code
FNDA:0,_RNvXs7_NtNtNtCs2Eyh5DnjbiX_9cytoscnpy5rules6danger9injectionNtB5_21TarfileExtractionRuleNtB9_4Rule4name
FNDA:0,_RNvXs8_NtNtNtCs2Eyh5DnjbiX_9cytoscnpy5rules6danger9injectionNtB5_21ZipfileExtractionRuleNtB9_4Rule10visit_expr
FNDA:0,_RNvXs8_NtNtNtCs2Eyh5DnjbiX_9cytoscnpy5rules6danger9injectionNtB5_21ZipfileExtractionRuleNtB9_4Rule4code
FNDA:0,_RNvXs8_NtNtNtCs2Eyh5DnjbiX_9cytoscnpy5rules6danger9injectionNtB5_21ZipfileExtractionRuleNtB9_4Rule4name
FNDA:0,_RNvXs9_NtNtNtCs2Eyh5DnjbiX_9cytoscnpy5rules6danger9injectionNtB5_19AsyncSubprocessRuleNtB9_4Rule10visit_expr
FNDA:0,_RNvXs9_NtNtNtCs2Eyh5DnjbiX_9cytoscnpy5rules6danger9injectionNtB5_19AsyncSubprocessRuleNtB9_4Rule4code
FNDA:0,_RNvXs9_NtNtNtCs2Eyh5DnjbiX_9cytoscnpy5rules6danger9injectionNtB5_19AsyncSubprocessRuleNtB9_4Rule4name
FNDA:0,_RNvXs_NtNtNtCs2Eyh5DnjbiX_9cytoscnpy5rules6danger9injectionNtB4_8ExecRuleNtB8_4Rule10visit_expr
FNDA:0,_RNvXs_NtNtNtCs2Eyh5DnjbiX_9cytoscnpy5rules6danger9injectionNtB4_8ExecRuleNtB8_4Rule4code
FNDA:0,_RNvXs_NtNtNtCs2Eyh5DnjbiX_9cytoscnpy5rules6danger9injectionNtB4_8ExecRuleNtB8_4Rule4name
FNDA:0,_RNvXsa_NtNtNtCs2Eyh5DnjbiX_9cytoscnpy5rules6danger9injectionNtB5_24ModelDeserializationRuleNtB9_4Rule10visit_expr
FNDA:0,_RNvXsa_NtNtNtCs2Eyh5DnjbiX_9cytoscnpy5rules6danger9injectionNtB5_24ModelDeserializationRuleNtB9_4Rule4code
FNDA:0,_RNvXsa_NtNtNtCs2Eyh5DnjbiX_9cytoscnpy5rules6danger9injectionNtB5_24ModelDeserializationRuleNtB9_4Rule4name
FNDA:0,_RNCNCNvXs7_NtNtNtCs2Eyh5DnjbiX_9cytoscnpy5rules6danger9injectionNtB9_21TarfileExtractionRuleNtBd_4Rule10visit_expr00Bf_
FNDA:0,_RNCNvXs4_NtNtNtCs2Eyh5DnjbiX_9cytoscnpy5rules6danger9injectionNtB7_19SqlInjectionRawRuleNtBb_4Rule10visit_expr0Bd_
FNDA:0,_RNCNvXs4_NtNtNtCs2Eyh5DnjbiX_9cytoscnpy5rules6danger9injectionNtB7_19SqlInjectionRawRuleNtBb_4Rule10visit_exprs_0Bd_
FNDA:0,_RNCNvXs5_NtNtNtCs2Eyh5DnjbiX_9cytoscnpy5rules6danger9injectionNtB7_7XSSRuleNtBb_4Rule10visit_expr0Bd_
FNDA:0,_RNCNvXs7_NtNtNtCs2Eyh5DnjbiX_9cytoscnpy5rules6danger9injectionNtB7_21TarfileExtractionRuleNtBb_4Rule10visit_expr0Bd_
FNDA:0,_RNCNvXsa_NtNtNtCs2Eyh5DnjbiX_9cytoscnpy5rules6danger9injectionNtB7_24ModelDeserializationRuleNtBb_4Rule10visit_expr0Bd_
FNDA:0,_RNCNvXsa_NtNtNtCs2Eyh5DnjbiX_9cytoscnpy5rules6danger9injectionNtB7_24ModelDeserializationRuleNtBb_4Rule10visit_exprs_0Bd_
FNF:46
FNH:31
DA:12,0
DA:13,0
DA:14,0
DA:15,11
DA:16,11
DA:17,11
DA:18,1670
DA:19,1670
DA:20,380
DA:21,372
DA:22,11
DA:23,11
DA:24,11
DA:25,11
DA:26,11
DA:27,11
DA:28,11
DA:29,361
DA:30,8
DA:31,1290
DA:32,1659
DA:33,1670
DA:39,0
DA:40,0
DA:41,0
DA:42,4
DA:43,4
DA:44,4
DA:45,1670
DA:46,1670
DA:47,380
DA:48,372
DA:49,4
DA:50,4
DA:51,4
DA:52,4
DA:53,4
DA:54,4
DA:55,4
DA:56,368
DA:57,8
DA:58,1290
DA:59,1666
DA:60,1670
DA:66,0
DA:67,0
DA:68,0
DA:69,9
DA:70,9
DA:71,9
DA:72,1670
DA:73,1670
DA:74,380
DA:75,372
DA:76,368
DA:77,368
DA:78,367
DA:79,366
DA:80,365
DA:81,9
DA:82,4
DA:83,4
DA:84,3
DA:85,3
DA:86,2
DA:88,9
DA:89,9
DA:90,9
DA:91,9
DA:92,9
DA:93,9
DA:94,9
DA:95,363
DA:96,8
DA:97,1290
DA:98,1661
DA:99,1670
DA:105,0
DA:106,0
DA:107,0
DA:108,3
DA:109,3
DA:110,3
DA:111,1670
DA:112,1670
DA:113,380
DA:114,372
DA:115,4
DA:116,6
DA:117,2
DA:118,2
DA:119,2
DA:120,1
DA:121,1
DA:122,1
DA:123,1
DA:124,0
DA:125,0
DA:127,4
DA:128,3
DA:129,3
DA:130,3
DA:131,3
DA:132,3
DA:133,3
DA:134,3
DA:135,1
DA:136,368
DA:137,8
DA:138,1290
DA:139,1667
DA:140,1670
DA:146,0
DA:147,0
DA:148,0
DA:149,18
DA:150,18
DA:151,18
DA:152,1670
DA:153,1670
DA:154,380
DA:155,372
DA:156,8
DA:157,8
DA:158,8
DA:159,8
DA:160,8
DA:161,8
DA:162,8
DA:163,364
DA:164,364
DA:165,15
DA:166,15
DA:168,32
DA:169,17
DA:170,17
DA:171,17
DA:172,13
DA:173,13
DA:174,12
DA:175,12
DA:176,0
DA:178,4
DA:179,4
DA:180,4
DA:181,0
DA:183,0
DA:186,15
DA:187,12
DA:188,8
DA:189,8
DA:190,8
DA:191,8
DA:192,8
DA:193,8
DA:194,8
DA:195,4
DA:197,4
DA:198,3
DA:199,2
DA:200,2
DA:201,2
DA:202,2
DA:203,2
DA:204,2
DA:205,2
DA:206,1
DA:207,1
DA:208,3
DA:209,349
DA:210,8
DA:211,1290
DA:212,1652
DA:213,1670
DA:219,0
DA:220,0
DA:221,0
DA:222,7
DA:223,7
DA:224,7
DA:225,1670
DA:226,1670
DA:227,380
DA:228,372
DA:229,8
DA:230,8
DA:231,2
DA:232,2
DA:233,2
DA:234,2
DA:235,2
DA:236,2
DA:237,2
DA:238,6
DA:239,6
DA:240,2
DA:241,2
DA:242,2
DA:243,2
DA:244,2
DA:245,2
DA:246,2
DA:247,2
DA:248,2
DA:249,0
DA:250,0
DA:251,4
DA:252,4
DA:253,3
DA:254,1
DA:255,1
DA:256,1
DA:257,1
DA:258,1
DA:259,1
DA:260,1
DA:261,2
DA:262,2
DA:263,2
DA:264,2
DA:265,2
DA:266,2
DA:267,2
DA:268,2
DA:269,2
DA:270,0
DA:271,1
DA:272,0
DA:273,364
DA:274,8
DA:275,1290
DA:276,1663
DA:277,1670
DA:283,0
DA:284,0
DA:285,0
DA:286,6
DA:287,6
DA:288,6
DA:289,1670
DA:290,1670
DA:291,380
DA:293,380
DA:294,372
DA:295,370
DA:296,369
DA:297,368
DA:298,368
DA:299,5
DA:300,4
DA:301,4
DA:302,368
DA:303,8
DA:306,380
DA:307,376
DA:308,319
DA:309,319
DA:311,1
DA:312,1
DA:313,1
DA:315,1
DA:316,0
DA:317,0
DA:318,0
DA:319,0
DA:320,0
DA:321,0
DA:322,1
DA:323,1
DA:324,1
DA:325,0
DA:326,0
DA:327,0
DA:328,318
DA:330,1
DA:331,0
DA:332,0
DA:333,1
DA:334,1
DA:335,1
DA:337,0
DA:339,1
DA:340,1
DA:341,1
DA:342,317
DA:343,57
DA:344,4
DA:346,380
DA:347,6
DA:348,6
DA:349,6
DA:350,6
DA:351,6
DA:352,6
DA:353,6
DA:354,374
DA:355,1290
DA:356,1664
DA:357,1670
DA:363,0
DA:364,0
DA:365,0
DA:366,6
DA:367,6
DA:368,6
DA:369,1670
DA:370,1670
DA:371,380
DA:372,372
DA:373,370
DA:374,369
DA:375,368
DA:376,368
DA:377,367
DA:378,367
DA:379,6
DA:380,1
DA:381,1
DA:382,1
DA:383,1
DA:384,1
DA:386,6
DA:387,6
DA:388,6
DA:389,6
DA:390,6
DA:391,6
DA:392,6
DA:393,366
DA:394,8
DA:395,1290
DA:396,1664
DA:397,1670
DA:403,0
DA:404,0
DA:405,0
DA:406,25
DA:407,25
DA:408,25
DA:409,1670
DA:410,1670
DA:411,380
DA:412,372
DA:413,358
DA:414,358
DA:415,352
DA:416,351
DA:417,351
DA:418,350
DA:419,348
DA:420,347
DA:421,346
DA:423,27
DA:424,6
DA:425,6
DA:426,6
DA:427,6
DA:428,6
DA:429,6
DA:430,6
DA:431,21
DA:433,21
DA:434,21
DA:435,21
DA:436,19
DA:437,16
DA:438,15
DA:439,14
DA:440,8
DA:442,19
DA:443,2
DA:444,17
DA:445,3
DA:447,14
DA:450,19
DA:451,19
DA:452,19
DA:453,19
DA:454,19
DA:455,19
DA:456,19
DA:457,2
DA:458,345
DA:459,8
DA:460,1290
DA:461,1645
DA:462,1670
DA:468,0
DA:469,0
DA:470,0
DA:471,15
DA:472,15
DA:473,15
DA:474,1670
DA:475,1670
DA:476,380
DA:477,323
DA:478,305
DA:479,18
DA:481,18
DA:482,18
DA:484,18
DA:485,7
DA:486,5
DA:488,2
DA:490,7
DA:492,18
DA:493,5
DA:494,3
DA:495,3
DA:497,2
DA:500,5
DA:501,3
DA:502,2
DA:503,2
DA:504,2
DA:505,2
DA:506,2
DA:507,2
DA:508,2
DA:509,2
DA:510,2
DA:511,13
DA:512,13
DA:513,6
DA:514,6
DA:515,6
DA:516,6
DA:517,6
DA:518,6
DA:519,6
DA:520,7
DA:521,7
DA:522,7
DA:523,7
DA:524,7
DA:525,7
DA:526,7
DA:527,7
DA:528,57
DA:529,1290
DA:530,1347
DA:531,1670
DA:537,0
DA:538,0
DA:539,0
DA:540,4
DA:541,4
DA:542,4
DA:543,1670
DA:544,1670
DA:545,380
DA:546,323
DA:547,305
DA:548,18
DA:550,18
DA:551,18
DA:553,18
DA:554,4
DA:555,4
DA:556,4
DA:557,4
DA:558,4
DA:559,4
DA:560,4
DA:561,14
DA:562,57
DA:563,1290
DA:564,1361
DA:565,1670
DA:571,0
DA:572,0
DA:573,0
DA:574,3
DA:575,3
DA:576,3
DA:577,1670
DA:578,1670
DA:579,380
DA:580,372
DA:581,1
DA:582,1
DA:583,1
DA:584,1
DA:585,1
DA:586,1
DA:587,1
DA:588,371
DA:590,371
DA:591,369
DA:592,369
DA:593,369
DA:594,2
DA:596,1
DA:597,1
DA:598,1
DA:599,1
DA:600,1
DA:601,1
DA:602,1
DA:603,370
DA:605,370
DA:606,1
DA:607,1
DA:608,1
DA:609,1
DA:610,1
DA:611,1
DA:612,1
DA:613,369
DA:614,8
DA:615,1290
DA:616,1667
DA:617,1670
DA:623,0
DA:624,0
DA:625,0
DA:626,6
DA:627,6
DA:628,6
DA:629,1670
DA:630,1670
DA:631,380
DA:632,372
DA:633,3
DA:634,2
DA:635,2
DA:636,2
DA:637,2
DA:638,0
DA:639,0
DA:640,0
DA:641,0
DA:642,2
DA:643,3
DA:644,2
DA:645,2
DA:646,2
DA:647,2
DA:648,2
DA:649,2
DA:650,2
DA:651,1
DA:652,369
DA:654,370
DA:655,1
DA:656,1
DA:657,1
DA:658,1
DA:659,1
DA:660,1
DA:661,1
DA:662,369
DA:664,369
DA:665,368
DA:666,368
DA:667,366
DA:669,5
DA:670,2
DA:671,2
DA:672,2
DA:673,2
DA:674,0
DA:675,0
DA:676,0
DA:677,0
DA:678,2
DA:679,5
DA:680,3
DA:681,3
DA:682,3
DA:683,3
DA:684,3
DA:685,3
DA:686,3
DA:687,2
DA:688,364
DA:689,8
DA:690,1290
DA:691,1664
DA:692,1670
BRF:0
BRH:0
LF:588
LH:518
end_of_record
SF:E:\Github\CytoScnPy\cytoscnpy\src\rules\danger\misc.rs
FN:136,_RNvNtNtNtCsbhXKu17xbPQ_9cytoscnpy5rules6danger4misc20check_misc_blacklist
FN:282,_RNvNtNtNtCsbhXKu17xbPQ_9cytoscnpy5rules6danger4misc21check_insecure_module
FN:17,_RNvXNtNtNtCsbhXKu17xbPQ_9cytoscnpy5rules6danger4miscNtB2_14AssertUsedRuleNtB6_4Rule10enter_stmt
FN:14,_RNvXNtNtNtCsbhXKu17xbPQ_9cytoscnpy5rules6danger4miscNtB2_14AssertUsedRuleNtB6_4Rule4code
FN:11,_RNvXNtNtNtCsbhXKu17xbPQ_9cytoscnpy5rules6danger4miscNtB2_14AssertUsedRuleNtB6_4Rule4name
FN:77,_RNvXs0_NtNtNtCsbhXKu17xbPQ_9cytoscnpy5rules6danger4miscNtB5_20Jinja2AutoescapeRuleNtB9_4Rule10visit_expr
FN:74,_RNvXs0_NtNtNtCsbhXKu17xbPQ_9cytoscnpy5rules6danger4miscNtB5_20Jinja2AutoescapeRuleNtB9_4Rule4code
FN:71,_RNvXs0_NtNtNtCsbhXKu17xbPQ_9cytoscnpy5rules6danger4miscNtB5_20Jinja2AutoescapeRuleNtB9_4Rule4name
FN:114,_RNvXs1_NtNtNtCsbhXKu17xbPQ_9cytoscnpy5rules6danger4miscNtB5_17BlacklistCallRuleNtB9_4Rule10visit_expr
FN:111,_RNvXs1_NtNtNtCsbhXKu17xbPQ_9cytoscnpy5rules6danger4miscNtB5_17BlacklistCallRuleNtB9_4Rule4code
FN:108,_RNvXs1_NtNtNtCsbhXKu17xbPQ_9cytoscnpy5rules6danger4miscNtB5_17BlacklistCallRuleNtB9_4Rule4name
FN:179,_RNvXs2_NtNtNtCsbhXKu17xbPQ_9cytoscnpy5rules6danger4miscNtB5_24LoggingSensitiveDataRuleNtB9_4Rule10visit_expr
FN:176,_RNvXs2_NtNtNtCsbhXKu17xbPQ_9cytoscnpy5rules6danger4miscNtB5_24LoggingSensitiveDataRuleNtB9_4Rule4code
FN:173,_RNvXs2_NtNtNtCsbhXKu17xbPQ_9cytoscnpy5rules6danger4miscNtB5_24LoggingSensitiveDataRuleNtB9_4Rule4name
FN:218,_RNvXs3_NtNtNtCsbhXKu17xbPQ_9cytoscnpy5rules6danger4miscNtB5_18InsecureImportRuleNtB9_4Rule10enter_stmt
FN:215,_RNvXs3_NtNtNtCsbhXKu17xbPQ_9cytoscnpy5rules6danger4miscNtB5_18InsecureImportRuleNtB9_4Rule4code
FN:212,_RNvXs3_NtNtNtCsbhXKu17xbPQ_9cytoscnpy5rules6danger4miscNtB5_18InsecureImportRuleNtB9_4Rule4name
FN:40,_RNvXs_NtNtNtCsbhXKu17xbPQ_9cytoscnpy5rules6danger4miscNtB4_13DebugModeRuleNtB8_4Rule10visit_expr
FN:37,_RNvXs_NtNtNtCsbhXKu17xbPQ_9cytoscnpy5rules6danger4miscNtB4_13DebugModeRuleNtB8_4Rule4code
FN:34,_RNvXs_NtNtNtCsbhXKu17xbPQ_9cytoscnpy5rules6danger4miscNtB4_13DebugModeRuleNtB8_4Rule4name
FN:136,_RNvNtNtNtCs2Eyh5DnjbiX_9cytoscnpy5rules6danger4misc20check_misc_blacklist
FN:282,_RNvNtNtNtCs2Eyh5DnjbiX_9cytoscnpy5rules6danger4misc21check_insecure_module
FN:17,_RNvXNtNtNtCs2Eyh5DnjbiX_9cytoscnpy5rules6danger4miscNtB2_14AssertUsedRuleNtB6_4Rule10enter_stmt
FN:14,_RNvXNtNtNtCs2Eyh5DnjbiX_9cytoscnpy5rules6danger4miscNtB2_14AssertUsedRuleNtB6_4Rule4code
FN:11,_RNvXNtNtNtCs2Eyh5DnjbiX_9cytoscnpy5rules6danger4miscNtB2_14AssertUsedRuleNtB6_4Rule4name
FN:77,_RNvXs0_NtNtNtCs2Eyh5DnjbiX_9cytoscnpy5rules6danger4miscNtB5_20Jinja2AutoescapeRuleNtB9_4Rule10visit_expr
FN:74,_RNvXs0_NtNtNtCs2Eyh5DnjbiX_9cytoscnpy5rules6danger4miscNtB5_20Jinja2AutoescapeRuleNtB9_4Rule4code
FN:71,_RNvXs0_NtNtNtCs2Eyh5DnjbiX_9cytoscnpy5rules6danger4miscNtB5_20Jinja2AutoescapeRuleNtB9_4Rule4name
FN:114,_RNvXs1_NtNtNtCs2Eyh5DnjbiX_9cytoscnpy5rules6danger4miscNtB5_17BlacklistCallRuleNtB9_4Rule10visit_expr
FN:111,_RNvXs1_NtNtNtCs2Eyh5DnjbiX_9cytoscnpy5rules6danger4miscNtB5_17BlacklistCallRuleNtB9_4Rule4code
FN:108,_RNvXs1_NtNtNtCs2Eyh5DnjbiX_9cytoscnpy5rules6danger4miscNtB5_17BlacklistCallRuleNtB9_4Rule4name
FN:179,_RNvXs2_NtNtNtCs2Eyh5DnjbiX_9cytoscnpy5rules6danger4miscNtB5_24LoggingSensitiveDataRuleNtB9_4Rule10visit_expr
FN:176,_RNvXs2_NtNtNtCs2Eyh5DnjbiX_9cytoscnpy5rules6danger4miscNtB5_24LoggingSensitiveDataRuleNtB9_4Rule4code
FN:173,_RNvXs2_NtNtNtCs2Eyh5DnjbiX_9cytoscnpy5rules6danger4miscNtB5_24LoggingSensitiveDataRuleNtB9_4Rule4name
FN:218,_RNvXs3_NtNtNtCs2Eyh5DnjbiX_9cytoscnpy5rules6danger4miscNtB5_18InsecureImportRuleNtB9_4Rule10enter_stmt
FN:215,_RNvXs3_NtNtNtCs2Eyh5DnjbiX_9cytoscnpy5rules6danger4miscNtB5_18InsecureImportRuleNtB9_4Rule4code
FN:212,_RNvXs3_NtNtNtCs2Eyh5DnjbiX_9cytoscnpy5rules6danger4miscNtB5_18InsecureImportRuleNtB9_4Rule4name
FN:40,_RNvXs_NtNtNtCs2Eyh5DnjbiX_9cytoscnpy5rules6danger4miscNtB4_13DebugModeRuleNtB8_4Rule10visit_expr
FN:37,_RNvXs_NtNtNtCs2Eyh5DnjbiX_9cytoscnpy5rules6danger4miscNtB4_13DebugModeRuleNtB8_4Rule4code
FN:34,_RNvXs_NtNtNtCs2Eyh5DnjbiX_9cytoscnpy5rules6danger4miscNtB4_13DebugModeRuleNtB8_4Rule4name
FNDA:347,_RNvNtNtNtCsbhXKu17xbPQ_9cytoscnpy5rules6danger4misc20check_misc_blacklist
FNDA:206,_RNvNtNtNtCsbhXKu17xbPQ_9cytoscnpy5rules6danger4misc21check_insecure_module
FNDA:756,_RNvXNtNtNtCsbhXKu17xbPQ_9cytoscnpy5rules6danger4miscNtB2_14AssertUsedRuleNtB6_4Rule10enter_stmt
FNDA:2,_RNvXNtNtNtCsbhXKu17xbPQ_9cytoscnpy5rules6danger4miscNtB2_14AssertUsedRuleNtB6_4Rule4code
FNDA:0,_RNvXNtNtNtCsbhXKu17xbPQ_9cytoscnpy5rules6danger4miscNtB2_14AssertUsedRuleNtB6_4Rule4name
FNDA:1670,_RNvXs0_NtNtNtCsbhXKu17xbPQ_9cytoscnpy5rules6danger4miscNtB5_20Jinja2AutoescapeRuleNtB9_4Rule10visit_expr
FNDA:3,_RNvXs0_NtNtNtCsbhXKu17xbPQ_9cytoscnpy5rules6danger4miscNtB5_20Jinja2AutoescapeRuleNtB9_4Rule4code
FNDA:0,_RNvXs0_NtNtNtCsbhXKu17xbPQ_9cytoscnpy5rules6danger4miscNtB5_20Jinja2AutoescapeRuleNtB9_4Rule4name
FNDA:1670,_RNvXs1_NtNtNtCsbhXKu17xbPQ_9cytoscnpy5rules6danger4miscNtB5_17BlacklistCallRuleNtB9_4Rule10visit_expr
FNDA:0,_RNvXs1_NtNtNtCsbhXKu17xbPQ_9cytoscnpy5rules6danger4miscNtB5_17BlacklistCallRuleNtB9_4Rule4code
FNDA:0,_RNvXs1_NtNtNtCsbhXKu17xbPQ_9cytoscnpy5rules6danger4miscNtB5_17BlacklistCallRuleNtB9_4Rule4name
FNDA:1670,_RNvXs2_NtNtNtCsbhXKu17xbPQ_9cytoscnpy5rules6danger4miscNtB5_24LoggingSensitiveDataRuleNtB9_4Rule10visit_expr
FNDA:3,_RNvXs2_NtNtNtCsbhXKu17xbPQ_9cytoscnpy5rules6danger4miscNtB5_24LoggingSensitiveDataRuleNtB9_4Rule4code
FNDA:0,_RNvXs2_NtNtNtCsbhXKu17xbPQ_9cytoscnpy5rules6danger4miscNtB5_24LoggingSensitiveDataRuleNtB9_4Rule4name
FNDA:756,_RNvXs3_NtNtNtCsbhXKu17xbPQ_9cytoscnpy5rules6danger4miscNtB5_18InsecureImportRuleNtB9_4Rule10enter_stmt
FNDA:66,_RNvXs3_NtNtNtCsbhXKu17xbPQ_9cytoscnpy5rules6danger4miscNtB5_18InsecureImportRuleNtB9_4Rule4code
FNDA:0,_RNvXs3_NtNtNtCsbhXKu17xbPQ_9cytoscnpy5rules6danger4miscNtB5_18InsecureImportRuleNtB9_4Rule4name
FNDA:1670,_RNvXs_NtNtNtCsbhXKu17xbPQ_9cytoscnpy5rules6danger4miscNtB4_13DebugModeRuleNtB8_4Rule10visit_expr
FNDA:3,_RNvXs_NtNtNtCsbhXKu17xbPQ_9cytoscnpy5rules6danger4miscNtB4_13DebugModeRuleNtB8_4Rule4code
FNDA:0,_RNvXs_NtNtNtCsbhXKu17xbPQ_9cytoscnpy5rules6danger4miscNtB4_13DebugModeRuleNtB8_4Rule4name
FNDA:0,_RNvNtNtNtCs2Eyh5DnjbiX_9cytoscnpy5rules6danger4misc20check_misc_blacklist
FNDA:0,_RNvNtNtNtCs2Eyh5DnjbiX_9cytoscnpy5rules6danger4misc21check_insecure_module
FNDA:0,_RNvXNtNtNtCs2Eyh5DnjbiX_9cytoscnpy5rules6danger4miscNtB2_14AssertUsedRuleNtB6_4Rule10enter_stmt
FNDA:0,_RNvXNtNtNtCs2Eyh5DnjbiX_9cytoscnpy5rules6danger4miscNtB2_14AssertUsedRuleNtB6_4Rule4code
FNDA:0,_RNvXNtNtNtCs2Eyh5DnjbiX_9cytoscnpy5rules6danger4miscNtB2_14AssertUsedRuleNtB6_4Rule4name
FNDA:0,_RNvXs0_NtNtNtCs2Eyh5DnjbiX_9cytoscnpy5rules6danger4miscNtB5_20Jinja2AutoescapeRuleNtB9_4Rule10visit_expr
FNDA:0,_RNvXs0_NtNtNtCs2Eyh5DnjbiX_9cytoscnpy5rules6danger4miscNtB5_20Jinja2AutoescapeRuleNtB9_4Rule4code
FNDA:0,_RNvXs0_NtNtNtCs2Eyh5DnjbiX_9cytoscnpy5rules6danger4miscNtB5_20Jinja2AutoescapeRuleNtB9_4Rule4name
FNDA:0,_RNvXs1_NtNtNtCs2Eyh5DnjbiX_9cytoscnpy5rules6danger4miscNtB5_17BlacklistCallRuleNtB9_4Rule10visit_expr
FNDA:0,_RNvXs1_NtNtNtCs2Eyh5DnjbiX_9cytoscnpy5rules6danger4miscNtB5_17BlacklistCallRuleNtB9_4Rule4code
FNDA:0,_RNvXs1_NtNtNtCs2Eyh5DnjbiX_9cytoscnpy5rules6danger4miscNtB5_17BlacklistCallRuleNtB9_4Rule4name
FNDA:0,_RNvXs2_NtNtNtCs2Eyh5DnjbiX_9cytoscnpy5rules6danger4miscNtB5_24LoggingSensitiveDataRuleNtB9_4Rule10visit_expr
FNDA:0,_RNvXs2_NtNtNtCs2Eyh5DnjbiX_9cytoscnpy5rules6danger4miscNtB5_24LoggingSensitiveDataRuleNtB9_4Rule4code
FNDA:0,_RNvXs2_NtNtNtCs2Eyh5DnjbiX_9cytoscnpy5rules6danger4miscNtB5_24LoggingSensitiveDataRuleNtB9_4Rule4name
FNDA:0,_RNvXs3_NtNtNtCs2Eyh5DnjbiX_9cytoscnpy5rules6danger4miscNtB5_18InsecureImportRuleNtB9_4Rule10enter_stmt
FNDA:0,_RNvXs3_NtNtNtCs2Eyh5DnjbiX_9cytoscnpy5rules6danger4miscNtB5_18InsecureImportRuleNtB9_4Rule4code
FNDA:0,_RNvXs3_NtNtNtCs2Eyh5DnjbiX_9cytoscnpy5rules6danger4miscNtB5_18InsecureImportRuleNtB9_4Rule4name
FNDA:0,_RNvXs_NtNtNtCs2Eyh5DnjbiX_9cytoscnpy5rules6danger4miscNtB4_13DebugModeRuleNtB8_4Rule10visit_expr
FNDA:0,_RNvXs_NtNtNtCs2Eyh5DnjbiX_9cytoscnpy5rules6danger4miscNtB4_13DebugModeRuleNtB8_4Rule4code
FNDA:0,_RNvXs_NtNtNtCs2Eyh5DnjbiX_9cytoscnpy5rules6danger4miscNtB4_13DebugModeRuleNtB8_4Rule4name
FNF:20
FNH:13
DA:11,0
DA:12,0
DA:13,0
DA:14,2
DA:15,2
DA:16,2
DA:17,756
DA:18,756
DA:19,2
DA:20,2
DA:21,2
DA:22,2
DA:23,2
DA:24,2
DA:25,2
DA:26,754
DA:27,754
DA:28,756
DA:34,0
DA:35,0
DA:36,0
DA:37,3
DA:38,3
DA:39,3
DA:40,1670
DA:41,1670
DA:42,380
DA:43,372
DA:44,28
DA:45,15
DA:46,15
DA:47,5
DA:48,5
DA:49,3
DA:50,3
DA:51,3
DA:52,3
DA:53,3
DA:54,3
DA:55,3
DA:56,2
DA:57,0
DA:58,10
DA:59,0
DA:61,356
DA:62,8
DA:63,1290
DA:64,1667
DA:65,1670
DA:71,0
DA:72,0
DA:73,0
DA:74,3
DA:75,3
DA:76,3
DA:77,1670
DA:78,1670
DA:79,380
DA:80,372
DA:81,8
DA:82,6
DA:83,6
DA:84,5
DA:85,5
DA:86,3
DA:87,3
DA:88,3
DA:89,3
DA:90,3
DA:91,3
DA:92,3
DA:93,2
DA:94,0
DA:95,1
DA:96,0
DA:98,367
DA:99,8
DA:100,1290
DA:101,1667
DA:102,1670
DA:108,0
DA:109,0
DA:110,0
DA:111,0
DA:112,0
DA:113,0
DA:114,1670
DA:115,1670
DA:116,380
DA:117,372
DA:118,8
DA:119,364
DA:120,364
DA:121,4
DA:122,360
DA:123,360
DA:124,13
DA:125,347
DA:126,347
DA:127,11
DA:128,336
DA:129,8
DA:130,1290
DA:131,1634
DA:132,1670
DA:136,347
DA:138,347
DA:139,1
DA:140,1
DA:141,1
DA:142,1
DA:143,1
DA:144,1
DA:145,1
DA:146,346
DA:148,346
DA:149,6
DA:150,6
DA:151,6
DA:152,6
DA:153,6
DA:154,6
DA:155,6
DA:156,340
DA:158,340
DA:159,4
DA:160,4
DA:161,4
DA:162,4
DA:163,4
DA:164,4
DA:165,4
DA:166,336
DA:167,336
DA:168,347
DA:173,0
DA:174,0
DA:175,0
DA:176,3
DA:177,3
DA:178,3
DA:179,1670
DA:180,1670
DA:181,380
DA:182,372
DA:183,369
DA:184,368
DA:185,368
DA:186,368
DA:187,368
DA:188,368
DA:189,368
DA:191,5
DA:192,4
DA:193,3
DA:194,3
DA:195,3
DA:196,3
DA:197,3
DA:198,3
DA:199,3
DA:200,1
DA:202,368
DA:203,8
DA:204,1290
DA:205,1667
DA:206,1670
DA:212,0
DA:213,0
DA:214,0
DA:215,66
DA:216,66
DA:217,66
DA:218,756
DA:219,756
DA:220,165
DA:221,165
DA:222,330
DA:223,165
DA:224,60
DA:225,60
DA:226,60
DA:227,60
DA:228,60
DA:229,60
DA:230,60
DA:231,105
DA:233,165
DA:234,60
DA:235,105
DA:237,19
DA:238,19
DA:239,19
DA:240,19
DA:241,19
DA:242,19
DA:244,19
DA:245,2
DA:246,2
DA:247,2
DA:248,2
DA:249,2
DA:250,2
DA:251,2
DA:252,17
DA:254,17
DA:255,39
DA:256,22
DA:257,0
DA:259,22
DA:262,22
DA:263,4
DA:264,4
DA:265,4
DA:266,4
DA:267,4
DA:268,4
DA:269,4
DA:270,18
DA:272,17
DA:273,4
DA:274,13
DA:276,572
DA:278,690
DA:279,756
DA:282,206
DA:283,206
DA:284,5
DA:285,5
DA:286,5
DA:287,5
DA:288,201
DA:289,201
DA:290,5
DA:291,196
DA:292,196
DA:293,2
DA:294,2
DA:295,2
DA:296,2
DA:297,194
DA:298,194
DA:299,3
DA:300,191
DA:301,191
DA:302,3
DA:303,188
DA:304,188
DA:305,4
DA:306,4
DA:307,4
DA:308,4
DA:309,184
DA:310,184
DA:311,1
DA:312,1
DA:313,1
DA:314,1
DA:315,183
DA:316,183
DA:317,1
DA:318,1
DA:319,1
DA:320,1
DA:321,182
DA:323,182
DA:324,11
DA:325,11
DA:326,11
DA:327,11
DA:328,171
DA:330,171
DA:331,12
DA:332,12
DA:333,12
DA:334,12
DA:335,159
DA:337,12
DA:338,159
DA:339,159
DA:340,159
DA:341,154
DA:342,150
DA:343,149
DA:344,148
DA:345,147
DA:346,147
DA:347,147
DA:348,147
DA:349,146
DA:351,19
DA:352,19
DA:353,19
DA:354,19
DA:355,140
DA:357,140
DA:358,206
BRF:0
BRH:0
LF:297
LH:271
end_of_record
SF:E:\Github\CytoScnPy\cytoscnpy\src\rules\danger\mod.rs
FN:39,_RNvNtNtCsbhXKu17xbPQ_9cytoscnpy5rules6danger16get_danger_rules
FN:39,_RNvNtNtCs2Eyh5DnjbiX_9cytoscnpy5rules6danger16get_danger_rules
FNDA:128,_RNvNtNtCsbhXKu17xbPQ_9cytoscnpy5rules6danger16get_danger_rules
FNDA:0,_RNvNtNtCs2Eyh5DnjbiX_9cytoscnpy5rules6danger16get_danger_rules
FNF:1
FNH:1
DA:39,128
DA:40,128
DA:44,128
DA:45,128
DA:46,128
DA:50,128
DA:51,128
DA:52,128
DA:53,128
DA:57,128
DA:58,128
DA:62,128
DA:66,128
DA:67,128
DA:71,128
DA:72,128
DA:73,128
DA:74,128
DA:75,128
DA:79,128
DA:83,128
DA:87,128
DA:88,128
DA:89,128
DA:90,128
DA:91,128
DA:92,128
DA:93,128
DA:94,128
DA:98,128
DA:99,128
DA:100,128
DA:102,128
BRF:0
BRH:0
LF:33
LH:33
end_of_record
SF:E:\Github\CytoScnPy\cytoscnpy\src\rules\danger\network.rs
FN:303,_RNCNCNvNtNtNtCsbhXKu17xbPQ_9cytoscnpy5rules6danger7network21check_network_and_ssl00Bb_
FN:303,_RNCNvNtNtNtCsbhXKu17xbPQ_9cytoscnpy5rules6danger7network21check_network_and_ssl0B9_
FN:137,_RNCNvXs0_NtNtNtCsbhXKu17xbPQ_9cytoscnpy5rules6danger7networkNtB7_30HardcodedBindAllInterfacesRuleNtBb_4Rule10enter_stmt0Bd_
FN:256,_RNCNvXs1_NtNtNtCsbhXKu17xbPQ_9cytoscnpy5rules6danger7networkNtB7_25RequestWithoutTimeoutRuleNtBb_4Rule10visit_expr0Bd_
FN:289,_RNvNtNtNtCsbhXKu17xbPQ_9cytoscnpy5rules6danger7network21check_network_and_ssl
FN:15,_RNvXNtNtNtCsbhXKu17xbPQ_9cytoscnpy5rules6danger7networkNtB2_12RequestsRuleNtB6_4Rule10visit_expr
FN:12,_RNvXNtNtNtCsbhXKu17xbPQ_9cytoscnpy5rules6danger7networkNtB2_12RequestsRuleNtB6_4Rule4code
FN:9,_RNvXNtNtNtCsbhXKu17xbPQ_9cytoscnpy5rules6danger7networkNtB2_12RequestsRuleNtB6_4Rule4name
FN:134,_RNvXs0_NtNtNtCsbhXKu17xbPQ_9cytoscnpy5rules6danger7networkNtB5_30HardcodedBindAllInterfacesRuleNtB9_4Rule10enter_stmt
FN:186,_RNvXs0_NtNtNtCsbhXKu17xbPQ_9cytoscnpy5rules6danger7networkNtB5_30HardcodedBindAllInterfacesRuleNtB9_4Rule10visit_expr
FN:131,_RNvXs0_NtNtNtCsbhXKu17xbPQ_9cytoscnpy5rules6danger7networkNtB5_30HardcodedBindAllInterfacesRuleNtB9_4Rule4code
FN:128,_RNvXs0_NtNtNtCsbhXKu17xbPQ_9cytoscnpy5rules6danger7networkNtB5_30HardcodedBindAllInterfacesRuleNtB9_4Rule4name
FN:242,_RNvXs1_NtNtNtCsbhXKu17xbPQ_9cytoscnpy5rules6danger7networkNtB5_25RequestWithoutTimeoutRuleNtB9_4Rule10visit_expr
FN:239,_RNvXs1_NtNtNtCsbhXKu17xbPQ_9cytoscnpy5rules6danger7networkNtB5_25RequestWithoutTimeoutRuleNtB9_4Rule4code
FN:236,_RNvXs1_NtNtNtCsbhXKu17xbPQ_9cytoscnpy5rules6danger7networkNtB5_25RequestWithoutTimeoutRuleNtB9_4Rule4name
FN:52,_RNvXs_NtNtNtCsbhXKu17xbPQ_9cytoscnpy5rules6danger7networkNtB4_8SSRFRuleNtB8_4Rule10visit_expr
FN:49,_RNvXs_NtNtNtCsbhXKu17xbPQ_9cytoscnpy5rules6danger7networkNtB4_8SSRFRuleNtB8_4Rule4code
FN:46,_RNvXs_NtNtNtCsbhXKu17xbPQ_9cytoscnpy5rules6danger7networkNtB4_8SSRFRuleNtB8_4Rule4name
FN:303,_RNCNCNvNtNtNtCs2Eyh5DnjbiX_9cytoscnpy5rules6danger7network21check_network_and_ssl00Bb_
FN:303,_RNCNvNtNtNtCs2Eyh5DnjbiX_9cytoscnpy5rules6danger7network21check_network_and_ssl0B9_
FN:137,_RNCNvXs0_NtNtNtCs2Eyh5DnjbiX_9cytoscnpy5rules6danger7networkNtB7_30HardcodedBindAllInterfacesRuleNtBb_4Rule10enter_stmt0Bd_
FN:256,_RNCNvXs1_NtNtNtCs2Eyh5DnjbiX_9cytoscnpy5rules6danger7networkNtB7_25RequestWithoutTimeoutRuleNtBb_4Rule10visit_expr0Bd_
FN:289,_RNvNtNtNtCs2Eyh5DnjbiX_9cytoscnpy5rules6danger7network21check_network_and_ssl
FN:15,_RNvXNtNtNtCs2Eyh5DnjbiX_9cytoscnpy5rules6danger7networkNtB2_12RequestsRuleNtB6_4Rule10visit_expr
FN:12,_RNvXNtNtNtCs2Eyh5DnjbiX_9cytoscnpy5rules6danger7networkNtB2_12RequestsRuleNtB6_4Rule4code
FN:9,_RNvXNtNtNtCs2Eyh5DnjbiX_9cytoscnpy5rules6danger7networkNtB2_12RequestsRuleNtB6_4Rule4name
FN:134,_RNvXs0_NtNtNtCs2Eyh5DnjbiX_9cytoscnpy5rules6danger7networkNtB5_30HardcodedBindAllInterfacesRuleNtB9_4Rule10enter_stmt
FN:186,_RNvXs0_NtNtNtCs2Eyh5DnjbiX_9cytoscnpy5rules6danger7networkNtB5_30HardcodedBindAllInterfacesRuleNtB9_4Rule10visit_expr
FN:131,_RNvXs0_NtNtNtCs2Eyh5DnjbiX_9cytoscnpy5rules6danger7networkNtB5_30HardcodedBindAllInterfacesRuleNtB9_4Rule4code
FN:128,_RNvXs0_NtNtNtCs2Eyh5DnjbiX_9cytoscnpy5rules6danger7networkNtB5_30HardcodedBindAllInterfacesRuleNtB9_4Rule4name
FN:242,_RNvXs1_NtNtNtCs2Eyh5DnjbiX_9cytoscnpy5rules6danger7networkNtB5_25RequestWithoutTimeoutRuleNtB9_4Rule10visit_expr
FN:239,_RNvXs1_NtNtNtCs2Eyh5DnjbiX_9cytoscnpy5rules6danger7networkNtB5_25RequestWithoutTimeoutRuleNtB9_4Rule4code
FN:236,_RNvXs1_NtNtNtCs2Eyh5DnjbiX_9cytoscnpy5rules6danger7networkNtB5_25RequestWithoutTimeoutRuleNtB9_4Rule4name
FN:52,_RNvXs_NtNtNtCs2Eyh5DnjbiX_9cytoscnpy5rules6danger7networkNtB4_8SSRFRuleNtB8_4Rule10visit_expr
FN:49,_RNvXs_NtNtNtCs2Eyh5DnjbiX_9cytoscnpy5rules6danger7networkNtB4_8SSRFRuleNtB8_4Rule4code
FN:46,_RNvXs_NtNtNtCs2Eyh5DnjbiX_9cytoscnpy5rules6danger7networkNtB4_8SSRFRuleNtB8_4Rule4name
FNDA:2,_RNCNCNvNtNtNtCsbhXKu17xbPQ_9cytoscnpy5rules6danger7network21check_network_and_ssl00Bb_
FNDA:2,_RNCNvNtNtNtCsbhXKu17xbPQ_9cytoscnpy5rules6danger7network21check_network_and_ssl0B9_
FNDA:95,_RNCNvXs0_NtNtNtCsbhXKu17xbPQ_9cytoscnpy5rules6danger7networkNtB7_30HardcodedBindAllInterfacesRuleNtBb_4Rule10enter_stmt0Bd_
FNDA:27,_RNCNvXs1_NtNtNtCsbhXKu17xbPQ_9cytoscnpy5rules6danger7networkNtB7_25RequestWithoutTimeoutRuleNtBb_4Rule10visit_expr0Bd_
FNDA:360,_RNvNtNtNtCsbhXKu17xbPQ_9cytoscnpy5rules6danger7network21check_network_and_ssl
FNDA:1670,_RNvXNtNtNtCsbhXKu17xbPQ_9cytoscnpy5rules6danger7networkNtB2_12RequestsRuleNtB6_4Rule10visit_expr
FNDA:2,_RNvXNtNtNtCsbhXKu17xbPQ_9cytoscnpy5rules6danger7networkNtB2_12RequestsRuleNtB6_4Rule4code
FNDA:0,_RNvXNtNtNtCsbhXKu17xbPQ_9cytoscnpy5rules6danger7networkNtB2_12RequestsRuleNtB6_4Rule4name
FNDA:756,_RNvXs0_NtNtNtCsbhXKu17xbPQ_9cytoscnpy5rules6danger7networkNtB5_30HardcodedBindAllInterfacesRuleNtB9_4Rule10enter_stmt
FNDA:1670,_RNvXs0_NtNtNtCsbhXKu17xbPQ_9cytoscnpy5rules6danger7networkNtB5_30HardcodedBindAllInterfacesRuleNtB9_4Rule10visit_expr
FNDA:12,_RNvXs0_NtNtNtCsbhXKu17xbPQ_9cytoscnpy5rules6danger7networkNtB5_30HardcodedBindAllInterfacesRuleNtB9_4Rule4code
FNDA:0,_RNvXs0_NtNtNtCsbhXKu17xbPQ_9cytoscnpy5rules6danger7networkNtB5_30HardcodedBindAllInterfacesRuleNtB9_4Rule4name
FNDA:1670,_RNvXs1_NtNtNtCsbhXKu17xbPQ_9cytoscnpy5rules6danger7networkNtB5_25RequestWithoutTimeoutRuleNtB9_4Rule10visit_expr
FNDA:29,_RNvXs1_NtNtNtCsbhXKu17xbPQ_9cytoscnpy5rules6danger7networkNtB5_25RequestWithoutTimeoutRuleNtB9_4Rule4code
FNDA:0,_RNvXs1_NtNtNtCsbhXKu17xbPQ_9cytoscnpy5rules6danger7networkNtB5_25RequestWithoutTimeoutRuleNtB9_4Rule4name
FNDA:1670,_RNvXs_NtNtNtCsbhXKu17xbPQ_9cytoscnpy5rules6danger7networkNtB4_8SSRFRuleNtB8_4Rule10visit_expr
FNDA:13,_RNvXs_NtNtNtCsbhXKu17xbPQ_9cytoscnpy5rules6danger7networkNtB4_8SSRFRuleNtB8_4Rule4code
FNDA:0,_RNvXs_NtNtNtCsbhXKu17xbPQ_9cytoscnpy5rules6danger7networkNtB4_8SSRFRuleNtB8_4Rule4name
FNDA:0,_RNCNCNvNtNtNtCs2Eyh5DnjbiX_9cytoscnpy5rules6danger7network21check_network_and_ssl00Bb_
FNDA:0,_RNCNvNtNtNtCs2Eyh5DnjbiX_9cytoscnpy5rules6danger7network21check_network_and_ssl0B9_
FNDA:0,_RNCNvXs0_NtNtNtCs2Eyh5DnjbiX_9cytoscnpy5rules6danger7networkNtB7_30HardcodedBindAllInterfacesRuleNtBb_4Rule10enter_stmt0Bd_
FNDA:0,_RNCNvXs1_NtNtNtCs2Eyh5DnjbiX_9cytoscnpy5rules6danger7networkNtB7_25RequestWithoutTimeoutRuleNtBb_4Rule10visit_expr0Bd_
FNDA:0,_RNvNtNtNtCs2Eyh5DnjbiX_9cytoscnpy5rules6danger7network21check_network_and_ssl
FNDA:0,_RNvXNtNtNtCs2Eyh5DnjbiX_9cytoscnpy5rules6danger7networkNtB2_12RequestsRuleNtB6_4Rule10visit_expr
FNDA:0,_RNvXNtNtNtCs2Eyh5DnjbiX_9cytoscnpy5rules6danger7networkNtB2_12RequestsRuleNtB6_4Rule4code
FNDA:0,_RNvXNtNtNtCs2Eyh5DnjbiX_9cytoscnpy5rules6danger7networkNtB2_12RequestsRuleNtB6_4Rule4name
FNDA:0,_RNvXs0_NtNtNtCs2Eyh5DnjbiX_9cytoscnpy5rules6danger7networkNtB5_30HardcodedBindAllInterfacesRuleNtB9_4Rule10enter_stmt
FNDA:0,_RNvXs0_NtNtNtCs2Eyh5DnjbiX_9cytoscnpy5rules6danger7networkNtB5_30HardcodedBindAllInterfacesRuleNtB9_4Rule10visit_expr
FNDA:0,_RNvXs0_NtNtNtCs2Eyh5DnjbiX_9cytoscnpy5rules6danger7networkNtB5_30HardcodedBindAllInterfacesRuleNtB9_4Rule4code
FNDA:0,_RNvXs0_NtNtNtCs2Eyh5DnjbiX_9cytoscnpy5rules6danger7networkNtB5_30HardcodedBindAllInterfacesRuleNtB9_4Rule4name
FNDA:0,_RNvXs1_NtNtNtCs2Eyh5DnjbiX_9cytoscnpy5rules6danger7networkNtB5_25RequestWithoutTimeoutRuleNtB9_4Rule10visit_expr
FNDA:0,_RNvXs1_NtNtNtCs2Eyh5DnjbiX_9cytoscnpy5rules6danger7networkNtB5_25RequestWithoutTimeoutRuleNtB9_4Rule4code
FNDA:0,_RNvXs1_NtNtNtCs2Eyh5DnjbiX_9cytoscnpy5rules6danger7networkNtB5_25RequestWithoutTimeoutRuleNtB9_4Rule4name
FNDA:0,_RNvXs_NtNtNtCs2Eyh5DnjbiX_9cytoscnpy5rules6danger7networkNtB4_8SSRFRuleNtB8_4Rule10visit_expr
FNDA:0,_RNvXs_NtNtNtCs2Eyh5DnjbiX_9cytoscnpy5rules6danger7networkNtB4_8SSRFRuleNtB8_4Rule4code
FNDA:0,_RNvXs_NtNtNtCs2Eyh5DnjbiX_9cytoscnpy5rules6danger7networkNtB4_8SSRFRuleNtB8_4Rule4name
FNF:18
FNH:14
DA:9,0
DA:10,0
DA:11,0
DA:12,2
DA:13,2
DA:14,2
DA:15,1670
DA:16,1670
DA:17,380
DA:18,372
DA:19,49
DA:20,22
DA:21,22
DA:22,2
DA:23,2
DA:24,2
DA:25,2
DA:26,2
DA:27,2
DA:28,2
DA:29,2
DA:30,2
DA:31,0
DA:32,0
DA:33,20
DA:34,0
DA:36,343
DA:37,8
DA:38,1290
DA:39,1668
DA:40,1670
DA:46,0
DA:47,0
DA:48,0
DA:49,13
DA:50,13
DA:51,13
DA:52,1670
DA:53,1670
DA:54,380
DA:55,372
DA:56,343
DA:57,334
DA:59,39
DA:62,39
DA:63,34
DA:65,5
DA:66,2
DA:67,2
DA:68,2
DA:69,1
DA:70,1
DA:71,1
DA:72,1
DA:73,1
DA:74,1
DA:75,1
DA:76,1
DA:77,4
DA:84,29
DA:85,5
DA:86,5
DA:87,5
DA:88,5
DA:89,5
DA:90,5
DA:91,5
DA:92,24
DA:94,5
DA:97,67
DA:98,28
DA:99,28
DA:100,28
DA:101,8
DA:102,7
DA:103,7
DA:104,7
DA:105,7
DA:106,7
DA:107,7
DA:108,7
DA:109,7
DA:110,7
DA:111,21
DA:112,0
DA:115,39
DA:116,13
DA:117,26
DA:118,333
DA:119,8
DA:120,1290
DA:121,1657
DA:122,1670
DA:128,0
DA:129,0
DA:130,0
DA:131,12
DA:132,12
DA:133,12
DA:134,756
DA:135,756
DA:136,95
DA:137,95
DA:138,95
DA:139,95
DA:140,95
DA:142,0
DA:144,95
DA:145,95
DA:146,10
DA:147,10
DA:148,10
DA:149,8
DA:150,8
DA:151,8
DA:152,8
DA:153,8
DA:154,8
DA:155,8
DA:156,2
DA:157,0
DA:158,85
DA:160,0
DA:161,0
DA:162,0
DA:163,0
DA:164,0
DA:165,0
DA:166,0
DA:167,0
DA:168,0
DA:169,0
DA:170,0
DA:171,0
DA:172,0
DA:173,0
DA:174,0
DA:175,0
DA:176,0
DA:177,0
DA:178,0
DA:179,0
DA:181,661
DA:183,748
DA:184,756
DA:186,1670
DA:187,1670
DA:189,459
DA:190,80
DA:191,79
DA:192,1
DA:193,1
DA:194,1
DA:195,1
DA:196,1
DA:197,1
DA:198,1
DA:199,1
DA:200,1
DA:201,1
DA:202,0
DA:203,0
DA:204,78
DA:205,1
DA:208,379
DA:209,371
DA:210,4
DA:211,4
DA:212,4
DA:213,4
DA:214,4
DA:215,3
DA:216,3
DA:217,3
DA:218,3
DA:219,3
DA:220,3
DA:221,3
DA:222,1
DA:223,0
DA:224,0
DA:225,0
DA:226,367
DA:227,8
DA:228,1290
DA:229,1666
DA:230,1670
DA:236,0
DA:237,0
DA:238,0
DA:239,29
DA:240,29
DA:241,29
DA:242,1670
DA:243,1670
DA:244,380
DA:245,372
DA:246,38
DA:247,17
DA:248,9
DA:249,8
DA:250,7
DA:251,7
DA:252,6
DA:254,37
DA:255,56
DA:256,27
DA:257,15
DA:258,3
DA:259,2
DA:260,10
DA:261,8
DA:262,2
DA:263,0
DA:265,0
DA:267,15
DA:268,8
DA:269,7
DA:270,12
DA:272,37
DA:273,29
DA:274,29
DA:275,29
DA:276,29
DA:277,29
DA:278,29
DA:279,29
DA:280,8
DA:281,335
DA:282,8
DA:283,1290
DA:284,1641
DA:285,1670
DA:289,360
DA:290,360
DA:291,360
DA:292,360
DA:293,360
DA:295,360
DA:296,360
DA:297,356
DA:299,4
DA:300,4
DA:301,4
DA:302,4
DA:303,4
DA:304,4
DA:305,2
DA:306,2
DA:307,2
DA:308,2
DA:309,2
DA:310,2
DA:311,2
DA:312,2
DA:313,356
DA:315,358
DA:316,357
DA:317,356
DA:318,355
DA:319,354
DA:320,354
DA:322,4
DA:323,4
DA:324,4
DA:325,4
DA:326,4
DA:327,4
DA:328,4
DA:329,354
DA:331,354
DA:332,2
DA:333,2
DA:334,2
DA:335,2
DA:336,2
DA:337,2
DA:338,2
DA:339,352
DA:341,352
DA:342,2
DA:343,2
DA:344,2
DA:345,2
DA:346,2
DA:347,2
DA:348,2
DA:349,350
DA:351,350
DA:352,2
DA:353,2
DA:354,2
DA:355,2
DA:356,2
DA:357,2
DA:358,2
DA:359,348
DA:361,348
DA:362,1
DA:363,1
DA:364,1
DA:365,1
DA:366,1
DA:367,1
DA:368,1
DA:369,347
DA:370,347
DA:371,360
BRF:0
BRH:0
LF:312
LH:267
end_of_record
SF:E:\Github\CytoScnPy\cytoscnpy\src\rules\danger\taint_aware.rs
FN:30,_RNvMNtNtNtCsbhXKu17xbPQ_9cytoscnpy5rules6danger11taint_awareNtB2_12TaintContext10is_tainted
FN:36,_RNvMNtNtNtCsbhXKu17xbPQ_9cytoscnpy5rules6danger11taint_awareNtB2_12TaintContext14get_taint_info
FN:47,_RNvMNtNtNtCsbhXKu17xbPQ_9cytoscnpy5rules6danger11taint_awareNtB2_12TaintContext15add_tainted_var
FN:42,_RNvMNtNtNtCsbhXKu17xbPQ_9cytoscnpy5rules6danger11taint_awareNtB2_12TaintContext15is_line_tainted
FN:52,_RNvMNtNtNtCsbhXKu17xbPQ_9cytoscnpy5rules6danger11taint_awareNtB2_12TaintContext17mark_line_tainted
FN:24,_RNvMNtNtNtCsbhXKu17xbPQ_9cytoscnpy5rules6danger11taint_awareNtB2_12TaintContext3new
FN:72,_RNvMs_NtNtNtCsbhXKu17xbPQ_9cytoscnpy5rules6danger11taint_awareNtB4_24TaintAwareDangerAnalyzer11with_custom
FN:81,_RNvMs_NtNtNtCsbhXKu17xbPQ_9cytoscnpy5rules6danger11taint_awareNtB4_24TaintAwareDangerAnalyzer13with_defaults
FN:92,_RNvMs_NtNtNtCsbhXKu17xbPQ_9cytoscnpy5rules6danger11taint_awareNtB4_24TaintAwareDangerAnalyzer19build_taint_context
FN:115,_RNvMs_NtNtNtCsbhXKu17xbPQ_9cytoscnpy5rules6danger11taint_awareNtB4_24TaintAwareDangerAnalyzer26filter_findings_with_taint
FN:140,_RNvMs_NtNtNtCsbhXKu17xbPQ_9cytoscnpy5rules6danger11taint_awareNtB4_24TaintAwareDangerAnalyzer27enhance_severity_with_taint
FN:66,_RNvMs_NtNtNtCsbhXKu17xbPQ_9cytoscnpy5rules6danger11taint_awareNtB4_24TaintAwareDangerAnalyzer3new
FN:161,_RNvXs0_NtNtNtCsbhXKu17xbPQ_9cytoscnpy5rules6danger11taint_awareNtB5_24TaintAwareDangerAnalyzerNtNtCsgS7EKHCc5jD_4core7default7Default7default
FN:122,_RNCNvMs_NtNtNtCsbhXKu17xbPQ_9cytoscnpy5rules6danger11taint_awareNtB6_24TaintAwareDangerAnalyzer26filter_findings_with_taint0Bc_
FN:122,_RNCNvMs_NtNtNtCs2Eyh5DnjbiX_9cytoscnpy5rules6danger11taint_awareNtB6_24TaintAwareDangerAnalyzer26filter_findings_with_taint0Bc_
FN:30,_RNvMNtNtNtCs2Eyh5DnjbiX_9cytoscnpy5rules6danger11taint_awareNtB2_12TaintContext10is_tainted
FN:47,_RNvMNtNtNtCs2Eyh5DnjbiX_9cytoscnpy5rules6danger11taint_awareNtB2_12TaintContext15add_tainted_var
FN:42,_RNvMNtNtNtCs2Eyh5DnjbiX_9cytoscnpy5rules6danger11taint_awareNtB2_12TaintContext15is_line_tainted
FN:52,_RNvMNtNtNtCs2Eyh5DnjbiX_9cytoscnpy5rules6danger11taint_awareNtB2_12TaintContext17mark_line_tainted
FN:24,_RNvMNtNtNtCs2Eyh5DnjbiX_9cytoscnpy5rules6danger11taint_awareNtB2_12TaintContext3new
FN:72,_RNvMs_NtNtNtCs2Eyh5DnjbiX_9cytoscnpy5rules6danger11taint_awareNtB4_24TaintAwareDangerAnalyzer11with_custom
FN:92,_RNvMs_NtNtNtCs2Eyh5DnjbiX_9cytoscnpy5rules6danger11taint_awareNtB4_24TaintAwareDangerAnalyzer19build_taint_context
FN:115,_RNvMs_NtNtNtCs2Eyh5DnjbiX_9cytoscnpy5rules6danger11taint_awareNtB4_24TaintAwareDangerAnalyzer26filter_findings_with_taint
FN:140,_RNvMs_NtNtNtCs2Eyh5DnjbiX_9cytoscnpy5rules6danger11taint_awareNtB4_24TaintAwareDangerAnalyzer27enhance_severity_with_taint
FN:36,_RNvMNtNtNtCs2Eyh5DnjbiX_9cytoscnpy5rules6danger11taint_awareNtB2_12TaintContext14get_taint_info
FN:81,_RNvMs_NtNtNtCs2Eyh5DnjbiX_9cytoscnpy5rules6danger11taint_awareNtB4_24TaintAwareDangerAnalyzer13with_defaults
FN:66,_RNvMs_NtNtNtCs2Eyh5DnjbiX_9cytoscnpy5rules6danger11taint_awareNtB4_24TaintAwareDangerAnalyzer3new
FN:161,_RNvXs0_NtNtNtCs2Eyh5DnjbiX_9cytoscnpy5rules6danger11taint_awareNtB5_24TaintAwareDangerAnalyzerNtNtCsgS7EKHCc5jD_4core7default7Default7default
FN:171,_RNvNtNtNtNtCs2Eyh5DnjbiX_9cytoscnpy5rules6danger11taint_aware5testss_22test_taint_context_new
FN:178,_RNvNtNtNtNtCs2Eyh5DnjbiX_9cytoscnpy5rules6danger11taint_aware5testss_29test_taint_context_is_tainted
FN:190,_RNvNtNtNtNtCs2Eyh5DnjbiX_9cytoscnpy5rules6danger11taint_aware5testss_32test_taint_context_line_tainting
FNDA:0,_RNvMNtNtNtCsbhXKu17xbPQ_9cytoscnpy5rules6danger11taint_awareNtB2_12TaintContext10is_tainted
FNDA:0,_RNvMNtNtNtCsbhXKu17xbPQ_9cytoscnpy5rules6danger11taint_awareNtB2_12TaintContext14get_taint_info
FNDA:1,_RNvMNtNtNtCsbhXKu17xbPQ_9cytoscnpy5rules6danger11taint_awareNtB2_12TaintContext15add_tainted_var
FNDA:20,_RNvMNtNtNtCsbhXKu17xbPQ_9cytoscnpy5rules6danger11taint_awareNtB2_12TaintContext15is_line_tainted
FNDA:12,_RNvMNtNtNtCsbhXKu17xbPQ_9cytoscnpy5rules6danger11taint_awareNtB2_12TaintContext17mark_line_tainted
FNDA:60,_RNvMNtNtNtCsbhXKu17xbPQ_9cytoscnpy5rules6danger11taint_awareNtB2_12TaintContext3new
FNDA:60,_RNvMs_NtNtNtCsbhXKu17xbPQ_9cytoscnpy5rules6danger11taint_awareNtB4_24TaintAwareDangerAnalyzer11with_custom
FNDA:0,_RNvMs_NtNtNtCsbhXKu17xbPQ_9cytoscnpy5rules6danger11taint_awareNtB4_24TaintAwareDangerAnalyzer13with_defaults
FNDA:60,_RNvMs_NtNtNtCsbhXKu17xbPQ_9cytoscnpy5rules6danger11taint_awareNtB4_24TaintAwareDangerAnalyzer19build_taint_context
FNDA:60,_RNvMs_NtNtNtCsbhXKu17xbPQ_9cytoscnpy5rules6danger11taint_awareNtB4_24TaintAwareDangerAnalyzer26filter_findings_with_taint
FNDA:60,_RNvMs_NtNtNtCsbhXKu17xbPQ_9cytoscnpy5rules6danger11taint_awareNtB4_24TaintAwareDangerAnalyzer27enhance_severity_with_taint
FNDA:0,_RNvMs_NtNtNtCsbhXKu17xbPQ_9cytoscnpy5rules6danger11taint_awareNtB4_24TaintAwareDangerAnalyzer3new
FNDA:0,_RNvXs0_NtNtNtCsbhXKu17xbPQ_9cytoscnpy5rules6danger11taint_awareNtB5_24TaintAwareDangerAnalyzerNtNtCsgS7EKHCc5jD_4core7default7Default7default
FNDA:36,_RNCNvMs_NtNtNtCsbhXKu17xbPQ_9cytoscnpy5rules6danger11taint_awareNtB6_24TaintAwareDangerAnalyzer26filter_findings_with_taint0Bc_
FNDA:0,_RNCNvMs_NtNtNtCs2Eyh5DnjbiX_9cytoscnpy5rules6danger11taint_awareNtB6_24TaintAwareDangerAnalyzer26filter_findings_with_taint0Bc_
FNDA:2,_RNvMNtNtNtCs2Eyh5DnjbiX_9cytoscnpy5rules6danger11taint_awareNtB2_12TaintContext10is_tainted
FNDA:1,_RNvMNtNtNtCs2Eyh5DnjbiX_9cytoscnpy5rules6danger11taint_awareNtB2_12TaintContext15add_tainted_var
FNDA:2,_RNvMNtNtNtCs2Eyh5DnjbiX_9cytoscnpy5rules6danger11taint_awareNtB2_12TaintContext15is_line_tainted
FNDA:1,_RNvMNtNtNtCs2Eyh5DnjbiX_9cytoscnpy5rules6danger11taint_awareNtB2_12TaintContext17mark_line_tainted
FNDA:3,_RNvMNtNtNtCs2Eyh5DnjbiX_9cytoscnpy5rules6danger11taint_awareNtB2_12TaintContext3new
FNDA:0,_RNvMs_NtNtNtCs2Eyh5DnjbiX_9cytoscnpy5rules6danger11taint_awareNtB4_24TaintAwareDangerAnalyzer11with_custom
FNDA:0,_RNvMs_NtNtNtCs2Eyh5DnjbiX_9cytoscnpy5rules6danger11taint_awareNtB4_24TaintAwareDangerAnalyzer19build_taint_context
FNDA:0,_RNvMs_NtNtNtCs2Eyh5DnjbiX_9cytoscnpy5rules6danger11taint_awareNtB4_24TaintAwareDangerAnalyzer26filter_findings_with_taint
FNDA:0,_RNvMs_NtNtNtCs2Eyh5DnjbiX_9cytoscnpy5rules6danger11taint_awareNtB4_24TaintAwareDangerAnalyzer27enhance_severity_with_taint
FNDA:0,_RNvMNtNtNtCs2Eyh5DnjbiX_9cytoscnpy5rules6danger11taint_awareNtB2_12TaintContext14get_taint_info
FNDA:0,_RNvMs_NtNtNtCs2Eyh5DnjbiX_9cytoscnpy5rules6danger11taint_awareNtB4_24TaintAwareDangerAnalyzer13with_defaults
FNDA:0,_RNvMs_NtNtNtCs2Eyh5DnjbiX_9cytoscnpy5rules6danger11taint_awareNtB4_24TaintAwareDangerAnalyzer3new
FNDA:0,_RNvXs0_NtNtNtCs2Eyh5DnjbiX_9cytoscnpy5rules6danger11taint_awareNtB5_24TaintAwareDangerAnalyzerNtNtCsgS7EKHCc5jD_4core7default7Default7default
FNDA:1,_RNvNtNtNtNtCs2Eyh5DnjbiX_9cytoscnpy5rules6danger11taint_aware5testss_22test_taint_context_new
FNDA:1,_RNvNtNtNtNtCs2Eyh5DnjbiX_9cytoscnpy5rules6danger11taint_aware5testss_29test_taint_context_is_tainted
FNDA:1,_RNvNtNtNtNtCs2Eyh5DnjbiX_9cytoscnpy5rules6danger11taint_aware5testss_32test_taint_context_line_tainting
FNF:17
FNH:13
DA:24,63
DA:25,63
DA:26,63
DA:30,2
DA:31,2
DA:32,2
DA:36,0
DA:37,0
DA:38,0
DA:42,22
DA:43,22
DA:44,22
DA:47,2
DA:48,2
DA:49,2
DA:52,13
DA:53,13
DA:54,13
DA:66,0
DA:67,0
DA:68,0
DA:72,60
DA:73,60
DA:74,60
DA:75,60
DA:76,60
DA:77,60
DA:81,0
DA:82,0
DA:83,0
DA:84,0
DA:85,0
DA:92,60
DA:93,60
DA:94,60
DA:96,72
DA:98,12
DA:99,1
DA:100,1
DA:101,11
DA:104,12
DA:107,60
DA:108,60
DA:115,60
DA:116,60
DA:117,60
DA:118,60
DA:119,60
DA:120,60
DA:121,60
DA:122,60
DA:124,36
DA:127,4
DA:130,32
DA:132,36
DA:133,60
DA:134,60
DA:140,60
DA:141,60
DA:142,60
DA:144,60
DA:145,36
DA:146,32
DA:147,16
DA:150,12
DA:151,3
DA:152,9
DA:153,0
DA:154,9
DA:155,24
DA:157,60
DA:161,0
DA:162,0
DA:163,0
DA:171,1
DA:172,1
DA:173,1
DA:174,1
DA:175,1
DA:178,1
DA:179,1
DA:180,1
DA:182,1
DA:183,1
DA:184,1
DA:186,1
DA:187,1
DA:190,1
DA:191,1
DA:192,1
DA:194,1
DA:195,1
DA:196,1
BRF:0
BRH:0
LF:94
LH:79
end_of_record
SF:E:\Github\CytoScnPy\cytoscnpy\src\rules\danger\type_inference.rs
FN:12,_RNvMNtNtNtCsbhXKu17xbPQ_9cytoscnpy5rules6danger14type_inferenceNtB2_5Scope3new
FN:51,_RNvMs0_NtNtNtCsbhXKu17xbPQ_9cytoscnpy5rules6danger14type_inferenceNtB5_16MethodMisuseRule10infer_type
FN:45,_RNvMs0_NtNtNtCsbhXKu17xbPQ_9cytoscnpy5rules6danger14type_inferenceNtB5_16MethodMisuseRule12add_variable
FN:72,_RNvMs0_NtNtNtCsbhXKu17xbPQ_9cytoscnpy5rules6danger14type_inferenceNtB5_16MethodMisuseRule15is_valid_method
FN:36,_RNvMs0_NtNtNtCsbhXKu17xbPQ_9cytoscnpy5rules6danger14type_inferenceNtB5_16MethodMisuseRule17get_variable_type
FN:411,_RNvMs2_NtNtNtCsbhXKu17xbPQ_9cytoscnpy5rules6danger14type_inferenceNtB5_16MethodMisuseRule15collect_targets
FN:270,_RNvXs1_NtNtNtCsbhXKu17xbPQ_9cytoscnpy5rules6danger14type_inferenceNtB5_16MethodMisuseRuleNtB9_4Rule10enter_stmt
FN:395,_RNvXs1_NtNtNtCsbhXKu17xbPQ_9cytoscnpy5rules6danger14type_inferenceNtB5_16MethodMisuseRuleNtB9_4Rule10leave_expr
FN:321,_RNvXs1_NtNtNtCsbhXKu17xbPQ_9cytoscnpy5rules6danger14type_inferenceNtB5_16MethodMisuseRuleNtB9_4Rule10leave_stmt
FN:331,_RNvXs1_NtNtNtCsbhXKu17xbPQ_9cytoscnpy5rules6danger14type_inferenceNtB5_16MethodMisuseRuleNtB9_4Rule10visit_expr
FN:266,_RNvXs1_NtNtNtCsbhXKu17xbPQ_9cytoscnpy5rules6danger14type_inferenceNtB5_16MethodMisuseRuleNtB9_4Rule4code
FN:262,_RNvXs1_NtNtNtCsbhXKu17xbPQ_9cytoscnpy5rules6danger14type_inferenceNtB5_16MethodMisuseRuleNtB9_4Rule4name
FN:28,_RNvXs_NtNtNtCsbhXKu17xbPQ_9cytoscnpy5rules6danger14type_inferenceNtB4_16MethodMisuseRuleNtNtCsgS7EKHCc5jD_4core7default7Default7default
FN:12,_RNvMNtNtNtCs2Eyh5DnjbiX_9cytoscnpy5rules6danger14type_inferenceNtB2_5Scope3new
FN:51,_RNvMs0_NtNtNtCs2Eyh5DnjbiX_9cytoscnpy5rules6danger14type_inferenceNtB5_16MethodMisuseRule10infer_type
FN:45,_RNvMs0_NtNtNtCs2Eyh5DnjbiX_9cytoscnpy5rules6danger14type_inferenceNtB5_16MethodMisuseRule12add_variable
FN:72,_RNvMs0_NtNtNtCs2Eyh5DnjbiX_9cytoscnpy5rules6danger14type_inferenceNtB5_16MethodMisuseRule15is_valid_method
FN:36,_RNvMs0_NtNtNtCs2Eyh5DnjbiX_9cytoscnpy5rules6danger14type_inferenceNtB5_16MethodMisuseRule17get_variable_type
FN:411,_RNvMs2_NtNtNtCs2Eyh5DnjbiX_9cytoscnpy5rules6danger14type_inferenceNtB5_16MethodMisuseRule15collect_targets
FN:270,_RNvXs1_NtNtNtCs2Eyh5DnjbiX_9cytoscnpy5rules6danger14type_inferenceNtB5_16MethodMisuseRuleNtB9_4Rule10enter_stmt
FN:395,_RNvXs1_NtNtNtCs2Eyh5DnjbiX_9cytoscnpy5rules6danger14type_inferenceNtB5_16MethodMisuseRuleNtB9_4Rule10leave_expr
FN:321,_RNvXs1_NtNtNtCs2Eyh5DnjbiX_9cytoscnpy5rules6danger14type_inferenceNtB5_16MethodMisuseRuleNtB9_4Rule10leave_stmt
FN:331,_RNvXs1_NtNtNtCs2Eyh5DnjbiX_9cytoscnpy5rules6danger14type_inferenceNtB5_16MethodMisuseRuleNtB9_4Rule10visit_expr
FN:266,_RNvXs1_NtNtNtCs2Eyh5DnjbiX_9cytoscnpy5rules6danger14type_inferenceNtB5_16MethodMisuseRuleNtB9_4Rule4code
FN:262,_RNvXs1_NtNtNtCs2Eyh5DnjbiX_9cytoscnpy5rules6danger14type_inferenceNtB5_16MethodMisuseRuleNtB9_4Rule4name
FN:28,_RNvXs_NtNtNtCs2Eyh5DnjbiX_9cytoscnpy5rules6danger14type_inferenceNtB4_16MethodMisuseRuleNtNtCsgS7EKHCc5jD_4core7default7Default7default
FNDA:184,_RNvMNtNtNtCsbhXKu17xbPQ_9cytoscnpy5rules6danger14type_inferenceNtB2_5Scope3new
FNDA:95,_RNvMs0_NtNtNtCsbhXKu17xbPQ_9cytoscnpy5rules6danger14type_inferenceNtB5_16MethodMisuseRule10infer_type
FNDA:9,_RNvMs0_NtNtNtCsbhXKu17xbPQ_9cytoscnpy5rules6danger14type_inferenceNtB5_16MethodMisuseRule12add_variable
FNDA:20,_RNvMs0_NtNtNtCsbhXKu17xbPQ_9cytoscnpy5rules6danger14type_inferenceNtB5_16MethodMisuseRule15is_valid_method
FNDA:284,_RNvMs0_NtNtNtCsbhXKu17xbPQ_9cytoscnpy5rules6danger14type_inferenceNtB5_16MethodMisuseRule17get_variable_type
FNDA:8,_RNvMs2_NtNtNtCsbhXKu17xbPQ_9cytoscnpy5rules6danger14type_inferenceNtB5_16MethodMisuseRule15collect_targets
FNDA:756,_RNvXs1_NtNtNtCsbhXKu17xbPQ_9cytoscnpy5rules6danger14type_inferenceNtB5_16MethodMisuseRuleNtB9_4Rule10enter_stmt
FNDA:1670,_RNvXs1_NtNtNtCsbhXKu17xbPQ_9cytoscnpy5rules6danger14type_inferenceNtB5_16MethodMisuseRuleNtB9_4Rule10leave_expr
FNDA:756,_RNvXs1_NtNtNtCsbhXKu17xbPQ_9cytoscnpy5rules6danger14type_inferenceNtB5_16MethodMisuseRuleNtB9_4Rule10leave_stmt
FNDA:1670,_RNvXs1_NtNtNtCsbhXKu17xbPQ_9cytoscnpy5rules6danger14type_inferenceNtB5_16MethodMisuseRuleNtB9_4Rule10visit_expr
FNDA:13,_RNvXs1_NtNtNtCsbhXKu17xbPQ_9cytoscnpy5rules6danger14type_inferenceNtB5_16MethodMisuseRuleNtB9_4Rule4code
FNDA:0,_RNvXs1_NtNtNtCsbhXKu17xbPQ_9cytoscnpy5rules6danger14type_inferenceNtB5_16MethodMisuseRuleNtB9_4Rule4name
FNDA:128,_RNvXs_NtNtNtCsbhXKu17xbPQ_9cytoscnpy5rules6danger14type_inferenceNtB4_16MethodMisuseRuleNtNtCsgS7EKHCc5jD_4core7default7Default7default
FNDA:0,_RNvMNtNtNtCs2Eyh5DnjbiX_9cytoscnpy5rules6danger14type_inferenceNtB2_5Scope3new
FNDA:0,_RNvMs0_NtNtNtCs2Eyh5DnjbiX_9cytoscnpy5rules6danger14type_inferenceNtB5_16MethodMisuseRule10infer_type
FNDA:0,_RNvMs0_NtNtNtCs2Eyh5DnjbiX_9cytoscnpy5rules6danger14type_inferenceNtB5_16MethodMisuseRule12add_variable
FNDA:0,_RNvMs0_NtNtNtCs2Eyh5DnjbiX_9cytoscnpy5rules6danger14type_inferenceNtB5_16MethodMisuseRule15is_valid_method
FNDA:0,_RNvMs0_NtNtNtCs2Eyh5DnjbiX_9cytoscnpy5rules6danger14type_inferenceNtB5_16MethodMisuseRule17get_variable_type
FNDA:0,_RNvMs2_NtNtNtCs2Eyh5DnjbiX_9cytoscnpy5rules6danger14type_inferenceNtB5_16MethodMisuseRule15collect_targets
FNDA:0,_RNvXs1_NtNtNtCs2Eyh5DnjbiX_9cytoscnpy5rules6danger14type_inferenceNtB5_16MethodMisuseRuleNtB9_4Rule10enter_stmt
FNDA:0,_RNvXs1_NtNtNtCs2Eyh5DnjbiX_9cytoscnpy5rules6danger14type_inferenceNtB5_16MethodMisuseRuleNtB9_4Rule10leave_expr
FNDA:0,_RNvXs1_NtNtNtCs2Eyh5DnjbiX_9cytoscnpy5rules6danger14type_inferenceNtB5_16MethodMisuseRuleNtB9_4Rule10leave_stmt
FNDA:0,_RNvXs1_NtNtNtCs2Eyh5DnjbiX_9cytoscnpy5rules6danger14type_inferenceNtB5_16MethodMisuseRuleNtB9_4Rule10visit_expr
FNDA:0,_RNvXs1_NtNtNtCs2Eyh5DnjbiX_9cytoscnpy5rules6danger14type_inferenceNtB5_16MethodMisuseRuleNtB9_4Rule4code
FNDA:0,_RNvXs1_NtNtNtCs2Eyh5DnjbiX_9cytoscnpy5rules6danger14type_inferenceNtB5_16MethodMisuseRuleNtB9_4Rule4name
FNDA:0,_RNvXs_NtNtNtCs2Eyh5DnjbiX_9cytoscnpy5rules6danger14type_inferenceNtB4_16MethodMisuseRuleNtNtCsgS7EKHCc5jD_4core7default7Default7default
FNF:13
FNH:12
DA:12,184
DA:13,184
DA:14,184
DA:15,184
DA:16,184
DA:28,128
DA:29,128
DA:30,128
DA:31,128
DA:32,128
DA:36,284
DA:37,317
DA:38,317
DA:39,20
DA:40,297
DA:42,264
DA:43,284
DA:45,9
DA:46,9
DA:47,9
DA:48,9
DA:49,9
DA:51,95
DA:52,95
DA:53,32
DA:54,0
DA:55,2
DA:56,2
DA:57,2
DA:59,0
DA:62,0
DA:63,0
DA:64,5
DA:65,0
DA:66,1
DA:67,3
DA:68,52
DA:70,95
DA:72,20
DA:74,20
DA:75,20
DA:76,20
DA:77,20
DA:78,20
DA:79,20
DA:80,20
DA:81,20
DA:82,20
DA:83,20
DA:84,20
DA:85,20
DA:86,0
DA:87,20
DA:89,20
DA:90,20
DA:91,12
DA:92,12
DA:93,12
DA:94,12
DA:95,12
DA:96,12
DA:97,12
DA:98,12
DA:99,12
DA:100,12
DA:101,12
DA:102,12
DA:103,12
DA:104,12
DA:105,12
DA:106,12
DA:107,12
DA:108,12
DA:109,12
DA:110,12
DA:111,12
DA:112,12
DA:113,12
DA:114,12
DA:115,12
DA:116,12
DA:117,12
DA:118,12
DA:119,12
DA:120,12
DA:121,12
DA:122,12
DA:123,12
DA:124,12
DA:125,12
DA:126,12
DA:127,12
DA:128,12
DA:129,12
DA:130,12
DA:131,12
DA:132,12
DA:133,12
DA:134,8
DA:135,8
DA:136,8
DA:137,8
DA:138,8
DA:140,8
DA:141,0
DA:142,0
DA:143,0
DA:144,0
DA:145,0
DA:146,0
DA:147,0
DA:148,0
DA:149,0
DA:150,0
DA:151,0
DA:152,0
DA:153,0
DA:154,0
DA:155,0
DA:156,0
DA:157,0
DA:158,0
DA:159,0
DA:160,0
DA:161,0
DA:162,0
DA:163,0
DA:164,0
DA:165,0
DA:166,0
DA:167,0
DA:168,0
DA:169,0
DA:170,0
DA:171,0
DA:172,0
DA:173,0
DA:174,0
DA:175,0
DA:176,0
DA:177,0
DA:178,0
DA:179,0
DA:180,0
DA:181,0
DA:182,0
DA:183,0
DA:185,8
DA:186,4
DA:187,4
DA:188,2
DA:189,2
DA:190,2
DA:191,2
DA:192,2
DA:193,2
DA:194,2
DA:195,2
DA:196,2
DA:197,2
DA:199,4
DA:200,4
DA:201,2
DA:202,2
DA:203,2
DA:204,2
DA:205,2
DA:206,2
DA:207,2
DA:208,2
DA:209,2
DA:210,2
DA:211,2
DA:212,2
DA:214,2
DA:215,1
DA:216,1
DA:217,1
DA:218,1
DA:219,1
DA:220,1
DA:221,1
DA:222,1
DA:223,1
DA:224,1
DA:225,1
DA:226,1
DA:227,1
DA:228,1
DA:229,1
DA:230,1
DA:231,1
DA:232,1
DA:234,1
DA:235,0
DA:236,0
DA:237,0
DA:238,0
DA:239,0
DA:240,0
DA:241,0
DA:242,0
DA:243,0
DA:245,1
DA:246,0
DA:247,0
DA:248,0
DA:249,0
DA:250,0
DA:251,0
DA:252,0
DA:253,0
DA:255,1
DA:256,1
DA:258,20
DA:262,0
DA:263,0
DA:264,0
DA:266,13
DA:267,13
DA:268,13
DA:270,756
DA:271,756
DA:272,48
DA:273,48
DA:277,48
DA:278,24
DA:279,1
DA:280,1
DA:281,1
DA:282,23
DA:283,24
DA:285,0
DA:286,0
DA:287,0
DA:288,0
DA:289,0
DA:290,0
DA:291,0
DA:292,0
DA:293,0
DA:294,0
DA:295,0
DA:296,0
DA:297,0
DA:298,0
DA:299,0
DA:300,0
DA:303,95
DA:304,95
DA:305,86
DA:306,43
DA:307,43
DA:308,43
DA:309,43
DA:310,43
DA:311,43
DA:312,0
DA:314,52
DA:316,613
DA:318,756
DA:319,756
DA:321,756
DA:322,756
DA:323,48
DA:324,48
DA:325,48
DA:326,708
DA:328,756
DA:329,756
DA:331,1670
DA:333,1670
DA:334,2
DA:335,2
DA:336,2
DA:337,2
DA:338,1
DA:339,1
DA:340,1
DA:342,3
DA:343,3
DA:344,6
DA:345,3
DA:346,3
DA:348,1
DA:349,1
DA:350,2
DA:351,1
DA:352,1
DA:354,0
DA:355,0
DA:356,0
DA:357,0
DA:358,0
DA:360,2
DA:361,2
DA:362,4
DA:363,2
DA:364,2
DA:366,1662
DA:369,1670
DA:370,380
DA:371,323
DA:372,284
DA:373,284
DA:375,284
DA:376,20
DA:377,13
DA:378,13
DA:379,13
DA:380,13
DA:381,13
DA:382,13
DA:383,13
DA:384,13
DA:385,13
DA:386,13
DA:387,7
DA:388,264
DA:389,39
DA:390,57
DA:391,1290
DA:392,1657
DA:393,1670
DA:395,1670
DA:396,1670
DA:401,8
DA:402,8
DA:403,8
DA:404,1662
DA:406,1670
DA:407,1670
DA:411,8
DA:412,8
DA:413,7
DA:414,7
DA:415,7
DA:416,1
DA:417,3
DA:418,2
DA:419,2
DA:421,0
DA:422,0
DA:423,0
DA:424,0
DA:426,0
DA:428,8
BRF:0
BRH:0
LF:347
LH:251
end_of_record
SF:E:\Github\CytoScnPy\cytoscnpy\src\rules\danger\utils.rs
FN:29,_RNvNtNtNtCsbhXKu17xbPQ_9cytoscnpy5rules6danger5utils10is_literal
FN:9,_RNvNtNtNtCsbhXKu17xbPQ_9cytoscnpy5rules6danger5utils13get_call_name
FN:51,_RNvNtNtNtCsbhXKu17xbPQ_9cytoscnpy5rules6danger5utils14create_finding
FN:35,_RNvNtNtNtCsbhXKu17xbPQ_9cytoscnpy5rules6danger5utils15is_literal_expr
FN:191,_RNvNtNtNtCsbhXKu17xbPQ_9cytoscnpy5rules6danger5utils20contains_ignore_case
FN:128,_RNvNtNtNtCsbhXKu17xbPQ_9cytoscnpy5rules6danger5utils24contains_sensitive_names
FN:71,_RNvNtNtNtCsbhXKu17xbPQ_9cytoscnpy5rules6danger5utils26is_likely_tarfile_receiver
FN:98,_RNvNtNtNtCsbhXKu17xbPQ_9cytoscnpy5rules6danger5utils26is_likely_zipfile_receiver
FN:205,_RNCNCNvNtNtNtCsbhXKu17xbPQ_9cytoscnpy5rules6danger5utils20contains_ignore_case00Bb_
FN:220,_RNCNCNvNtNtNtCsbhXKu17xbPQ_9cytoscnpy5rules6danger5utils20contains_ignore_cases_00Bb_
FN:201,_RNCNvNtNtNtCsbhXKu17xbPQ_9cytoscnpy5rules6danger5utils20contains_ignore_case0B9_
FN:216,_RNCNvNtNtNtCsbhXKu17xbPQ_9cytoscnpy5rules6danger5utils20contains_ignore_cases_0B9_
FN:154,_RNCNvNtNtNtCsbhXKu17xbPQ_9cytoscnpy5rules6danger5utils24contains_sensitive_names0B9_
FN:205,_RNCNCNvNtNtNtCs2Eyh5DnjbiX_9cytoscnpy5rules6danger5utils20contains_ignore_case00Bb_
FN:220,_RNCNCNvNtNtNtCs2Eyh5DnjbiX_9cytoscnpy5rules6danger5utils20contains_ignore_cases_00Bb_
FN:201,_RNCNvNtNtNtCs2Eyh5DnjbiX_9cytoscnpy5rules6danger5utils20contains_ignore_case0B9_
FN:216,_RNCNvNtNtNtCs2Eyh5DnjbiX_9cytoscnpy5rules6danger5utils20contains_ignore_cases_0B9_
FN:154,_RNCNvNtNtNtCs2Eyh5DnjbiX_9cytoscnpy5rules6danger5utils24contains_sensitive_names0B9_
FN:29,_RNvNtNtNtCs2Eyh5DnjbiX_9cytoscnpy5rules6danger5utils10is_literal
FN:9,_RNvNtNtNtCs2Eyh5DnjbiX_9cytoscnpy5rules6danger5utils13get_call_name
FN:51,_RNvNtNtNtCs2Eyh5DnjbiX_9cytoscnpy5rules6danger5utils14create_finding
FN:35,_RNvNtNtNtCs2Eyh5DnjbiX_9cytoscnpy5rules6danger5utils15is_literal_expr
FN:191,_RNvNtNtNtCs2Eyh5DnjbiX_9cytoscnpy5rules6danger5utils20contains_ignore_case
FN:128,_RNvNtNtNtCs2Eyh5DnjbiX_9cytoscnpy5rules6danger5utils24contains_sensitive_names
FN:71,_RNvNtNtNtCs2Eyh5DnjbiX_9cytoscnpy5rules6danger5utils26is_likely_tarfile_receiver
FN:98,_RNvNtNtNtCs2Eyh5DnjbiX_9cytoscnpy5rules6danger5utils26is_likely_zipfile_receiver
FNDA:88,_RNvNtNtNtCsbhXKu17xbPQ_9cytoscnpy5rules6danger5utils10is_literal
FNDA:10010,_RNvNtNtNtCsbhXKu17xbPQ_9cytoscnpy5rules6danger5utils13get_call_name
FNDA:323,_RNvNtNtNtCsbhXKu17xbPQ_9cytoscnpy5rules6danger5utils14create_finding
FNDA:111,_RNvNtNtNtCsbhXKu17xbPQ_9cytoscnpy5rules6danger5utils15is_literal_expr
FNDA:11,_RNvNtNtNtCsbhXKu17xbPQ_9cytoscnpy5rules6danger5utils20contains_ignore_case
FNDA:7,_RNvNtNtNtCsbhXKu17xbPQ_9cytoscnpy5rules6danger5utils24contains_sensitive_names
FNDA:18,_RNvNtNtNtCsbhXKu17xbPQ_9cytoscnpy5rules6danger5utils26is_likely_tarfile_receiver
FNDA:18,_RNvNtNtNtCsbhXKu17xbPQ_9cytoscnpy5rules6danger5utils26is_likely_zipfile_receiver
FNDA:37,_RNCNCNvNtNtNtCsbhXKu17xbPQ_9cytoscnpy5rules6danger5utils20contains_ignore_case00Bb_
FNDA:0,_RNCNCNvNtNtNtCsbhXKu17xbPQ_9cytoscnpy5rules6danger5utils20contains_ignore_cases_00Bb_
FNDA:18,_RNCNvNtNtNtCsbhXKu17xbPQ_9cytoscnpy5rules6danger5utils20contains_ignore_case0B9_
FNDA:0,_RNCNvNtNtNtCsbhXKu17xbPQ_9cytoscnpy5rules6danger5utils20contains_ignore_cases_0B9_
FNDA:11,_RNCNvNtNtNtCsbhXKu17xbPQ_9cytoscnpy5rules6danger5utils24contains_sensitive_names0B9_
FNDA:0,_RNCNCNvNtNtNtCs2Eyh5DnjbiX_9cytoscnpy5rules6danger5utils20contains_ignore_case00Bb_
FNDA:0,_RNCNCNvNtNtNtCs2Eyh5DnjbiX_9cytoscnpy5rules6danger5utils20contains_ignore_cases_00Bb_
FNDA:0,_RNCNvNtNtNtCs2Eyh5DnjbiX_9cytoscnpy5rules6danger5utils20contains_ignore_case0B9_
FNDA:0,_RNCNvNtNtNtCs2Eyh5DnjbiX_9cytoscnpy5rules6danger5utils20contains_ignore_cases_0B9_
FNDA:0,_RNCNvNtNtNtCs2Eyh5DnjbiX_9cytoscnpy5rules6danger5utils24contains_sensitive_names0B9_
FNDA:0,_RNvNtNtNtCs2Eyh5DnjbiX_9cytoscnpy5rules6danger5utils10is_literal
FNDA:0,_RNvNtNtNtCs2Eyh5DnjbiX_9cytoscnpy5rules6danger5utils13get_call_name
FNDA:0,_RNvNtNtNtCs2Eyh5DnjbiX_9cytoscnpy5rules6danger5utils14create_finding
FNDA:0,_RNvNtNtNtCs2Eyh5DnjbiX_9cytoscnpy5rules6danger5utils15is_literal_expr
FNDA:0,_RNvNtNtNtCs2Eyh5DnjbiX_9cytoscnpy5rules6danger5utils20contains_ignore_case
FNDA:0,_RNvNtNtNtCs2Eyh5DnjbiX_9cytoscnpy5rules6danger5utils24contains_sensitive_names
FNDA:0,_RNvNtNtNtCs2Eyh5DnjbiX_9cytoscnpy5rules6danger5utils26is_likely_tarfile_receiver
FNDA:0,_RNvNtNtNtCs2Eyh5DnjbiX_9cytoscnpy5rules6danger5utils26is_likely_zipfile_receiver
FNF:13
FNH:11
DA:9,10010
DA:10,10010
DA:11,1371
DA:12,8639
DA:15,8639
DA:16,888
DA:17,888
DA:18,7751
DA:19,7559
DA:21,192
DA:24,0
DA:26,10010
DA:29,88
DA:30,88
DA:31,88
DA:35,111
DA:36,111
DA:42,46
DA:43,1
DA:44,0
DA:46,64
DA:48,111
DA:51,323
DA:52,323
DA:53,323
DA:54,323
DA:55,323
DA:56,323
DA:57,323
DA:58,323
DA:59,323
DA:60,323
DA:61,323
DA:62,323
DA:63,323
DA:64,323
DA:65,323
DA:66,323
DA:67,323
DA:71,18
DA:72,18
DA:74,4
DA:75,4
DA:77,4
DA:78,2
DA:80,0
DA:84,13
DA:85,13
DA:86,13
DA:89,1
DA:90,1
DA:91,1
DA:93,0
DA:95,18
DA:98,18
DA:99,18
DA:101,4
DA:102,4
DA:104,4
DA:105,1
DA:106,0
DA:108,0
DA:110,0
DA:114,13
DA:115,13
DA:116,13
DA:119,1
DA:120,1
DA:121,1
DA:123,0
DA:125,18
DA:128,7
DA:147,7
DA:148,3
DA:149,3
DA:152,3
DA:153,3
DA:154,11
DA:156,1
DA:158,1
DA:159,1
DA:160,2
DA:161,1
DA:162,2
DA:164,1
DA:165,1
DA:166,0
DA:167,1
DA:169,0
DA:171,0
DA:173,1
DA:174,1
DA:176,0
DA:178,0
DA:179,0
DA:180,0
DA:181,0
DA:183,0
DA:185,2
DA:187,7
DA:191,11
DA:192,11
DA:193,11
DA:194,3
DA:195,8
DA:197,8
DA:198,8
DA:199,8
DA:201,18
DA:202,18
DA:203,18
DA:204,18
DA:205,37
DA:206,18
DA:207,0
DA:209,0
DA:210,0
DA:212,0
DA:213,0
DA:214,0
DA:216,0
DA:217,0
DA:218,0
DA:219,0
DA:220,0
DA:221,0
DA:222,11
BRF:0
BRH:0
LF:132
LH:101
end_of_record
SF:E:\Github\CytoScnPy\cytoscnpy\src\rules\mod.rs
FN:42,_RNvYNtNtNtNtCsbhXKu17xbPQ_9cytoscnpy5rules6danger7network12RequestsRuleNtB8_4Rule10enter_stmtBa_
FN:54,_RNvYNtNtNtNtCsbhXKu17xbPQ_9cytoscnpy5rules6danger7network12RequestsRuleNtB8_4Rule10leave_exprBa_
FN:46,_RNvYNtNtNtNtCsbhXKu17xbPQ_9cytoscnpy5rules6danger7network12RequestsRuleNtB8_4Rule10leave_stmtBa_
FN:42,_RNvYNtNtNtNtCsbhXKu17xbPQ_9cytoscnpy5rules6danger7network25RequestWithoutTimeoutRuleNtB8_4Rule10enter_stmtBa_
FN:54,_RNvYNtNtNtNtCsbhXKu17xbPQ_9cytoscnpy5rules6danger7network25RequestWithoutTimeoutRuleNtB8_4Rule10leave_exprBa_
FN:46,_RNvYNtNtNtNtCsbhXKu17xbPQ_9cytoscnpy5rules6danger7network25RequestWithoutTimeoutRuleNtB8_4Rule10leave_stmtBa_
FN:54,_RNvYNtNtNtNtCsbhXKu17xbPQ_9cytoscnpy5rules6danger7network30HardcodedBindAllInterfacesRuleNtB8_4Rule10leave_exprBa_
FN:46,_RNvYNtNtNtNtCsbhXKu17xbPQ_9cytoscnpy5rules6danger7network30HardcodedBindAllInterfacesRuleNtB8_4Rule10leave_stmtBa_
FN:42,_RNvYNtNtNtNtCsbhXKu17xbPQ_9cytoscnpy5rules6danger7network8SSRFRuleNtB8_4Rule10enter_stmtBa_
FN:54,_RNvYNtNtNtNtCsbhXKu17xbPQ_9cytoscnpy5rules6danger7network8SSRFRuleNtB8_4Rule10leave_exprBa_
FN:46,_RNvYNtNtNtNtCsbhXKu17xbPQ_9cytoscnpy5rules6danger7network8SSRFRuleNtB8_4Rule10leave_stmtBa_
FN:42,_RNvYNtNtNtNtCsbhXKu17xbPQ_9cytoscnpy5rules6danger10filesystem12TempfileRuleNtB8_4Rule10enter_stmtBa_
FN:54,_RNvYNtNtNtNtCsbhXKu17xbPQ_9cytoscnpy5rules6danger10filesystem12TempfileRuleNtB8_4Rule10leave_exprBa_
FN:46,_RNvYNtNtNtNtCsbhXKu17xbPQ_9cytoscnpy5rules6danger10filesystem12TempfileRuleNtB8_4Rule10leave_stmtBa_
FN:42,_RNvYNtNtNtNtCsbhXKu17xbPQ_9cytoscnpy5rules6danger10filesystem17PathTraversalRuleNtB8_4Rule10enter_stmtBa_
FN:54,_RNvYNtNtNtNtCsbhXKu17xbPQ_9cytoscnpy5rules6danger10filesystem17PathTraversalRuleNtB8_4Rule10leave_exprBa_
FN:46,_RNvYNtNtNtNtCsbhXKu17xbPQ_9cytoscnpy5rules6danger10filesystem17PathTraversalRuleNtB8_4Rule10leave_stmtBa_
FN:42,_RNvYNtNtNtNtCsbhXKu17xbPQ_9cytoscnpy5rules6danger10filesystem22BadFilePermissionsRuleNtB8_4Rule10enter_stmtBa_
FN:54,_RNvYNtNtNtNtCsbhXKu17xbPQ_9cytoscnpy5rules6danger10filesystem22BadFilePermissionsRuleNtB8_4Rule10leave_exprBa_
FN:46,_RNvYNtNtNtNtCsbhXKu17xbPQ_9cytoscnpy5rules6danger10filesystem22BadFilePermissionsRuleNtB8_4Rule10leave_stmtBa_
FN:42,_RNvYNtNtNtNtCsbhXKu17xbPQ_9cytoscnpy5rules6danger6crypto10RandomRuleNtB8_4Rule10enter_stmtBa_
FN:54,_RNvYNtNtNtNtCsbhXKu17xbPQ_9cytoscnpy5rules6danger6crypto10RandomRuleNtB8_4Rule10leave_exprBa_
FN:46,_RNvYNtNtNtNtCsbhXKu17xbPQ_9cytoscnpy5rules6danger6crypto10RandomRuleNtB8_4Rule10leave_stmtBa_
FN:42,_RNvYNtNtNtNtCsbhXKu17xbPQ_9cytoscnpy5rules6danger6crypto11HashlibRuleNtB8_4Rule10enter_stmtBa_
FN:54,_RNvYNtNtNtNtCsbhXKu17xbPQ_9cytoscnpy5rules6danger6crypto11HashlibRuleNtB8_4Rule10leave_exprBa_
FN:46,_RNvYNtNtNtNtCsbhXKu17xbPQ_9cytoscnpy5rules6danger6crypto11HashlibRuleNtB8_4Rule10leave_stmtBa_
FN:42,_RNvYNtNtNtNtCsbhXKu17xbPQ_9cytoscnpy5rules6danger9injection10PickleRuleNtB8_4Rule10enter_stmtBa_
FN:54,_RNvYNtNtNtNtCsbhXKu17xbPQ_9cytoscnpy5rules6danger9injection10PickleRuleNtB8_4Rule10leave_exprBa_
FN:46,_RNvYNtNtNtNtCsbhXKu17xbPQ_9cytoscnpy5rules6danger9injection10PickleRuleNtB8_4Rule10leave_stmtBa_
FN:42,_RNvYNtNtNtNtCsbhXKu17xbPQ_9cytoscnpy5rules6danger9injection14SubprocessRuleNtB8_4Rule10enter_stmtBa_
FN:54,_RNvYNtNtNtNtCsbhXKu17xbPQ_9cytoscnpy5rules6danger9injection14SubprocessRuleNtB8_4Rule10leave_exprBa_
FN:46,_RNvYNtNtNtNtCsbhXKu17xbPQ_9cytoscnpy5rules6danger9injection14SubprocessRuleNtB8_4Rule10leave_stmtBa_
FN:42,_RNvYNtNtNtNtCsbhXKu17xbPQ_9cytoscnpy5rules6danger9injection16SqlInjectionRuleNtB8_4Rule10enter_stmtBa_
FN:54,_RNvYNtNtNtNtCsbhXKu17xbPQ_9cytoscnpy5rules6danger9injection16SqlInjectionRuleNtB8_4Rule10leave_exprBa_
FN:46,_RNvYNtNtNtNtCsbhXKu17xbPQ_9cytoscnpy5rules6danger9injection16SqlInjectionRuleNtB8_4Rule10leave_stmtBa_
FN:42,_RNvYNtNtNtNtCsbhXKu17xbPQ_9cytoscnpy5rules6danger9injection19AsyncSubprocessRuleNtB8_4Rule10enter_stmtBa_
FN:54,_RNvYNtNtNtNtCsbhXKu17xbPQ_9cytoscnpy5rules6danger9injection19AsyncSubprocessRuleNtB8_4Rule10leave_exprBa_
FN:46,_RNvYNtNtNtNtCsbhXKu17xbPQ_9cytoscnpy5rules6danger9injection19AsyncSubprocessRuleNtB8_4Rule10leave_stmtBa_
FN:42,_RNvYNtNtNtNtCsbhXKu17xbPQ_9cytoscnpy5rules6danger9injection19SqlInjectionRawRuleNtB8_4Rule10enter_stmtBa_
FN:54,_RNvYNtNtNtNtCsbhXKu17xbPQ_9cytoscnpy5rules6danger9injection19SqlInjectionRawRuleNtB8_4Rule10leave_exprBa_
FN:46,_RNvYNtNtNtNtCsbhXKu17xbPQ_9cytoscnpy5rules6danger9injection19SqlInjectionRawRuleNtB8_4Rule10leave_stmtBa_
FN:42,_RNvYNtNtNtNtCsbhXKu17xbPQ_9cytoscnpy5rules6danger9injection21TarfileExtractionRuleNtB8_4Rule10enter_stmtBa_
FN:54,_RNvYNtNtNtNtCsbhXKu17xbPQ_9cytoscnpy5rules6danger9injection21TarfileExtractionRuleNtB8_4Rule10leave_exprBa_
FN:46,_RNvYNtNtNtNtCsbhXKu17xbPQ_9cytoscnpy5rules6danger9injection21TarfileExtractionRuleNtB8_4Rule10leave_stmtBa_
FN:42,_RNvYNtNtNtNtCsbhXKu17xbPQ_9cytoscnpy5rules6danger9injection21ZipfileExtractionRuleNtB8_4Rule10enter_stmtBa_
FN:54,_RNvYNtNtNtNtCsbhXKu17xbPQ_9cytoscnpy5rules6danger9injection21ZipfileExtractionRuleNtB8_4Rule10leave_exprBa_
FN:46,_RNvYNtNtNtNtCsbhXKu17xbPQ_9cytoscnpy5rules6danger9injection21ZipfileExtractionRuleNtB8_4Rule10leave_stmtBa_
FN:42,_RNvYNtNtNtNtCsbhXKu17xbPQ_9cytoscnpy5rules6danger9injection24ModelDeserializationRuleNtB8_4Rule10enter_stmtBa_
FN:54,_RNvYNtNtNtNtCsbhXKu17xbPQ_9cytoscnpy5rules6danger9injection24ModelDeserializationRuleNtB8_4Rule10leave_exprBa_
FN:46,_RNvYNtNtNtNtCsbhXKu17xbPQ_9cytoscnpy5rules6danger9injection24ModelDeserializationRuleNtB8_4Rule10leave_stmtBa_
FN:42,_RNvYNtNtNtNtCsbhXKu17xbPQ_9cytoscnpy5rules6danger9injection7XSSRuleNtB8_4Rule10enter_stmtBa_
FN:54,_RNvYNtNtNtNtCsbhXKu17xbPQ_9cytoscnpy5rules6danger9injection7XSSRuleNtB8_4Rule10leave_exprBa_
FN:46,_RNvYNtNtNtNtCsbhXKu17xbPQ_9cytoscnpy5rules6danger9injection7XSSRuleNtB8_4Rule10leave_stmtBa_
FN:42,_RNvYNtNtNtNtCsbhXKu17xbPQ_9cytoscnpy5rules6danger9injection7XmlRuleNtB8_4Rule10enter_stmtBa_
FN:54,_RNvYNtNtNtNtCsbhXKu17xbPQ_9cytoscnpy5rules6danger9injection7XmlRuleNtB8_4Rule10leave_exprBa_
FN:46,_RNvYNtNtNtNtCsbhXKu17xbPQ_9cytoscnpy5rules6danger9injection7XmlRuleNtB8_4Rule10leave_stmtBa_
FN:42,_RNvYNtNtNtNtCsbhXKu17xbPQ_9cytoscnpy5rules6danger9injection8EvalRuleNtB8_4Rule10enter_stmtBa_
FN:54,_RNvYNtNtNtNtCsbhXKu17xbPQ_9cytoscnpy5rules6danger9injection8EvalRuleNtB8_4Rule10leave_exprBa_
FN:46,_RNvYNtNtNtNtCsbhXKu17xbPQ_9cytoscnpy5rules6danger9injection8EvalRuleNtB8_4Rule10leave_stmtBa_
FN:42,_RNvYNtNtNtNtCsbhXKu17xbPQ_9cytoscnpy5rules6danger9injection8ExecRuleNtB8_4Rule10enter_stmtBa_
FN:54,_RNvYNtNtNtNtCsbhXKu17xbPQ_9cytoscnpy5rules6danger9injection8ExecRuleNtB8_4Rule10leave_exprBa_
FN:46,_RNvYNtNtNtNtCsbhXKu17xbPQ_9cytoscnpy5rules6danger9injection8ExecRuleNtB8_4Rule10leave_stmtBa_
FN:42,_RNvYNtNtNtNtCsbhXKu17xbPQ_9cytoscnpy5rules6danger9injection8YamlRuleNtB8_4Rule10enter_stmtBa_
FN:54,_RNvYNtNtNtNtCsbhXKu17xbPQ_9cytoscnpy5rules6danger9injection8YamlRuleNtB8_4Rule10leave_exprBa_
FN:46,_RNvYNtNtNtNtCsbhXKu17xbPQ_9cytoscnpy5rules6danger9injection8YamlRuleNtB8_4Rule10leave_stmtBa_
FN:54,_RNvYNtNtNtNtCsbhXKu17xbPQ_9cytoscnpy5rules6danger10frameworks18DjangoSecurityRuleNtB8_4Rule10leave_exprBa_
FN:46,_RNvYNtNtNtNtCsbhXKu17xbPQ_9cytoscnpy5rules6danger10frameworks18DjangoSecurityRuleNtB8_4Rule10leave_stmtBa_
FN:50,_RNvYNtNtNtNtCsbhXKu17xbPQ_9cytoscnpy5rules6danger10frameworks18DjangoSecurityRuleNtB8_4Rule10visit_exprBa_
FN:54,_RNvYNtNtNtCsbhXKu17xbPQ_9cytoscnpy5rules7quality11NestingRuleNtB6_4Rule10leave_exprB8_
FN:50,_RNvYNtNtNtCsbhXKu17xbPQ_9cytoscnpy5rules7quality11NestingRuleNtB6_4Rule10visit_exprB8_
FN:54,_RNvYNtNtNtCsbhXKu17xbPQ_9cytoscnpy5rules7quality14BareExceptRuleNtB6_4Rule10leave_exprB8_
FN:46,_RNvYNtNtNtCsbhXKu17xbPQ_9cytoscnpy5rules7quality14BareExceptRuleNtB6_4Rule10leave_stmtB8_
FN:50,_RNvYNtNtNtCsbhXKu17xbPQ_9cytoscnpy5rules7quality14BareExceptRuleNtB6_4Rule10visit_exprB8_
FN:54,_RNvYNtNtNtCsbhXKu17xbPQ_9cytoscnpy5rules7quality14ComplexityRuleNtB6_4Rule10leave_exprB8_
FN:46,_RNvYNtNtNtCsbhXKu17xbPQ_9cytoscnpy5rules7quality14ComplexityRuleNtB6_4Rule10leave_stmtB8_
FN:50,_RNvYNtNtNtCsbhXKu17xbPQ_9cytoscnpy5rules7quality14ComplexityRuleNtB6_4Rule10visit_exprB8_
FN:54,_RNvYNtNtNtCsbhXKu17xbPQ_9cytoscnpy5rules7quality17ArgumentCountRuleNtB6_4Rule10leave_exprB8_
FN:46,_RNvYNtNtNtCsbhXKu17xbPQ_9cytoscnpy5rules7quality17ArgumentCountRuleNtB6_4Rule10leave_stmtB8_
FN:50,_RNvYNtNtNtCsbhXKu17xbPQ_9cytoscnpy5rules7quality17ArgumentCountRuleNtB6_4Rule10visit_exprB8_
FN:54,_RNvYNtNtNtCsbhXKu17xbPQ_9cytoscnpy5rules7quality18FunctionLengthRuleNtB6_4Rule10leave_exprB8_
FN:46,_RNvYNtNtNtCsbhXKu17xbPQ_9cytoscnpy5rules7quality18FunctionLengthRuleNtB6_4Rule10leave_stmtB8_
FN:50,_RNvYNtNtNtCsbhXKu17xbPQ_9cytoscnpy5rules7quality18FunctionLengthRuleNtB6_4Rule10visit_exprB8_
FN:42,_RNvYNtNtNtCsbhXKu17xbPQ_9cytoscnpy5rules7quality23DangerousComparisonRuleNtB6_4Rule10enter_stmtB8_
FN:54,_RNvYNtNtNtCsbhXKu17xbPQ_9cytoscnpy5rules7quality23DangerousComparisonRuleNtB6_4Rule10leave_exprB8_
FN:46,_RNvYNtNtNtCsbhXKu17xbPQ_9cytoscnpy5rules7quality23DangerousComparisonRuleNtB6_4Rule10leave_stmtB8_
FN:54,_RNvYNtNtNtCsbhXKu17xbPQ_9cytoscnpy5rules7quality26MutableDefaultArgumentRuleNtB6_4Rule10leave_exprB8_
FN:46,_RNvYNtNtNtCsbhXKu17xbPQ_9cytoscnpy5rules7quality26MutableDefaultArgumentRuleNtB6_4Rule10leave_stmtB8_
FN:50,_RNvYNtNtNtCsbhXKu17xbPQ_9cytoscnpy5rules7quality26MutableDefaultArgumentRuleNtB6_4Rule10visit_exprB8_
FN:42,_RNvYNtNtNtNtCsbhXKu17xbPQ_9cytoscnpy5rules6danger4misc13DebugModeRuleNtB8_4Rule10enter_stmtBa_
FN:54,_RNvYNtNtNtNtCsbhXKu17xbPQ_9cytoscnpy5rules6danger4misc13DebugModeRuleNtB8_4Rule10leave_exprBa_
FN:46,_RNvYNtNtNtNtCsbhXKu17xbPQ_9cytoscnpy5rules6danger4misc13DebugModeRuleNtB8_4Rule10leave_stmtBa_
FN:54,_RNvYNtNtNtNtCsbhXKu17xbPQ_9cytoscnpy5rules6danger4misc14AssertUsedRuleNtB8_4Rule10leave_exprBa_
FN:46,_RNvYNtNtNtNtCsbhXKu17xbPQ_9cytoscnpy5rules6danger4misc14AssertUsedRuleNtB8_4Rule10leave_stmtBa_
FN:50,_RNvYNtNtNtNtCsbhXKu17xbPQ_9cytoscnpy5rules6danger4misc14AssertUsedRuleNtB8_4Rule10visit_exprBa_
FN:42,_RNvYNtNtNtNtCsbhXKu17xbPQ_9cytoscnpy5rules6danger4misc17BlacklistCallRuleNtB8_4Rule10enter_stmtBa_
FN:54,_RNvYNtNtNtNtCsbhXKu17xbPQ_9cytoscnpy5rules6danger4misc17BlacklistCallRuleNtB8_4Rule10leave_exprBa_
FN:46,_RNvYNtNtNtNtCsbhXKu17xbPQ_9cytoscnpy5rules6danger4misc17BlacklistCallRuleNtB8_4Rule10leave_stmtBa_
FN:54,_RNvYNtNtNtNtCsbhXKu17xbPQ_9cytoscnpy5rules6danger4misc18InsecureImportRuleNtB8_4Rule10leave_exprBa_
FN:46,_RNvYNtNtNtNtCsbhXKu17xbPQ_9cytoscnpy5rules6danger4misc18InsecureImportRuleNtB8_4Rule10leave_stmtBa_
FN:50,_RNvYNtNtNtNtCsbhXKu17xbPQ_9cytoscnpy5rules6danger4misc18InsecureImportRuleNtB8_4Rule10visit_exprBa_
FN:42,_RNvYNtNtNtNtCsbhXKu17xbPQ_9cytoscnpy5rules6danger4misc20Jinja2AutoescapeRuleNtB8_4Rule10enter_stmtBa_
FN:54,_RNvYNtNtNtNtCsbhXKu17xbPQ_9cytoscnpy5rules6danger4misc20Jinja2AutoescapeRuleNtB8_4Rule10leave_exprBa_
FN:46,_RNvYNtNtNtNtCsbhXKu17xbPQ_9cytoscnpy5rules6danger4misc20Jinja2AutoescapeRuleNtB8_4Rule10leave_stmtBa_
FN:42,_RNvYNtNtNtNtCsbhXKu17xbPQ_9cytoscnpy5rules6danger4misc24LoggingSensitiveDataRuleNtB8_4Rule10enter_stmtBa_
FN:54,_RNvYNtNtNtNtCsbhXKu17xbPQ_9cytoscnpy5rules6danger4misc24LoggingSensitiveDataRuleNtB8_4Rule10leave_exprBa_
FN:46,_RNvYNtNtNtNtCsbhXKu17xbPQ_9cytoscnpy5rules6danger4misc24LoggingSensitiveDataRuleNtB8_4Rule10leave_stmtBa_
FN:42,_RNvYNtNtNtNtCs2Eyh5DnjbiX_9cytoscnpy5rules6danger7network12RequestsRuleNtB8_4Rule10enter_stmtBa_
FN:54,_RNvYNtNtNtNtCs2Eyh5DnjbiX_9cytoscnpy5rules6danger7network12RequestsRuleNtB8_4Rule10leave_exprBa_
FN:46,_RNvYNtNtNtNtCs2Eyh5DnjbiX_9cytoscnpy5rules6danger7network12RequestsRuleNtB8_4Rule10leave_stmtBa_
FN:42,_RNvYNtNtNtNtCs2Eyh5DnjbiX_9cytoscnpy5rules6danger7network25RequestWithoutTimeoutRuleNtB8_4Rule10enter_stmtBa_
FN:54,_RNvYNtNtNtNtCs2Eyh5DnjbiX_9cytoscnpy5rules6danger7network25RequestWithoutTimeoutRuleNtB8_4Rule10leave_exprBa_
FN:46,_RNvYNtNtNtNtCs2Eyh5DnjbiX_9cytoscnpy5rules6danger7network25RequestWithoutTimeoutRuleNtB8_4Rule10leave_stmtBa_
FN:54,_RNvYNtNtNtNtCs2Eyh5DnjbiX_9cytoscnpy5rules6danger7network30HardcodedBindAllInterfacesRuleNtB8_4Rule10leave_exprBa_
FN:46,_RNvYNtNtNtNtCs2Eyh5DnjbiX_9cytoscnpy5rules6danger7network30HardcodedBindAllInterfacesRuleNtB8_4Rule10leave_stmtBa_
FN:42,_RNvYNtNtNtNtCs2Eyh5DnjbiX_9cytoscnpy5rules6danger7network8SSRFRuleNtB8_4Rule10enter_stmtBa_
FN:54,_RNvYNtNtNtNtCs2Eyh5DnjbiX_9cytoscnpy5rules6danger7network8SSRFRuleNtB8_4Rule10leave_exprBa_
FN:46,_RNvYNtNtNtNtCs2Eyh5DnjbiX_9cytoscnpy5rules6danger7network8SSRFRuleNtB8_4Rule10leave_stmtBa_
FN:54,_RNvYNtNtNtCs2Eyh5DnjbiX_9cytoscnpy5rules7quality11NestingRuleNtB6_4Rule10leave_exprB8_
FN:50,_RNvYNtNtNtCs2Eyh5DnjbiX_9cytoscnpy5rules7quality11NestingRuleNtB6_4Rule10visit_exprB8_
FN:54,_RNvYNtNtNtCs2Eyh5DnjbiX_9cytoscnpy5rules7quality14BareExceptRuleNtB6_4Rule10leave_exprB8_
FN:46,_RNvYNtNtNtCs2Eyh5DnjbiX_9cytoscnpy5rules7quality14BareExceptRuleNtB6_4Rule10leave_stmtB8_
FN:50,_RNvYNtNtNtCs2Eyh5DnjbiX_9cytoscnpy5rules7quality14BareExceptRuleNtB6_4Rule10visit_exprB8_
FN:54,_RNvYNtNtNtCs2Eyh5DnjbiX_9cytoscnpy5rules7quality14ComplexityRuleNtB6_4Rule10leave_exprB8_
FN:46,_RNvYNtNtNtCs2Eyh5DnjbiX_9cytoscnpy5rules7quality14ComplexityRuleNtB6_4Rule10leave_stmtB8_
FN:50,_RNvYNtNtNtCs2Eyh5DnjbiX_9cytoscnpy5rules7quality14ComplexityRuleNtB6_4Rule10visit_exprB8_
FN:54,_RNvYNtNtNtCs2Eyh5DnjbiX_9cytoscnpy5rules7quality17ArgumentCountRuleNtB6_4Rule10leave_exprB8_
FN:46,_RNvYNtNtNtCs2Eyh5DnjbiX_9cytoscnpy5rules7quality17ArgumentCountRuleNtB6_4Rule10leave_stmtB8_
FN:50,_RNvYNtNtNtCs2Eyh5DnjbiX_9cytoscnpy5rules7quality17ArgumentCountRuleNtB6_4Rule10visit_exprB8_
FN:54,_RNvYNtNtNtCs2Eyh5DnjbiX_9cytoscnpy5rules7quality18FunctionLengthRuleNtB6_4Rule10leave_exprB8_
FN:46,_RNvYNtNtNtCs2Eyh5DnjbiX_9cytoscnpy5rules7quality18FunctionLengthRuleNtB6_4Rule10leave_stmtB8_
FN:50,_RNvYNtNtNtCs2Eyh5DnjbiX_9cytoscnpy5rules7quality18FunctionLengthRuleNtB6_4Rule10visit_exprB8_
FN:42,_RNvYNtNtNtCs2Eyh5DnjbiX_9cytoscnpy5rules7quality23DangerousComparisonRuleNtB6_4Rule10enter_stmtB8_
FN:54,_RNvYNtNtNtCs2Eyh5DnjbiX_9cytoscnpy5rules7quality23DangerousComparisonRuleNtB6_4Rule10leave_exprB8_
FN:46,_RNvYNtNtNtCs2Eyh5DnjbiX_9cytoscnpy5rules7quality23DangerousComparisonRuleNtB6_4Rule10leave_stmtB8_
FN:54,_RNvYNtNtNtCs2Eyh5DnjbiX_9cytoscnpy5rules7quality26MutableDefaultArgumentRuleNtB6_4Rule10leave_exprB8_
FN:46,_RNvYNtNtNtCs2Eyh5DnjbiX_9cytoscnpy5rules7quality26MutableDefaultArgumentRuleNtB6_4Rule10leave_stmtB8_
FN:50,_RNvYNtNtNtCs2Eyh5DnjbiX_9cytoscnpy5rules7quality26MutableDefaultArgumentRuleNtB6_4Rule10visit_exprB8_
FN:42,_RNvYNtNtNtNtCs2Eyh5DnjbiX_9cytoscnpy5rules6danger9injection10PickleRuleNtB8_4Rule10enter_stmtBa_
FN:54,_RNvYNtNtNtNtCs2Eyh5DnjbiX_9cytoscnpy5rules6danger9injection10PickleRuleNtB8_4Rule10leave_exprBa_
FN:46,_RNvYNtNtNtNtCs2Eyh5DnjbiX_9cytoscnpy5rules6danger9injection10PickleRuleNtB8_4Rule10leave_stmtBa_
FN:42,_RNvYNtNtNtNtCs2Eyh5DnjbiX_9cytoscnpy5rules6danger9injection14SubprocessRuleNtB8_4Rule10enter_stmtBa_
FN:54,_RNvYNtNtNtNtCs2Eyh5DnjbiX_9cytoscnpy5rules6danger9injection14SubprocessRuleNtB8_4Rule10leave_exprBa_
FN:46,_RNvYNtNtNtNtCs2Eyh5DnjbiX_9cytoscnpy5rules6danger9injection14SubprocessRuleNtB8_4Rule10leave_stmtBa_
FN:42,_RNvYNtNtNtNtCs2Eyh5DnjbiX_9cytoscnpy5rules6danger9injection16SqlInjectionRuleNtB8_4Rule10enter_stmtBa_
FN:54,_RNvYNtNtNtNtCs2Eyh5DnjbiX_9cytoscnpy5rules6danger9injection16SqlInjectionRuleNtB8_4Rule10leave_exprBa_
FN:46,_RNvYNtNtNtNtCs2Eyh5DnjbiX_9cytoscnpy5rules6danger9injection16SqlInjectionRuleNtB8_4Rule10leave_stmtBa_
FN:42,_RNvYNtNtNtNtCs2Eyh5DnjbiX_9cytoscnpy5rules6danger9injection19AsyncSubprocessRuleNtB8_4Rule10enter_stmtBa_
FN:54,_RNvYNtNtNtNtCs2Eyh5DnjbiX_9cytoscnpy5rules6danger9injection19AsyncSubprocessRuleNtB8_4Rule10leave_exprBa_
FN:46,_RNvYNtNtNtNtCs2Eyh5DnjbiX_9cytoscnpy5rules6danger9injection19AsyncSubprocessRuleNtB8_4Rule10leave_stmtBa_
FN:42,_RNvYNtNtNtNtCs2Eyh5DnjbiX_9cytoscnpy5rules6danger9injection19SqlInjectionRawRuleNtB8_4Rule10enter_stmtBa_
FN:54,_RNvYNtNtNtNtCs2Eyh5DnjbiX_9cytoscnpy5rules6danger9injection19SqlInjectionRawRuleNtB8_4Rule10leave_exprBa_
FN:46,_RNvYNtNtNtNtCs2Eyh5DnjbiX_9cytoscnpy5rules6danger9injection19SqlInjectionRawRuleNtB8_4Rule10leave_stmtBa_
FN:42,_RNvYNtNtNtNtCs2Eyh5DnjbiX_9cytoscnpy5rules6danger9injection21TarfileExtractionRuleNtB8_4Rule10enter_stmtBa_
FN:54,_RNvYNtNtNtNtCs2Eyh5DnjbiX_9cytoscnpy5rules6danger9injection21TarfileExtractionRuleNtB8_4Rule10leave_exprBa_
FN:46,_RNvYNtNtNtNtCs2Eyh5DnjbiX_9cytoscnpy5rules6danger9injection21TarfileExtractionRuleNtB8_4Rule10leave_stmtBa_
FN:42,_RNvYNtNtNtNtCs2Eyh5DnjbiX_9cytoscnpy5rules6danger9injection21ZipfileExtractionRuleNtB8_4Rule10enter_stmtBa_
FN:54,_RNvYNtNtNtNtCs2Eyh5DnjbiX_9cytoscnpy5rules6danger9injection21ZipfileExtractionRuleNtB8_4Rule10leave_exprBa_
FN:46,_RNvYNtNtNtNtCs2Eyh5DnjbiX_9cytoscnpy5rules6danger9injection21ZipfileExtractionRuleNtB8_4Rule10leave_stmtBa_
FN:42,_RNvYNtNtNtNtCs2Eyh5DnjbiX_9cytoscnpy5rules6danger9injection24ModelDeserializationRuleNtB8_4Rule10enter_stmtBa_
FN:54,_RNvYNtNtNtNtCs2Eyh5DnjbiX_9cytoscnpy5rules6danger9injection24ModelDeserializationRuleNtB8_4Rule10leave_exprBa_
FN:46,_RNvYNtNtNtNtCs2Eyh5DnjbiX_9cytoscnpy5rules6danger9injection24ModelDeserializationRuleNtB8_4Rule10leave_stmtBa_
FN:42,_RNvYNtNtNtNtCs2Eyh5DnjbiX_9cytoscnpy5rules6danger9injection7XSSRuleNtB8_4Rule10enter_stmtBa_
FN:54,_RNvYNtNtNtNtCs2Eyh5DnjbiX_9cytoscnpy5rules6danger9injection7XSSRuleNtB8_4Rule10leave_exprBa_
FN:46,_RNvYNtNtNtNtCs2Eyh5DnjbiX_9cytoscnpy5rules6danger9injection7XSSRuleNtB8_4Rule10leave_stmtBa_
FN:42,_RNvYNtNtNtNtCs2Eyh5DnjbiX_9cytoscnpy5rules6danger9injection7XmlRuleNtB8_4Rule10enter_stmtBa_
FN:54,_RNvYNtNtNtNtCs2Eyh5DnjbiX_9cytoscnpy5rules6danger9injection7XmlRuleNtB8_4Rule10leave_exprBa_
FN:46,_RNvYNtNtNtNtCs2Eyh5DnjbiX_9cytoscnpy5rules6danger9injection7XmlRuleNtB8_4Rule10leave_stmtBa_
FN:42,_RNvYNtNtNtNtCs2Eyh5DnjbiX_9cytoscnpy5rules6danger9injection8EvalRuleNtB8_4Rule10enter_stmtBa_
FN:54,_RNvYNtNtNtNtCs2Eyh5DnjbiX_9cytoscnpy5rules6danger9injection8EvalRuleNtB8_4Rule10leave_exprBa_
FN:46,_RNvYNtNtNtNtCs2Eyh5DnjbiX_9cytoscnpy5rules6danger9injection8EvalRuleNtB8_4Rule10leave_stmtBa_
FN:42,_RNvYNtNtNtNtCs2Eyh5DnjbiX_9cytoscnpy5rules6danger9injection8ExecRuleNtB8_4Rule10enter_stmtBa_
FN:54,_RNvYNtNtNtNtCs2Eyh5DnjbiX_9cytoscnpy5rules6danger9injection8ExecRuleNtB8_4Rule10leave_exprBa_
FN:46,_RNvYNtNtNtNtCs2Eyh5DnjbiX_9cytoscnpy5rules6danger9injection8ExecRuleNtB8_4Rule10leave_stmtBa_
FN:42,_RNvYNtNtNtNtCs2Eyh5DnjbiX_9cytoscnpy5rules6danger9injection8YamlRuleNtB8_4Rule10enter_stmtBa_
FN:54,_RNvYNtNtNtNtCs2Eyh5DnjbiX_9cytoscnpy5rules6danger9injection8YamlRuleNtB8_4Rule10leave_exprBa_
FN:46,_RNvYNtNtNtNtCs2Eyh5DnjbiX_9cytoscnpy5rules6danger9injection8YamlRuleNtB8_4Rule10leave_stmtBa_
FN:42,_RNvYNtNtNtNtCs2Eyh5DnjbiX_9cytoscnpy5rules6danger10filesystem12TempfileRuleNtB8_4Rule10enter_stmtBa_
FN:54,_RNvYNtNtNtNtCs2Eyh5DnjbiX_9cytoscnpy5rules6danger10filesystem12TempfileRuleNtB8_4Rule10leave_exprBa_
FN:46,_RNvYNtNtNtNtCs2Eyh5DnjbiX_9cytoscnpy5rules6danger10filesystem12TempfileRuleNtB8_4Rule10leave_stmtBa_
FN:42,_RNvYNtNtNtNtCs2Eyh5DnjbiX_9cytoscnpy5rules6danger10filesystem17PathTraversalRuleNtB8_4Rule10enter_stmtBa_
FN:54,_RNvYNtNtNtNtCs2Eyh5DnjbiX_9cytoscnpy5rules6danger10filesystem17PathTraversalRuleNtB8_4Rule10leave_exprBa_
FN:46,_RNvYNtNtNtNtCs2Eyh5DnjbiX_9cytoscnpy5rules6danger10filesystem17PathTraversalRuleNtB8_4Rule10leave_stmtBa_
FN:42,_RNvYNtNtNtNtCs2Eyh5DnjbiX_9cytoscnpy5rules6danger10filesystem22BadFilePermissionsRuleNtB8_4Rule10enter_stmtBa_
FN:54,_RNvYNtNtNtNtCs2Eyh5DnjbiX_9cytoscnpy5rules6danger10filesystem22BadFilePermissionsRuleNtB8_4Rule10leave_exprBa_
FN:46,_RNvYNtNtNtNtCs2Eyh5DnjbiX_9cytoscnpy5rules6danger10filesystem22BadFilePermissionsRuleNtB8_4Rule10leave_stmtBa_
FN:54,_RNvYNtNtNtNtCs2Eyh5DnjbiX_9cytoscnpy5rules6danger10frameworks18DjangoSecurityRuleNtB8_4Rule10leave_exprBa_
FN:46,_RNvYNtNtNtNtCs2Eyh5DnjbiX_9cytoscnpy5rules6danger10frameworks18DjangoSecurityRuleNtB8_4Rule10leave_stmtBa_
FN:50,_RNvYNtNtNtNtCs2Eyh5DnjbiX_9cytoscnpy5rules6danger10frameworks18DjangoSecurityRuleNtB8_4Rule10visit_exprBa_
FN:42,_RNvYNtNtNtNtCs2Eyh5DnjbiX_9cytoscnpy5rules6danger6crypto10RandomRuleNtB8_4Rule10enter_stmtBa_
FN:54,_RNvYNtNtNtNtCs2Eyh5DnjbiX_9cytoscnpy5rules6danger6crypto10RandomRuleNtB8_4Rule10leave_exprBa_
FN:46,_RNvYNtNtNtNtCs2Eyh5DnjbiX_9cytoscnpy5rules6danger6crypto10RandomRuleNtB8_4Rule10leave_stmtBa_
FN:42,_RNvYNtNtNtNtCs2Eyh5DnjbiX_9cytoscnpy5rules6danger6crypto11HashlibRuleNtB8_4Rule10enter_stmtBa_
FN:54,_RNvYNtNtNtNtCs2Eyh5DnjbiX_9cytoscnpy5rules6danger6crypto11HashlibRuleNtB8_4Rule10leave_exprBa_
FN:46,_RNvYNtNtNtNtCs2Eyh5DnjbiX_9cytoscnpy5rules6danger6crypto11HashlibRuleNtB8_4Rule10leave_stmtBa_
FN:42,_RNvYNtNtNtNtCs2Eyh5DnjbiX_9cytoscnpy5rules6danger4misc13DebugModeRuleNtB8_4Rule10enter_stmtBa_
FN:54,_RNvYNtNtNtNtCs2Eyh5DnjbiX_9cytoscnpy5rules6danger4misc13DebugModeRuleNtB8_4Rule10leave_exprBa_
FN:46,_RNvYNtNtNtNtCs2Eyh5DnjbiX_9cytoscnpy5rules6danger4misc13DebugModeRuleNtB8_4Rule10leave_stmtBa_
FN:54,_RNvYNtNtNtNtCs2Eyh5DnjbiX_9cytoscnpy5rules6danger4misc14AssertUsedRuleNtB8_4Rule10leave_exprBa_
FN:46,_RNvYNtNtNtNtCs2Eyh5DnjbiX_9cytoscnpy5rules6danger4misc14AssertUsedRuleNtB8_4Rule10leave_stmtBa_
FN:50,_RNvYNtNtNtNtCs2Eyh5DnjbiX_9cytoscnpy5rules6danger4misc14AssertUsedRuleNtB8_4Rule10visit_exprBa_
FN:42,_RNvYNtNtNtNtCs2Eyh5DnjbiX_9cytoscnpy5rules6danger4misc17BlacklistCallRuleNtB8_4Rule10enter_stmtBa_
FN:54,_RNvYNtNtNtNtCs2Eyh5DnjbiX_9cytoscnpy5rules6danger4misc17BlacklistCallRuleNtB8_4Rule10leave_exprBa_
FN:46,_RNvYNtNtNtNtCs2Eyh5DnjbiX_9cytoscnpy5rules6danger4misc17BlacklistCallRuleNtB8_4Rule10leave_stmtBa_
FN:54,_RNvYNtNtNtNtCs2Eyh5DnjbiX_9cytoscnpy5rules6danger4misc18InsecureImportRuleNtB8_4Rule10leave_exprBa_
FN:46,_RNvYNtNtNtNtCs2Eyh5DnjbiX_9cytoscnpy5rules6danger4misc18InsecureImportRuleNtB8_4Rule10leave_stmtBa_
FN:50,_RNvYNtNtNtNtCs2Eyh5DnjbiX_9cytoscnpy5rules6danger4misc18InsecureImportRuleNtB8_4Rule10visit_exprBa_
FN:42,_RNvYNtNtNtNtCs2Eyh5DnjbiX_9cytoscnpy5rules6danger4misc20Jinja2AutoescapeRuleNtB8_4Rule10enter_stmtBa_
FN:54,_RNvYNtNtNtNtCs2Eyh5DnjbiX_9cytoscnpy5rules6danger4misc20Jinja2AutoescapeRuleNtB8_4Rule10leave_exprBa_
FN:46,_RNvYNtNtNtNtCs2Eyh5DnjbiX_9cytoscnpy5rules6danger4misc20Jinja2AutoescapeRuleNtB8_4Rule10leave_stmtBa_
FN:42,_RNvYNtNtNtNtCs2Eyh5DnjbiX_9cytoscnpy5rules6danger4misc24LoggingSensitiveDataRuleNtB8_4Rule10enter_stmtBa_
FN:54,_RNvYNtNtNtNtCs2Eyh5DnjbiX_9cytoscnpy5rules6danger4misc24LoggingSensitiveDataRuleNtB8_4Rule10leave_exprBa_
FN:46,_RNvYNtNtNtNtCs2Eyh5DnjbiX_9cytoscnpy5rules6danger4misc24LoggingSensitiveDataRuleNtB8_4Rule10leave_stmtBa_
FNDA:756,_RNvYNtNtNtNtCsbhXKu17xbPQ_9cytoscnpy5rules6danger7network12RequestsRuleNtB8_4Rule10enter_stmtBa_
FNDA:1670,_RNvYNtNtNtNtCsbhXKu17xbPQ_9cytoscnpy5rules6danger7network12RequestsRuleNtB8_4Rule10leave_exprBa_
FNDA:756,_RNvYNtNtNtNtCsbhXKu17xbPQ_9cytoscnpy5rules6danger7network12RequestsRuleNtB8_4Rule10leave_stmtBa_
FNDA:756,_RNvYNtNtNtNtCsbhXKu17xbPQ_9cytoscnpy5rules6danger7network25RequestWithoutTimeoutRuleNtB8_4Rule10enter_stmtBa_
FNDA:1670,_RNvYNtNtNtNtCsbhXKu17xbPQ_9cytoscnpy5rules6danger7network25RequestWithoutTimeoutRuleNtB8_4Rule10leave_exprBa_
FNDA:756,_RNvYNtNtNtNtCsbhXKu17xbPQ_9cytoscnpy5rules6danger7network25RequestWithoutTimeoutRuleNtB8_4Rule10leave_stmtBa_
FNDA:1670,_RNvYNtNtNtNtCsbhXKu17xbPQ_9cytoscnpy5rules6danger7network30HardcodedBindAllInterfacesRuleNtB8_4Rule10leave_exprBa_
FNDA:756,_RNvYNtNtNtNtCsbhXKu17xbPQ_9cytoscnpy5rules6danger7network30HardcodedBindAllInterfacesRuleNtB8_4Rule10leave_stmtBa_
FNDA:756,_RNvYNtNtNtNtCsbhXKu17xbPQ_9cytoscnpy5rules6danger7network8SSRFRuleNtB8_4Rule10enter_stmtBa_
FNDA:1670,_RNvYNtNtNtNtCsbhXKu17xbPQ_9cytoscnpy5rules6danger7network8SSRFRuleNtB8_4Rule10leave_exprBa_
FNDA:756,_RNvYNtNtNtNtCsbhXKu17xbPQ_9cytoscnpy5rules6danger7network8SSRFRuleNtB8_4Rule10leave_stmtBa_
FNDA:756,_RNvYNtNtNtNtCsbhXKu17xbPQ_9cytoscnpy5rules6danger10filesystem12TempfileRuleNtB8_4Rule10enter_stmtBa_
FNDA:1670,_RNvYNtNtNtNtCsbhXKu17xbPQ_9cytoscnpy5rules6danger10filesystem12TempfileRuleNtB8_4Rule10leave_exprBa_
FNDA:756,_RNvYNtNtNtNtCsbhXKu17xbPQ_9cytoscnpy5rules6danger10filesystem12TempfileRuleNtB8_4Rule10leave_stmtBa_
FNDA:756,_RNvYNtNtNtNtCsbhXKu17xbPQ_9cytoscnpy5rules6danger10filesystem17PathTraversalRuleNtB8_4Rule10enter_stmtBa_
FNDA:1670,_RNvYNtNtNtNtCsbhXKu17xbPQ_9cytoscnpy5rules6danger10filesystem17PathTraversalRuleNtB8_4Rule10leave_exprBa_
FNDA:756,_RNvYNtNtNtNtCsbhXKu17xbPQ_9cytoscnpy5rules6danger10filesystem17PathTraversalRuleNtB8_4Rule10leave_stmtBa_
FNDA:756,_RNvYNtNtNtNtCsbhXKu17xbPQ_9cytoscnpy5rules6danger10filesystem22BadFilePermissionsRuleNtB8_4Rule10enter_stmtBa_
FNDA:1670,_RNvYNtNtNtNtCsbhXKu17xbPQ_9cytoscnpy5rules6danger10filesystem22BadFilePermissionsRuleNtB8_4Rule10leave_exprBa_
FNDA:756,_RNvYNtNtNtNtCsbhXKu17xbPQ_9cytoscnpy5rules6danger10filesystem22BadFilePermissionsRuleNtB8_4Rule10leave_stmtBa_
FNDA:756,_RNvYNtNtNtNtCsbhXKu17xbPQ_9cytoscnpy5rules6danger6crypto10RandomRuleNtB8_4Rule10enter_stmtBa_
FNDA:1670,_RNvYNtNtNtNtCsbhXKu17xbPQ_9cytoscnpy5rules6danger6crypto10RandomRuleNtB8_4Rule10leave_exprBa_
FNDA:756,_RNvYNtNtNtNtCsbhXKu17xbPQ_9cytoscnpy5rules6danger6crypto10RandomRuleNtB8_4Rule10leave_stmtBa_
FNDA:756,_RNvYNtNtNtNtCsbhXKu17xbPQ_9cytoscnpy5rules6danger6crypto11HashlibRuleNtB8_4Rule10enter_stmtBa_
FNDA:1670,_RNvYNtNtNtNtCsbhXKu17xbPQ_9cytoscnpy5rules6danger6crypto11HashlibRuleNtB8_4Rule10leave_exprBa_
FNDA:756,_RNvYNtNtNtNtCsbhXKu17xbPQ_9cytoscnpy5rules6danger6crypto11HashlibRuleNtB8_4Rule10leave_stmtBa_
FNDA:756,_RNvYNtNtNtNtCsbhXKu17xbPQ_9cytoscnpy5rules6danger9injection10PickleRuleNtB8_4Rule10enter_stmtBa_
FNDA:1670,_RNvYNtNtNtNtCsbhXKu17xbPQ_9cytoscnpy5rules6danger9injection10PickleRuleNtB8_4Rule10leave_exprBa_
FNDA:756,_RNvYNtNtNtNtCsbhXKu17xbPQ_9cytoscnpy5rules6danger9injection10PickleRuleNtB8_4Rule10leave_stmtBa_
FNDA:756,_RNvYNtNtNtNtCsbhXKu17xbPQ_9cytoscnpy5rules6danger9injection14SubprocessRuleNtB8_4Rule10enter_stmtBa_
FNDA:1670,_RNvYNtNtNtNtCsbhXKu17xbPQ_9cytoscnpy5rules6danger9injection14SubprocessRuleNtB8_4Rule10leave_exprBa_
FNDA:756,_RNvYNtNtNtNtCsbhXKu17xbPQ_9cytoscnpy5rules6danger9injection14SubprocessRuleNtB8_4Rule10leave_stmtBa_
FNDA:756,_RNvYNtNtNtNtCsbhXKu17xbPQ_9cytoscnpy5rules6danger9injection16SqlInjectionRuleNtB8_4Rule10enter_stmtBa_
FNDA:1670,_RNvYNtNtNtNtCsbhXKu17xbPQ_9cytoscnpy5rules6danger9injection16SqlInjectionRuleNtB8_4Rule10leave_exprBa_
FNDA:756,_RNvYNtNtNtNtCsbhXKu17xbPQ_9cytoscnpy5rules6danger9injection16SqlInjectionRuleNtB8_4Rule10leave_stmtBa_
FNDA:756,_RNvYNtNtNtNtCsbhXKu17xbPQ_9cytoscnpy5rules6danger9injection19AsyncSubprocessRuleNtB8_4Rule10enter_stmtBa_
FNDA:1670,_RNvYNtNtNtNtCsbhXKu17xbPQ_9cytoscnpy5rules6danger9injection19AsyncSubprocessRuleNtB8_4Rule10leave_exprBa_
FNDA:756,_RNvYNtNtNtNtCsbhXKu17xbPQ_9cytoscnpy5rules6danger9injection19AsyncSubprocessRuleNtB8_4Rule10leave_stmtBa_
FNDA:756,_RNvYNtNtNtNtCsbhXKu17xbPQ_9cytoscnpy5rules6danger9injection19SqlInjectionRawRuleNtB8_4Rule10enter_stmtBa_
FNDA:1670,_RNvYNtNtNtNtCsbhXKu17xbPQ_9cytoscnpy5rules6danger9injection19SqlInjectionRawRuleNtB8_4Rule10leave_exprBa_
FNDA:756,_RNvYNtNtNtNtCsbhXKu17xbPQ_9cytoscnpy5rules6danger9injection19SqlInjectionRawRuleNtB8_4Rule10leave_stmtBa_
FNDA:756,_RNvYNtNtNtNtCsbhXKu17xbPQ_9cytoscnpy5rules6danger9injection21TarfileExtractionRuleNtB8_4Rule10enter_stmtBa_
FNDA:1670,_RNvYNtNtNtNtCsbhXKu17xbPQ_9cytoscnpy5rules6danger9injection21TarfileExtractionRuleNtB8_4Rule10leave_exprBa_
FNDA:756,_RNvYNtNtNtNtCsbhXKu17xbPQ_9cytoscnpy5rules6danger9injection21TarfileExtractionRuleNtB8_4Rule10leave_stmtBa_
FNDA:756,_RNvYNtNtNtNtCsbhXKu17xbPQ_9cytoscnpy5rules6danger9injection21ZipfileExtractionRuleNtB8_4Rule10enter_stmtBa_
FNDA:1670,_RNvYNtNtNtNtCsbhXKu17xbPQ_9cytoscnpy5rules6danger9injection21ZipfileExtractionRuleNtB8_4Rule10leave_exprBa_
FNDA:756,_RNvYNtNtNtNtCsbhXKu17xbPQ_9cytoscnpy5rules6danger9injection21ZipfileExtractionRuleNtB8_4Rule10leave_stmtBa_
FNDA:756,_RNvYNtNtNtNtCsbhXKu17xbPQ_9cytoscnpy5rules6danger9injection24ModelDeserializationRuleNtB8_4Rule10enter_stmtBa_
FNDA:1670,_RNvYNtNtNtNtCsbhXKu17xbPQ_9cytoscnpy5rules6danger9injection24ModelDeserializationRuleNtB8_4Rule10leave_exprBa_
FNDA:756,_RNvYNtNtNtNtCsbhXKu17xbPQ_9cytoscnpy5rules6danger9injection24ModelDeserializationRuleNtB8_4Rule10leave_stmtBa_
FNDA:756,_RNvYNtNtNtNtCsbhXKu17xbPQ_9cytoscnpy5rules6danger9injection7XSSRuleNtB8_4Rule10enter_stmtBa_
FNDA:1670,_RNvYNtNtNtNtCsbhXKu17xbPQ_9cytoscnpy5rules6danger9injection7XSSRuleNtB8_4Rule10leave_exprBa_
FNDA:756,_RNvYNtNtNtNtCsbhXKu17xbPQ_9cytoscnpy5rules6danger9injection7XSSRuleNtB8_4Rule10leave_stmtBa_
FNDA:756,_RNvYNtNtNtNtCsbhXKu17xbPQ_9cytoscnpy5rules6danger9injection7XmlRuleNtB8_4Rule10enter_stmtBa_
FNDA:1670,_RNvYNtNtNtNtCsbhXKu17xbPQ_9cytoscnpy5rules6danger9injection7XmlRuleNtB8_4Rule10leave_exprBa_
FNDA:756,_RNvYNtNtNtNtCsbhXKu17xbPQ_9cytoscnpy5rules6danger9injection7XmlRuleNtB8_4Rule10leave_stmtBa_
FNDA:756,_RNvYNtNtNtNtCsbhXKu17xbPQ_9cytoscnpy5rules6danger9injection8EvalRuleNtB8_4Rule10enter_stmtBa_
FNDA:1670,_RNvYNtNtNtNtCsbhXKu17xbPQ_9cytoscnpy5rules6danger9injection8EvalRuleNtB8_4Rule10leave_exprBa_
FNDA:756,_RNvYNtNtNtNtCsbhXKu17xbPQ_9cytoscnpy5rules6danger9injection8EvalRuleNtB8_4Rule10leave_stmtBa_
FNDA:756,_RNvYNtNtNtNtCsbhXKu17xbPQ_9cytoscnpy5rules6danger9injection8ExecRuleNtB8_4Rule10enter_stmtBa_
FNDA:1670,_RNvYNtNtNtNtCsbhXKu17xbPQ_9cytoscnpy5rules6danger9injection8ExecRuleNtB8_4Rule10leave_exprBa_
FNDA:756,_RNvYNtNtNtNtCsbhXKu17xbPQ_9cytoscnpy5rules6danger9injection8ExecRuleNtB8_4Rule10leave_stmtBa_
FNDA:756,_RNvYNtNtNtNtCsbhXKu17xbPQ_9cytoscnpy5rules6danger9injection8YamlRuleNtB8_4Rule10enter_stmtBa_
FNDA:1670,_RNvYNtNtNtNtCsbhXKu17xbPQ_9cytoscnpy5rules6danger9injection8YamlRuleNtB8_4Rule10leave_exprBa_
FNDA:756,_RNvYNtNtNtNtCsbhXKu17xbPQ_9cytoscnpy5rules6danger9injection8YamlRuleNtB8_4Rule10leave_stmtBa_
FNDA:1670,_RNvYNtNtNtNtCsbhXKu17xbPQ_9cytoscnpy5rules6danger10frameworks18DjangoSecurityRuleNtB8_4Rule10leave_exprBa_
FNDA:756,_RNvYNtNtNtNtCsbhXKu17xbPQ_9cytoscnpy5rules6danger10frameworks18DjangoSecurityRuleNtB8_4Rule10leave_stmtBa_
FNDA:1670,_RNvYNtNtNtNtCsbhXKu17xbPQ_9cytoscnpy5rules6danger10frameworks18DjangoSecurityRuleNtB8_4Rule10visit_exprBa_
FNDA:192,_RNvYNtNtNtCsbhXKu17xbPQ_9cytoscnpy5rules7quality11NestingRuleNtB6_4Rule10leave_exprB8_
FNDA:192,_RNvYNtNtNtCsbhXKu17xbPQ_9cytoscnpy5rules7quality11NestingRuleNtB6_4Rule10visit_exprB8_
FNDA:192,_RNvYNtNtNtCsbhXKu17xbPQ_9cytoscnpy5rules7quality14BareExceptRuleNtB6_4Rule10leave_exprB8_
FNDA:278,_RNvYNtNtNtCsbhXKu17xbPQ_9cytoscnpy5rules7quality14BareExceptRuleNtB6_4Rule10leave_stmtB8_
FNDA:192,_RNvYNtNtNtCsbhXKu17xbPQ_9cytoscnpy5rules7quality14BareExceptRuleNtB6_4Rule10visit_exprB8_
FNDA:192,_RNvYNtNtNtCsbhXKu17xbPQ_9cytoscnpy5rules7quality14ComplexityRuleNtB6_4Rule10leave_exprB8_
FNDA:278,_RNvYNtNtNtCsbhXKu17xbPQ_9cytoscnpy5rules7quality14ComplexityRuleNtB6_4Rule10leave_stmtB8_
FNDA:192,_RNvYNtNtNtCsbhXKu17xbPQ_9cytoscnpy5rules7quality14ComplexityRuleNtB6_4Rule10visit_exprB8_
FNDA:192,_RNvYNtNtNtCsbhXKu17xbPQ_9cytoscnpy5rules7quality17ArgumentCountRuleNtB6_4Rule10leave_exprB8_
FNDA:278,_RNvYNtNtNtCsbhXKu17xbPQ_9cytoscnpy5rules7quality17ArgumentCountRuleNtB6_4Rule10leave_stmtB8_
FNDA:192,_RNvYNtNtNtCsbhXKu17xbPQ_9cytoscnpy5rules7quality17ArgumentCountRuleNtB6_4Rule10visit_exprB8_
FNDA:192,_RNvYNtNtNtCsbhXKu17xbPQ_9cytoscnpy5rules7quality18FunctionLengthRuleNtB6_4Rule10leave_exprB8_
FNDA:278,_RNvYNtNtNtCsbhXKu17xbPQ_9cytoscnpy5rules7quality18FunctionLengthRuleNtB6_4Rule10leave_stmtB8_
FNDA:192,_RNvYNtNtNtCsbhXKu17xbPQ_9cytoscnpy5rules7quality18FunctionLengthRuleNtB6_4Rule10visit_exprB8_
FNDA:278,_RNvYNtNtNtCsbhXKu17xbPQ_9cytoscnpy5rules7quality23DangerousComparisonRuleNtB6_4Rule10enter_stmtB8_
FNDA:192,_RNvYNtNtNtCsbhXKu17xbPQ_9cytoscnpy5rules7quality23DangerousComparisonRuleNtB6_4Rule10leave_exprB8_
FNDA:278,_RNvYNtNtNtCsbhXKu17xbPQ_9cytoscnpy5rules7quality23DangerousComparisonRuleNtB6_4Rule10leave_stmtB8_
FNDA:192,_RNvYNtNtNtCsbhXKu17xbPQ_9cytoscnpy5rules7quality26MutableDefaultArgumentRuleNtB6_4Rule10leave_exprB8_
FNDA:278,_RNvYNtNtNtCsbhXKu17xbPQ_9cytoscnpy5rules7quality26MutableDefaultArgumentRuleNtB6_4Rule10leave_stmtB8_
FNDA:192,_RNvYNtNtNtCsbhXKu17xbPQ_9cytoscnpy5rules7quality26MutableDefaultArgumentRuleNtB6_4Rule10visit_exprB8_
FNDA:756,_RNvYNtNtNtNtCsbhXKu17xbPQ_9cytoscnpy5rules6danger4misc13DebugModeRuleNtB8_4Rule10enter_stmtBa_
FNDA:1670,_RNvYNtNtNtNtCsbhXKu17xbPQ_9cytoscnpy5rules6danger4misc13DebugModeRuleNtB8_4Rule10leave_exprBa_
FNDA:756,_RNvYNtNtNtNtCsbhXKu17xbPQ_9cytoscnpy5rules6danger4misc13DebugModeRuleNtB8_4Rule10leave_stmtBa_
FNDA:1670,_RNvYNtNtNtNtCsbhXKu17xbPQ_9cytoscnpy5rules6danger4misc14AssertUsedRuleNtB8_4Rule10leave_exprBa_
FNDA:756,_RNvYNtNtNtNtCsbhXKu17xbPQ_9cytoscnpy5rules6danger4misc14AssertUsedRuleNtB8_4Rule10leave_stmtBa_
FNDA:1670,_RNvYNtNtNtNtCsbhXKu17xbPQ_9cytoscnpy5rules6danger4misc14AssertUsedRuleNtB8_4Rule10visit_exprBa_
FNDA:756,_RNvYNtNtNtNtCsbhXKu17xbPQ_9cytoscnpy5rules6danger4misc17BlacklistCallRuleNtB8_4Rule10enter_stmtBa_
FNDA:1670,_RNvYNtNtNtNtCsbhXKu17xbPQ_9cytoscnpy5rules6danger4misc17BlacklistCallRuleNtB8_4Rule10leave_exprBa_
FNDA:756,_RNvYNtNtNtNtCsbhXKu17xbPQ_9cytoscnpy5rules6danger4misc17BlacklistCallRuleNtB8_4Rule10leave_stmtBa_
FNDA:1670,_RNvYNtNtNtNtCsbhXKu17xbPQ_9cytoscnpy5rules6danger4misc18InsecureImportRuleNtB8_4Rule10leave_exprBa_
FNDA:756,_RNvYNtNtNtNtCsbhXKu17xbPQ_9cytoscnpy5rules6danger4misc18InsecureImportRuleNtB8_4Rule10leave_stmtBa_
FNDA:1670,_RNvYNtNtNtNtCsbhXKu17xbPQ_9cytoscnpy5rules6danger4misc18InsecureImportRuleNtB8_4Rule10visit_exprBa_
FNDA:756,_RNvYNtNtNtNtCsbhXKu17xbPQ_9cytoscnpy5rules6danger4misc20Jinja2AutoescapeRuleNtB8_4Rule10enter_stmtBa_
FNDA:1670,_RNvYNtNtNtNtCsbhXKu17xbPQ_9cytoscnpy5rules6danger4misc20Jinja2AutoescapeRuleNtB8_4Rule10leave_exprBa_
FNDA:756,_RNvYNtNtNtNtCsbhXKu17xbPQ_9cytoscnpy5rules6danger4misc20Jinja2AutoescapeRuleNtB8_4Rule10leave_stmtBa_
FNDA:756,_RNvYNtNtNtNtCsbhXKu17xbPQ_9cytoscnpy5rules6danger4misc24LoggingSensitiveDataRuleNtB8_4Rule10enter_stmtBa_
FNDA:1670,_RNvYNtNtNtNtCsbhXKu17xbPQ_9cytoscnpy5rules6danger4misc24LoggingSensitiveDataRuleNtB8_4Rule10leave_exprBa_
FNDA:756,_RNvYNtNtNtNtCsbhXKu17xbPQ_9cytoscnpy5rules6danger4misc24LoggingSensitiveDataRuleNtB8_4Rule10leave_stmtBa_
FNDA:0,_RNvYNtNtNtNtCs2Eyh5DnjbiX_9cytoscnpy5rules6danger7network12RequestsRuleNtB8_4Rule10enter_stmtBa_
FNDA:0,_RNvYNtNtNtNtCs2Eyh5DnjbiX_9cytoscnpy5rules6danger7network12RequestsRuleNtB8_4Rule10leave_exprBa_
FNDA:0,_RNvYNtNtNtNtCs2Eyh5DnjbiX_9cytoscnpy5rules6danger7network12RequestsRuleNtB8_4Rule10leave_stmtBa_
FNDA:0,_RNvYNtNtNtNtCs2Eyh5DnjbiX_9cytoscnpy5rules6danger7network25RequestWithoutTimeoutRuleNtB8_4Rule10enter_stmtBa_
FNDA:0,_RNvYNtNtNtNtCs2Eyh5DnjbiX_9cytoscnpy5rules6danger7network25RequestWithoutTimeoutRuleNtB8_4Rule10leave_exprBa_
FNDA:0,_RNvYNtNtNtNtCs2Eyh5DnjbiX_9cytoscnpy5rules6danger7network25RequestWithoutTimeoutRuleNtB8_4Rule10leave_stmtBa_
FNDA:0,_RNvYNtNtNtNtCs2Eyh5DnjbiX_9cytoscnpy5rules6danger7network30HardcodedBindAllInterfacesRuleNtB8_4Rule10leave_exprBa_
FNDA:0,_RNvYNtNtNtNtCs2Eyh5DnjbiX_9cytoscnpy5rules6danger7network30HardcodedBindAllInterfacesRuleNtB8_4Rule10leave_stmtBa_
FNDA:0,_RNvYNtNtNtNtCs2Eyh5DnjbiX_9cytoscnpy5rules6danger7network8SSRFRuleNtB8_4Rule10enter_stmtBa_
FNDA:0,_RNvYNtNtNtNtCs2Eyh5DnjbiX_9cytoscnpy5rules6danger7network8SSRFRuleNtB8_4Rule10leave_exprBa_
FNDA:0,_RNvYNtNtNtNtCs2Eyh5DnjbiX_9cytoscnpy5rules6danger7network8SSRFRuleNtB8_4Rule10leave_stmtBa_
FNDA:0,_RNvYNtNtNtCs2Eyh5DnjbiX_9cytoscnpy5rules7quality11NestingRuleNtB6_4Rule10leave_exprB8_
FNDA:0,_RNvYNtNtNtCs2Eyh5DnjbiX_9cytoscnpy5rules7quality11NestingRuleNtB6_4Rule10visit_exprB8_
